
kernel.elf:     file format elf64-x86-64


Disassembly of section .text:

0000000000104500 <_Z4stopv>:
  104500:	55                   	push   rbp
  104501:	48 89 e5             	mov    rbp,rsp
  104504:	e9 00 00 00 00       	jmp    104509 <_Z4stopv+0x9>
  104509:	f4                   	hlt
  10450a:	e9 fa ff ff ff       	jmp    104509 <_Z4stopv+0x9>
  10450f:	90                   	nop

0000000000104510 <entry_point>:
  104510:	55                   	push   rbp
  104511:	48 89 e5             	mov    rbp,rsp
  104514:	48 83 ec 10          	sub    rsp,0x10
  104518:	48 89 7d f8          	mov    QWORD PTR [rbp-0x8],rdi
  10451c:	48 8b 7d f8          	mov    rdi,QWORD PTR [rbp-0x8]
  104520:	48 8d 35 19 00 00 00 	lea    rsi,[rip+0x19]        # 104540 <kernel_main>
  104527:	48 8d 15 e2 2a 01 00 	lea    rdx,[rip+0x12ae2]        # 117010 <kernel_main_stack>
  10452e:	e8 bc 97 00 00       	call   10dcef <call_kernel_main>
  104533:	48 83 c4 10          	add    rsp,0x10
  104537:	5d                   	pop    rbp
  104538:	c3                   	ret
  104539:	0f 1f 80 00 00 00 00 	nop    DWORD PTR [rax+0x0]

0000000000104540 <kernel_main>:
  104540:	55                   	push   rbp
  104541:	48 89 e5             	mov    rbp,rsp
  104544:	48 81 ec 50 04 00 00 	sub    rsp,0x450
  10454b:	48 89 7d f8          	mov    QWORD PTR [rbp-0x8],rdi
  10454f:	e8 6c e7 00 00       	call   112cc0 <_Z22SetupIdentityPageTablev>
  104554:	e8 07 e9 00 00       	call   112e60 <_Z17InitializeKeycodev>
  104559:	48 8b 7d f8          	mov    rdi,QWORD PTR [rbp-0x8]
  10455d:	e8 4e 03 00 00       	call   1048b0 <_Z15InitializeFrameP10bootinfo_t>
  104562:	48 8d 05 c7 2e 51 00 	lea    rax,[rip+0x512ec7]        # 617430 <vinfo>
  104569:	48 89 85 b8 fb ff ff 	mov    QWORD PTR [rbp-0x448],rax
  104570:	48 8b 38             	mov    rdi,QWORD PTR [rax]
  104573:	e8 f8 00 01 00       	call   114670 <_Z20InitializeBackBufferP12video_info_t>
  104578:	48 8b 85 b8 fb ff ff 	mov    rax,QWORD PTR [rbp-0x448]
  10457f:	48 8b 08             	mov    rcx,QWORD PTR [rax]
  104582:	8b 49 10             	mov    ecx,DWORD PTR [rcx+0x10]
  104585:	89 4d f4             	mov    DWORD PTR [rbp-0xc],ecx
  104588:	48 8b 00             	mov    rax,QWORD PTR [rax]
  10458b:	8b 40 14             	mov    eax,DWORD PTR [rax+0x14]
  10458e:	89 45 f0             	mov    DWORD PTR [rbp-0x10],eax
  104591:	48 8b 45 f8          	mov    rax,QWORD PTR [rbp-0x8]
  104595:	48 8b 48 28          	mov    rcx,QWORD PTR [rax+0x28]
  104599:	48 8d 05 00 86 51 00 	lea    rax,[rip+0x518600]        # 61cba0 <mmap>
  1045a0:	48 89 08             	mov    QWORD PTR [rax],rcx
  1045a3:	c7 45 e8 00 00 00 00 	mov    DWORD PTR [rbp-0x18],0x0
  1045aa:	c7 45 ec 00 00 00 00 	mov    DWORD PTR [rbp-0x14],0x0
  1045b1:	8b 45 f4             	mov    eax,DWORD PTR [rbp-0xc]
  1045b4:	89 45 e0             	mov    DWORD PTR [rbp-0x20],eax
  1045b7:	8b 45 f0             	mov    eax,DWORD PTR [rbp-0x10]
  1045ba:	89 45 e4             	mov    DWORD PTR [rbp-0x1c],eax
  1045bd:	c6 45 d8 00          	mov    BYTE PTR [rbp-0x28],0x0
  1045c1:	c6 45 d9 00          	mov    BYTE PTR [rbp-0x27],0x0
  1045c5:	c6 45 da 00          	mov    BYTE PTR [rbp-0x26],0x0
  1045c9:	48 8b 7d e8          	mov    rdi,QWORD PTR [rbp-0x18]
  1045cd:	48 8b 75 e0          	mov    rsi,QWORD PTR [rbp-0x20]
  1045d1:	8a 45 da             	mov    al,BYTE PTR [rbp-0x26]
  1045d4:	88 45 d6             	mov    BYTE PTR [rbp-0x2a],al
  1045d7:	66 8b 45 d8          	mov    ax,WORD PTR [rbp-0x28]
  1045db:	66 89 45 d4          	mov    WORD PTR [rbp-0x2c],ax
  1045df:	0f b6 45 d6          	movzx  eax,BYTE PTR [rbp-0x2a]
  1045e3:	c1 e0 10             	shl    eax,0x10
  1045e6:	0f b7 55 d4          	movzx  edx,WORD PTR [rbp-0x2c]
  1045ea:	09 c2                	or     edx,eax
  1045ec:	e8 7f 07 00 00       	call   104d70 <_Z11WriteSquare6VectorS_5Color>
  1045f1:	66 c7 45 d2 08 00    	mov    WORD PTR [rbp-0x2e],0x8
  1045f7:	66 c7 45 d0 10 00    	mov    WORD PTR [rbp-0x30],0x10
  1045fd:	bf 08 00 00 00       	mov    edi,0x8
  104602:	be 10 00 00 00       	mov    esi,0x10
  104607:	e8 c4 a6 00 00       	call   10ecd0 <_Z17InitializeSegmenttt>
  10460c:	e8 3f dd 00 00       	call   112350 <_Z19InitializeInterruptv>
  104611:	e8 7a dc 00 00       	call   112290 <_Z13InitializePICv>
  104616:	48 8d 3d f3 2d 11 00 	lea    rdi,[rip+0x112df3]        # 217410 <memory_manager_buf>
  10461d:	e8 be f7 00 00       	call   113de0 <_ZN19BitmapMemoryManagerC1Ev>
  104622:	48 8d 05 e7 2d 11 00 	lea    rax,[rip+0x112de7]        # 217410 <memory_manager_buf>
  104629:	48 89 05 f0 2d 51 00 	mov    QWORD PTR [rip+0x512df0],rax        # 617420 <memory_manager>
  104630:	48 8b 3d e9 2d 51 00 	mov    rdi,QWORD PTR [rip+0x512de9]        # 617420 <memory_manager>
  104637:	48 8d 05 62 85 51 00 	lea    rax,[rip+0x518562]        # 61cba0 <mmap>
  10463e:	48 8b 30             	mov    rsi,QWORD PTR [rax]
  104641:	e8 0a fc 00 00       	call   114250 <_Z23InitializeMemoryManagerP19BitmapMemoryManagerP9MemoryMap>
  104646:	48 8b 35 d3 2d 51 00 	mov    rsi,QWORD PTR [rip+0x512dd3]        # 617420 <memory_manager>
  10464d:	48 8d 7d b8          	lea    rdi,[rbp-0x48]
  104651:	e8 6a fd 00 00       	call   1143c0 <_Z14InitializeHeapR19BitmapMemoryManager>
  104656:	48 8d 7d b8          	lea    rdi,[rbp-0x48]
  10465a:	48 83 c7 08          	add    rdi,0x8
  10465e:	e8 bd 01 00 00       	call   104820 <_ZNK5ErrorcvbEv>
  104663:	a8 01                	test   al,0x1
  104665:	0f 85 05 00 00 00    	jne    104670 <kernel_main+0x130>
  10466b:	e9 31 00 00 00       	jmp    1046a1 <kernel_main+0x161>
  104670:	48 8d 3d 4c c0 ff ff 	lea    rdi,[rip+0xffffffffffffc04c]        # 1006c3 <_svfprintf_r.blanks-0x41d>
  104677:	b0 00                	mov    al,0x0
  104679:	e8 42 0e 00 00       	call   1054c0 <Printf>
  10467e:	48 8d 7d b8          	lea    rdi,[rbp-0x48]
  104682:	48 83 c7 08          	add    rdi,0x8
  104686:	e8 b5 01 00 00       	call   104840 <_ZNK5Error4NameEv>
  10468b:	48 89 c6             	mov    rsi,rax
  10468e:	48 8d 3d d1 bf ff ff 	lea    rdi,[rip+0xffffffffffffbfd1]        # 100666 <_svfprintf_r.blanks-0x47a>
  104695:	b0 00                	mov    al,0x0
  104697:	e8 24 0e 00 00       	call   1054c0 <Printf>
  10469c:	e8 5f fe ff ff       	call   104500 <_Z4stopv>
  1046a1:	e8 4a ff 00 00       	call   1145f0 <_Z20InitializeLAPICTimerv>
  1046a6:	c7 85 c4 fb ff ff 00 	mov    DWORD PTR [rbp-0x43c],0x0
  1046ad:	00 00 00 
  1046b0:	48 8d 3d ce bc ff ff 	lea    rdi,[rip+0xffffffffffffbcce]        # 100385 <_svfprintf_r.blanks-0x75b>
  1046b7:	b0 00                	mov    al,0x0
  1046b9:	e8 02 0e 00 00       	call   1054c0 <Printf>
  1046be:	48 8d 3d e7 bd ff ff 	lea    rdi,[rip+0xffffffffffffbde7]        # 1004ac <_svfprintf_r.blanks-0x634>
  1046c5:	48 8d 35 74 fe ff ff 	lea    rsi,[rip+0xfffffffffffffe74]        # 104540 <kernel_main>
  1046cc:	b0 00                	mov    al,0x0
  1046ce:	e8 ed 0d 00 00       	call   1054c0 <Printf>
  1046d3:	48 8d 3d 00 be ff ff 	lea    rdi,[rip+0xffffffffffffbe00]        # 1004da <_svfprintf_r.blanks-0x606>
  1046da:	48 8d 35 2f 29 01 00 	lea    rsi,[rip+0x1292f]        # 117010 <kernel_main_stack>
  1046e1:	b0 00                	mov    al,0x0
  1046e3:	e8 d8 0d 00 00       	call   1054c0 <Printf>
  1046e8:	48 8d 3d a1 c0 ff ff 	lea    rdi,[rip+0xffffffffffffc0a1]        # 100790 <_svfprintf_r.blanks-0x350>
  1046ef:	b0 00                	mov    al,0x0
  1046f1:	e8 ca 0d 00 00       	call   1054c0 <Printf>
  1046f6:	48 8d bd d0 fb ff ff 	lea    rdi,[rbp-0x430]
  1046fd:	e8 1e eb 00 00       	call   113220 <_Z9GetStringPc>
  104702:	48 8d bd d0 fb ff ff 	lea    rdi,[rbp-0x430]
  104709:	e8 d2 eb 00 00       	call   1132e0 <_Z8tokenizePc>
  10470e:	48 89 85 c8 fb ff ff 	mov    QWORD PTR [rbp-0x438],rax
  104715:	48 8b bd c8 fb ff ff 	mov    rdi,QWORD PTR [rbp-0x438]
  10471c:	e8 bf f0 00 00       	call   1137e0 <_Z7commandPPc>
  104721:	48 8b bd c8 fb ff ff 	mov    rdi,QWORD PTR [rbp-0x438]
  104728:	e8 33 ee 00 00       	call   113560 <_Z10free_tokenPPc>
  10472d:	e9 b6 ff ff ff       	jmp    1046e8 <kernel_main+0x1a8>
  104732:	cc                   	int3
  104733:	cc                   	int3
  104734:	cc                   	int3
  104735:	cc                   	int3
  104736:	cc                   	int3
  104737:	cc                   	int3
  104738:	cc                   	int3
  104739:	cc                   	int3
  10473a:	cc                   	int3
  10473b:	cc                   	int3
  10473c:	cc                   	int3
  10473d:	cc                   	int3
  10473e:	cc                   	int3
  10473f:	cc                   	int3

0000000000104740 <__cxx_global_var_init>:
  104740:	55                   	push   rbp
  104741:	48 89 e5             	mov    rbp,rsp
  104744:	e8 47 00 00 00       	call   104790 <_ZNSt3__114numeric_limitsImE3maxEv>
  104749:	48 89 c6             	mov    rsi,rax
  10474c:	48 8d 3d ad 28 01 00 	lea    rdi,[rip+0x128ad]        # 117000 <_ZL10kNullFrame>
  104753:	e8 48 00 00 00       	call   1047a0 <_ZN7FrameIDC2Em>
  104758:	5d                   	pop    rbp
  104759:	c3                   	ret
  10475a:	66 0f 1f 44 00 00    	nop    WORD PTR [rax+rax*1+0x0]

0000000000104760 <__cxx_global_var_init.1>:
  104760:	55                   	push   rbp
  104761:	48 89 e5             	mov    rbp,rsp
  104764:	48 8d 3d a5 28 11 00 	lea    rdi,[rip+0x1128a5]        # 217010 <Input_Buffer>
  10476b:	e8 60 00 00 00       	call   1047d0 <_ZN11InputBufferC2Ev>
  104770:	5d                   	pop    rbp
  104771:	c3                   	ret
  104772:	66 66 66 66 66 2e 0f 	data16 data16 data16 data16 cs nop WORD PTR [rax+rax*1+0x0]
  104779:	1f 84 00 00 00 00 00 

0000000000104780 <_GLOBAL__sub_I_kernel.cpp>:
  104780:	55                   	push   rbp
  104781:	48 89 e5             	mov    rbp,rsp
  104784:	e8 b7 ff ff ff       	call   104740 <__cxx_global_var_init>
  104789:	e8 d2 ff ff ff       	call   104760 <__cxx_global_var_init.1>
  10478e:	5d                   	pop    rbp
  10478f:	c3                   	ret

0000000000104790 <_ZNSt3__114numeric_limitsImE3maxEv>:
  104790:	55                   	push   rbp
  104791:	48 89 e5             	mov    rbp,rsp
  104794:	e8 d7 00 00 00       	call   104870 <_ZNSt3__123__libcpp_numeric_limitsImLb1EE3maxEv>
  104799:	5d                   	pop    rbp
  10479a:	c3                   	ret
  10479b:	cc                   	int3
  10479c:	cc                   	int3
  10479d:	cc                   	int3
  10479e:	cc                   	int3
  10479f:	cc                   	int3

00000000001047a0 <_ZN7FrameIDC2Em>:
  1047a0:	55                   	push   rbp
  1047a1:	48 89 e5             	mov    rbp,rsp
  1047a4:	48 83 ec 10          	sub    rsp,0x10
  1047a8:	48 89 7d f8          	mov    QWORD PTR [rbp-0x8],rdi
  1047ac:	48 89 75 f0          	mov    QWORD PTR [rbp-0x10],rsi
  1047b0:	48 8b 45 f8          	mov    rax,QWORD PTR [rbp-0x8]
  1047b4:	48 8b 4d f0          	mov    rcx,QWORD PTR [rbp-0x10]
  1047b8:	48 89 08             	mov    QWORD PTR [rax],rcx
  1047bb:	48 83 c4 10          	add    rsp,0x10
  1047bf:	5d                   	pop    rbp
  1047c0:	c3                   	ret
  1047c1:	cc                   	int3
  1047c2:	cc                   	int3
  1047c3:	cc                   	int3
  1047c4:	cc                   	int3
  1047c5:	cc                   	int3
  1047c6:	cc                   	int3
  1047c7:	cc                   	int3
  1047c8:	cc                   	int3
  1047c9:	cc                   	int3
  1047ca:	cc                   	int3
  1047cb:	cc                   	int3
  1047cc:	cc                   	int3
  1047cd:	cc                   	int3
  1047ce:	cc                   	int3
  1047cf:	cc                   	int3

00000000001047d0 <_ZN11InputBufferC2Ev>:
  1047d0:	55                   	push   rbp
  1047d1:	48 89 e5             	mov    rbp,rsp
  1047d4:	50                   	push   rax
  1047d5:	48 89 7d f8          	mov    QWORD PTR [rbp-0x8],rdi
  1047d9:	48 8b 45 f8          	mov    rax,QWORD PTR [rbp-0x8]
  1047dd:	c7 80 ec 03 00 00 00 	mov    DWORD PTR [rax+0x3ec],0x0
  1047e4:	00 00 00 
  1047e7:	c7 80 f0 03 00 00 00 	mov    DWORD PTR [rax+0x3f0],0x0
  1047ee:	00 00 00 
  1047f1:	c7 80 f4 03 00 00 00 	mov    DWORD PTR [rax+0x3f4],0x0
  1047f8:	00 00 00 
  1047fb:	c7 80 f8 03 00 00 00 	mov    DWORD PTR [rax+0x3f8],0x0
  104802:	00 00 00 
  104805:	c7 80 fc 03 00 00 00 	mov    DWORD PTR [rax+0x3fc],0x0
  10480c:	00 00 00 
  10480f:	c6 80 e8 03 00 00 00 	mov    BYTE PTR [rax+0x3e8],0x0
  104816:	48 83 c4 08          	add    rsp,0x8
  10481a:	5d                   	pop    rbp
  10481b:	c3                   	ret
  10481c:	cc                   	int3
  10481d:	cc                   	int3
  10481e:	cc                   	int3
  10481f:	cc                   	int3

0000000000104820 <_ZNK5ErrorcvbEv>:
  104820:	55                   	push   rbp
  104821:	48 89 e5             	mov    rbp,rsp
  104824:	50                   	push   rax
  104825:	48 89 7d f8          	mov    QWORD PTR [rbp-0x8],rdi
  104829:	48 8b 45 f8          	mov    rax,QWORD PTR [rbp-0x8]
  10482d:	83 38 00             	cmp    DWORD PTR [rax],0x0
  104830:	0f 95 c0             	setne  al
  104833:	24 01                	and    al,0x1
  104835:	0f b6 c0             	movzx  eax,al
  104838:	48 83 c4 08          	add    rsp,0x8
  10483c:	5d                   	pop    rbp
  10483d:	c3                   	ret
  10483e:	cc                   	int3
  10483f:	cc                   	int3

0000000000104840 <_ZNK5Error4NameEv>:
  104840:	55                   	push   rbp
  104841:	48 89 e5             	mov    rbp,rsp
  104844:	48 83 ec 10          	sub    rsp,0x10
  104848:	48 89 7d f8          	mov    QWORD PTR [rbp-0x8],rdi
  10484c:	48 8b 45 f8          	mov    rax,QWORD PTR [rbp-0x8]
  104850:	8b 00                	mov    eax,DWORD PTR [rax]
  104852:	89 c6                	mov    esi,eax
  104854:	48 8d 3d 75 13 01 00 	lea    rdi,[rip+0x11375]        # 115bd0 <_ZN5Error11code_names_E>
  10485b:	e8 20 00 00 00       	call   104880 <_ZNKSt3__15arrayIPKcLm20EEixEm>
  104860:	48 8b 00             	mov    rax,QWORD PTR [rax]
  104863:	48 83 c4 10          	add    rsp,0x10
  104867:	5d                   	pop    rbp
  104868:	c3                   	ret
  104869:	cc                   	int3
  10486a:	cc                   	int3
  10486b:	cc                   	int3
  10486c:	cc                   	int3
  10486d:	cc                   	int3
  10486e:	cc                   	int3
  10486f:	cc                   	int3

0000000000104870 <_ZNSt3__123__libcpp_numeric_limitsImLb1EE3maxEv>:
  104870:	55                   	push   rbp
  104871:	48 89 e5             	mov    rbp,rsp
  104874:	48 c7 c0 ff ff ff ff 	mov    rax,0xffffffffffffffff
  10487b:	5d                   	pop    rbp
  10487c:	c3                   	ret
  10487d:	cc                   	int3
  10487e:	cc                   	int3
  10487f:	cc                   	int3

0000000000104880 <_ZNKSt3__15arrayIPKcLm20EEixEm>:
  104880:	55                   	push   rbp
  104881:	48 89 e5             	mov    rbp,rsp
  104884:	48 83 ec 10          	sub    rsp,0x10
  104888:	48 89 7d f8          	mov    QWORD PTR [rbp-0x8],rdi
  10488c:	48 89 75 f0          	mov    QWORD PTR [rbp-0x10],rsi
  104890:	48 8b 45 f8          	mov    rax,QWORD PTR [rbp-0x8]
  104894:	48 8b 4d f0          	mov    rcx,QWORD PTR [rbp-0x10]
  104898:	48 c1 e1 03          	shl    rcx,0x3
  10489c:	48 01 c8             	add    rax,rcx
  10489f:	48 83 c4 10          	add    rsp,0x10
  1048a3:	5d                   	pop    rbp
  1048a4:	c3                   	ret
  1048a5:	cc                   	int3
  1048a6:	cc                   	int3
  1048a7:	cc                   	int3
  1048a8:	cc                   	int3
  1048a9:	cc                   	int3
  1048aa:	cc                   	int3
  1048ab:	cc                   	int3
  1048ac:	cc                   	int3
  1048ad:	cc                   	int3
  1048ae:	cc                   	int3
  1048af:	cc                   	int3

00000000001048b0 <_Z15InitializeFrameP10bootinfo_t>:
  1048b0:	55                   	push   rbp
  1048b1:	48 89 e5             	mov    rbp,rsp
  1048b4:	48 83 ec 10          	sub    rsp,0x10
  1048b8:	48 89 7d f8          	mov    QWORD PTR [rbp-0x8],rdi
  1048bc:	48 8b 45 f8          	mov    rax,QWORD PTR [rbp-0x8]
  1048c0:	48 89 05 69 2b 51 00 	mov    QWORD PTR [rip+0x512b69],rax        # 617430 <vinfo>
  1048c7:	48 8b 45 f8          	mov    rax,QWORD PTR [rbp-0x8]
  1048cb:	48 8b 40 20          	mov    rax,QWORD PTR [rax+0x20]
  1048cf:	48 89 05 62 2b 51 00 	mov    QWORD PTR [rip+0x512b62],rax        # 617438 <ascii_font>
  1048d6:	48 8b 05 53 2b 51 00 	mov    rax,QWORD PTR [rip+0x512b53]        # 617430 <vinfo>
  1048dd:	8b 40 14             	mov    eax,DWORD PTR [rax+0x14]
  1048e0:	b9 11 00 00 00       	mov    ecx,0x11
  1048e5:	31 d2                	xor    edx,edx
  1048e7:	f7 f1                	div    ecx
  1048e9:	89 05 59 2b 51 00    	mov    DWORD PTR [rip+0x512b59],eax        # 617448 <max_line>
  1048ef:	48 8b 05 3a 2b 51 00 	mov    rax,QWORD PTR [rip+0x512b3a]        # 617430 <vinfo>
  1048f6:	83 78 1c 00          	cmp    DWORD PTR [rax+0x1c],0x0
  1048fa:	0f 85 13 00 00 00    	jne    104913 <_Z15InitializeFrameP10bootinfo_t+0x63>
  104900:	48 8d 05 89 00 00 00 	lea    rax,[rip+0x89]        # 104990 <_Z13WritePixelRGB5Colorii>
  104907:	48 89 05 62 79 51 00 	mov    QWORD PTR [rip+0x517962],rax        # 61c270 <WritePixel>
  10490e:	e9 6c 00 00 00       	jmp    10497f <_Z15InitializeFrameP10bootinfo_t+0xcf>
  104913:	48 8b 05 16 2b 51 00 	mov    rax,QWORD PTR [rip+0x512b16]        # 617430 <vinfo>
  10491a:	83 78 1c 01          	cmp    DWORD PTR [rax+0x1c],0x1
  10491e:	0f 85 13 00 00 00    	jne    104937 <_Z15InitializeFrameP10bootinfo_t+0x87>
  104924:	48 8d 05 e5 00 00 00 	lea    rax,[rip+0xe5]        # 104a10 <_Z13WritePixelBGR5Colorii>
  10492b:	48 89 05 3e 79 51 00 	mov    QWORD PTR [rip+0x51793e],rax        # 61c270 <WritePixel>
  104932:	e9 43 00 00 00       	jmp    10497a <_Z15InitializeFrameP10bootinfo_t+0xca>
  104937:	c7 45 f4 00 00 00 00 	mov    DWORD PTR [rbp-0xc],0x0
  10493e:	81 7d f4 00 00 92 01 	cmp    DWORD PTR [rbp-0xc],0x1920000
  104945:	0f 8d 24 00 00 00    	jge    10496f <_Z15InitializeFrameP10bootinfo_t+0xbf>
  10494b:	48 8b 05 de 2a 51 00 	mov    rax,QWORD PTR [rip+0x512ade]        # 617430 <vinfo>
  104952:	48 8b 00             	mov    rax,QWORD PTR [rax]
  104955:	48 63 4d f4          	movsxd rcx,DWORD PTR [rbp-0xc]
  104959:	48 c7 04 c8 ff 00 00 	mov    QWORD PTR [rax+rcx*8],0xff
  104960:	00 
  104961:	8b 45 f4             	mov    eax,DWORD PTR [rbp-0xc]
  104964:	83 c0 01             	add    eax,0x1
  104967:	89 45 f4             	mov    DWORD PTR [rbp-0xc],eax
  10496a:	e9 cf ff ff ff       	jmp    10493e <_Z15InitializeFrameP10bootinfo_t+0x8e>
  10496f:	e9 00 00 00 00       	jmp    104974 <_Z15InitializeFrameP10bootinfo_t+0xc4>
  104974:	f4                   	hlt
  104975:	e9 fa ff ff ff       	jmp    104974 <_Z15InitializeFrameP10bootinfo_t+0xc4>
  10497a:	e9 00 00 00 00       	jmp    10497f <_Z15InitializeFrameP10bootinfo_t+0xcf>
  10497f:	48 83 c4 10          	add    rsp,0x10
  104983:	5d                   	pop    rbp
  104984:	c3                   	ret
  104985:	66 66 2e 0f 1f 84 00 	data16 cs nop WORD PTR [rax+rax*1+0x0]
  10498c:	00 00 00 00 

0000000000104990 <_Z13WritePixelRGB5Colorii>:
  104990:	55                   	push   rbp
  104991:	48 89 e5             	mov    rbp,rsp
  104994:	48 83 ec 20          	sub    rsp,0x20
  104998:	66 89 f8             	mov    ax,di
  10499b:	66 89 45 f4          	mov    WORD PTR [rbp-0xc],ax
  10499f:	c1 ef 10             	shr    edi,0x10
  1049a2:	40 88 f8             	mov    al,dil
  1049a5:	88 45 f6             	mov    BYTE PTR [rbp-0xa],al
  1049a8:	66 8b 45 f4          	mov    ax,WORD PTR [rbp-0xc]
  1049ac:	66 89 45 f8          	mov    WORD PTR [rbp-0x8],ax
  1049b0:	8a 45 f6             	mov    al,BYTE PTR [rbp-0xa]
  1049b3:	88 45 fa             	mov    BYTE PTR [rbp-0x6],al
  1049b6:	89 75 f0             	mov    DWORD PTR [rbp-0x10],esi
  1049b9:	89 55 ec             	mov    DWORD PTR [rbp-0x14],edx
  1049bc:	48 8b 05 6d 2a 51 00 	mov    rax,QWORD PTR [rip+0x512a6d]        # 617430 <vinfo>
  1049c3:	8b 40 10             	mov    eax,DWORD PTR [rax+0x10]
  1049c6:	0f af 45 ec          	imul   eax,DWORD PTR [rbp-0x14]
  1049ca:	03 45 f0             	add    eax,DWORD PTR [rbp-0x10]
  1049cd:	89 45 e8             	mov    DWORD PTR [rbp-0x18],eax
  1049d0:	48 8b 05 59 2a 51 00 	mov    rax,QWORD PTR [rip+0x512a59]        # 617430 <vinfo>
  1049d7:	48 8b 00             	mov    rax,QWORD PTR [rax]
  1049da:	8b 4d e8             	mov    ecx,DWORD PTR [rbp-0x18]
  1049dd:	c1 e1 02             	shl    ecx,0x2
  1049e0:	48 63 c9             	movsxd rcx,ecx
  1049e3:	48 01 c8             	add    rax,rcx
  1049e6:	48 89 45 e0          	mov    QWORD PTR [rbp-0x20],rax
  1049ea:	8a 4d f8             	mov    cl,BYTE PTR [rbp-0x8]
  1049ed:	48 8b 45 e0          	mov    rax,QWORD PTR [rbp-0x20]
  1049f1:	88 08                	mov    BYTE PTR [rax],cl
  1049f3:	8a 4d f9             	mov    cl,BYTE PTR [rbp-0x7]
  1049f6:	48 8b 45 e0          	mov    rax,QWORD PTR [rbp-0x20]
  1049fa:	88 48 01             	mov    BYTE PTR [rax+0x1],cl
  1049fd:	8a 4d fa             	mov    cl,BYTE PTR [rbp-0x6]
  104a00:	48 8b 45 e0          	mov    rax,QWORD PTR [rbp-0x20]
  104a04:	88 48 02             	mov    BYTE PTR [rax+0x2],cl
  104a07:	31 c0                	xor    eax,eax
  104a09:	48 83 c4 20          	add    rsp,0x20
  104a0d:	5d                   	pop    rbp
  104a0e:	c3                   	ret
  104a0f:	90                   	nop

0000000000104a10 <_Z13WritePixelBGR5Colorii>:
  104a10:	55                   	push   rbp
  104a11:	48 89 e5             	mov    rbp,rsp
  104a14:	48 83 ec 20          	sub    rsp,0x20
  104a18:	66 89 f8             	mov    ax,di
  104a1b:	66 89 45 f4          	mov    WORD PTR [rbp-0xc],ax
  104a1f:	c1 ef 10             	shr    edi,0x10
  104a22:	40 88 f8             	mov    al,dil
  104a25:	88 45 f6             	mov    BYTE PTR [rbp-0xa],al
  104a28:	66 8b 45 f4          	mov    ax,WORD PTR [rbp-0xc]
  104a2c:	66 89 45 f8          	mov    WORD PTR [rbp-0x8],ax
  104a30:	8a 45 f6             	mov    al,BYTE PTR [rbp-0xa]
  104a33:	88 45 fa             	mov    BYTE PTR [rbp-0x6],al
  104a36:	89 75 f0             	mov    DWORD PTR [rbp-0x10],esi
  104a39:	89 55 ec             	mov    DWORD PTR [rbp-0x14],edx
  104a3c:	48 8b 05 ed 29 51 00 	mov    rax,QWORD PTR [rip+0x5129ed]        # 617430 <vinfo>
  104a43:	8b 40 10             	mov    eax,DWORD PTR [rax+0x10]
  104a46:	0f af 45 ec          	imul   eax,DWORD PTR [rbp-0x14]
  104a4a:	03 45 f0             	add    eax,DWORD PTR [rbp-0x10]
  104a4d:	89 45 e8             	mov    DWORD PTR [rbp-0x18],eax
  104a50:	48 8b 05 d9 29 51 00 	mov    rax,QWORD PTR [rip+0x5129d9]        # 617430 <vinfo>
  104a57:	48 8b 00             	mov    rax,QWORD PTR [rax]
  104a5a:	8b 4d e8             	mov    ecx,DWORD PTR [rbp-0x18]
  104a5d:	c1 e1 02             	shl    ecx,0x2
  104a60:	48 63 c9             	movsxd rcx,ecx
  104a63:	48 01 c8             	add    rax,rcx
  104a66:	48 89 45 e0          	mov    QWORD PTR [rbp-0x20],rax
  104a6a:	8a 4d fa             	mov    cl,BYTE PTR [rbp-0x6]
  104a6d:	48 8b 45 e0          	mov    rax,QWORD PTR [rbp-0x20]
  104a71:	88 08                	mov    BYTE PTR [rax],cl
  104a73:	8a 4d f9             	mov    cl,BYTE PTR [rbp-0x7]
  104a76:	48 8b 45 e0          	mov    rax,QWORD PTR [rbp-0x20]
  104a7a:	88 48 01             	mov    BYTE PTR [rax+0x1],cl
  104a7d:	8a 4d f8             	mov    cl,BYTE PTR [rbp-0x8]
  104a80:	48 8b 45 e0          	mov    rax,QWORD PTR [rbp-0x20]
  104a84:	88 48 02             	mov    BYTE PTR [rax+0x2],cl
  104a87:	31 c0                	xor    eax,eax
  104a89:	48 83 c4 20          	add    rsp,0x20
  104a8d:	5d                   	pop    rbp
  104a8e:	c3                   	ret
  104a8f:	90                   	nop

0000000000104a90 <_Z11HashtoColorh>:
  104a90:	55                   	push   rbp
  104a91:	48 89 e5             	mov    rbp,rsp
  104a94:	48 83 ec 10          	sub    rsp,0x10
  104a98:	40 88 f8             	mov    al,dil
  104a9b:	88 45 f7             	mov    BYTE PTR [rbp-0x9],al
  104a9e:	c6 45 f8 00          	mov    BYTE PTR [rbp-0x8],0x0
  104aa2:	c6 45 f9 00          	mov    BYTE PTR [rbp-0x7],0x0
  104aa6:	8a 45 f7             	mov    al,BYTE PTR [rbp-0x9]
  104aa9:	88 45 fa             	mov    BYTE PTR [rbp-0x6],al
  104aac:	8a 45 fa             	mov    al,BYTE PTR [rbp-0x6]
  104aaf:	88 45 f2             	mov    BYTE PTR [rbp-0xe],al
  104ab2:	66 8b 45 f8          	mov    ax,WORD PTR [rbp-0x8]
  104ab6:	66 89 45 f0          	mov    WORD PTR [rbp-0x10],ax
  104aba:	0f b6 4d f2          	movzx  ecx,BYTE PTR [rbp-0xe]
  104abe:	c1 e1 10             	shl    ecx,0x10
  104ac1:	0f b7 45 f0          	movzx  eax,WORD PTR [rbp-0x10]
  104ac5:	09 c8                	or     eax,ecx
  104ac7:	48 83 c4 10          	add    rsp,0x10
  104acb:	5d                   	pop    rbp
  104acc:	c3                   	ret
  104acd:	0f 1f 00             	nop    DWORD PTR [rax]

0000000000104ad0 <_Z8HSVtoRGBi>:
  104ad0:	55                   	push   rbp
  104ad1:	48 89 e5             	mov    rbp,rsp
  104ad4:	48 83 ec 40          	sub    rsp,0x40
  104ad8:	89 7d f4             	mov    DWORD PTR [rbp-0xc],edi
  104adb:	8b 45 f4             	mov    eax,DWORD PTR [rbp-0xc]
  104ade:	b9 00 06 00 00       	mov    ecx,0x600
  104ae3:	99                   	cdq
  104ae4:	f7 f9                	idiv   ecx
  104ae6:	89 55 f4             	mov    DWORD PTR [rbp-0xc],edx
  104ae9:	81 7d f4 00 01 00 00 	cmp    DWORD PTR [rbp-0xc],0x100
  104af0:	0f 8d 21 00 00 00    	jge    104b17 <_Z8HSVtoRGBi+0x47>
  104af6:	c6 45 f0 ff          	mov    BYTE PTR [rbp-0x10],0xff
  104afa:	8b 45 f4             	mov    eax,DWORD PTR [rbp-0xc]
  104afd:	88 45 f1             	mov    BYTE PTR [rbp-0xf],al
  104b00:	c6 45 f2 00          	mov    BYTE PTR [rbp-0xe],0x0
  104b04:	66 8b 45 f0          	mov    ax,WORD PTR [rbp-0x10]
  104b08:	66 89 45 f8          	mov    WORD PTR [rbp-0x8],ax
  104b0c:	8a 45 f2             	mov    al,BYTE PTR [rbp-0xe]
  104b0f:	88 45 fa             	mov    BYTE PTR [rbp-0x6],al
  104b12:	e9 29 01 00 00       	jmp    104c40 <_Z8HSVtoRGBi+0x170>
  104b17:	81 7d f4 00 02 00 00 	cmp    DWORD PTR [rbp-0xc],0x200
  104b1e:	0f 8d 30 00 00 00    	jge    104b54 <_Z8HSVtoRGBi+0x84>
  104b24:	8b 45 f4             	mov    eax,DWORD PTR [rbp-0xc]
  104b27:	b9 00 01 00 00       	mov    ecx,0x100
  104b2c:	99                   	cdq
  104b2d:	f7 f9                	idiv   ecx
  104b2f:	b8 ff 00 00 00       	mov    eax,0xff
  104b34:	29 d0                	sub    eax,edx
  104b36:	88 45 e8             	mov    BYTE PTR [rbp-0x18],al
  104b39:	c6 45 e9 ff          	mov    BYTE PTR [rbp-0x17],0xff
  104b3d:	c6 45 ea 00          	mov    BYTE PTR [rbp-0x16],0x0
  104b41:	66 8b 45 e8          	mov    ax,WORD PTR [rbp-0x18]
  104b45:	66 89 45 f8          	mov    WORD PTR [rbp-0x8],ax
  104b49:	8a 45 ea             	mov    al,BYTE PTR [rbp-0x16]
  104b4c:	88 45 fa             	mov    BYTE PTR [rbp-0x6],al
  104b4f:	e9 e7 00 00 00       	jmp    104c3b <_Z8HSVtoRGBi+0x16b>
  104b54:	81 7d f4 00 03 00 00 	cmp    DWORD PTR [rbp-0xc],0x300
  104b5b:	0f 8d 2b 00 00 00    	jge    104b8c <_Z8HSVtoRGBi+0xbc>
  104b61:	c6 45 e0 00          	mov    BYTE PTR [rbp-0x20],0x0
  104b65:	c6 45 e1 ff          	mov    BYTE PTR [rbp-0x1f],0xff
  104b69:	8b 45 f4             	mov    eax,DWORD PTR [rbp-0xc]
  104b6c:	b9 00 01 00 00       	mov    ecx,0x100
  104b71:	99                   	cdq
  104b72:	f7 f9                	idiv   ecx
  104b74:	88 d0                	mov    al,dl
  104b76:	88 45 e2             	mov    BYTE PTR [rbp-0x1e],al
  104b79:	66 8b 45 e0          	mov    ax,WORD PTR [rbp-0x20]
  104b7d:	66 89 45 f8          	mov    WORD PTR [rbp-0x8],ax
  104b81:	8a 45 e2             	mov    al,BYTE PTR [rbp-0x1e]
  104b84:	88 45 fa             	mov    BYTE PTR [rbp-0x6],al
  104b87:	e9 aa 00 00 00       	jmp    104c36 <_Z8HSVtoRGBi+0x166>
  104b8c:	81 7d f4 00 04 00 00 	cmp    DWORD PTR [rbp-0xc],0x400
  104b93:	0f 8d 30 00 00 00    	jge    104bc9 <_Z8HSVtoRGBi+0xf9>
  104b99:	c6 45 d8 00          	mov    BYTE PTR [rbp-0x28],0x0
  104b9d:	8b 45 f4             	mov    eax,DWORD PTR [rbp-0xc]
  104ba0:	b9 00 01 00 00       	mov    ecx,0x100
  104ba5:	99                   	cdq
  104ba6:	f7 f9                	idiv   ecx
  104ba8:	b8 ff 00 00 00       	mov    eax,0xff
  104bad:	29 d0                	sub    eax,edx
  104baf:	88 45 d9             	mov    BYTE PTR [rbp-0x27],al
  104bb2:	c6 45 da ff          	mov    BYTE PTR [rbp-0x26],0xff
  104bb6:	66 8b 45 d8          	mov    ax,WORD PTR [rbp-0x28]
  104bba:	66 89 45 f8          	mov    WORD PTR [rbp-0x8],ax
  104bbe:	8a 45 da             	mov    al,BYTE PTR [rbp-0x26]
  104bc1:	88 45 fa             	mov    BYTE PTR [rbp-0x6],al
  104bc4:	e9 68 00 00 00       	jmp    104c31 <_Z8HSVtoRGBi+0x161>
  104bc9:	81 7d f4 00 05 00 00 	cmp    DWORD PTR [rbp-0xc],0x500
  104bd0:	0f 8d 2b 00 00 00    	jge    104c01 <_Z8HSVtoRGBi+0x131>
  104bd6:	8b 45 f4             	mov    eax,DWORD PTR [rbp-0xc]
  104bd9:	b9 00 01 00 00       	mov    ecx,0x100
  104bde:	99                   	cdq
  104bdf:	f7 f9                	idiv   ecx
  104be1:	88 d0                	mov    al,dl
  104be3:	88 45 d0             	mov    BYTE PTR [rbp-0x30],al
  104be6:	c6 45 d1 00          	mov    BYTE PTR [rbp-0x2f],0x0
  104bea:	c6 45 d2 ff          	mov    BYTE PTR [rbp-0x2e],0xff
  104bee:	66 8b 45 d0          	mov    ax,WORD PTR [rbp-0x30]
  104bf2:	66 89 45 f8          	mov    WORD PTR [rbp-0x8],ax
  104bf6:	8a 45 d2             	mov    al,BYTE PTR [rbp-0x2e]
  104bf9:	88 45 fa             	mov    BYTE PTR [rbp-0x6],al
  104bfc:	e9 2b 00 00 00       	jmp    104c2c <_Z8HSVtoRGBi+0x15c>
  104c01:	c6 45 c8 ff          	mov    BYTE PTR [rbp-0x38],0xff
  104c05:	c6 45 c9 00          	mov    BYTE PTR [rbp-0x37],0x0
  104c09:	8b 45 f4             	mov    eax,DWORD PTR [rbp-0xc]
  104c0c:	b9 00 01 00 00       	mov    ecx,0x100
  104c11:	99                   	cdq
  104c12:	f7 f9                	idiv   ecx
  104c14:	b8 ff 00 00 00       	mov    eax,0xff
  104c19:	29 d0                	sub    eax,edx
  104c1b:	88 45 ca             	mov    BYTE PTR [rbp-0x36],al
  104c1e:	66 8b 45 c8          	mov    ax,WORD PTR [rbp-0x38]
  104c22:	66 89 45 f8          	mov    WORD PTR [rbp-0x8],ax
  104c26:	8a 45 ca             	mov    al,BYTE PTR [rbp-0x36]
  104c29:	88 45 fa             	mov    BYTE PTR [rbp-0x6],al
  104c2c:	e9 00 00 00 00       	jmp    104c31 <_Z8HSVtoRGBi+0x161>
  104c31:	e9 00 00 00 00       	jmp    104c36 <_Z8HSVtoRGBi+0x166>
  104c36:	e9 00 00 00 00       	jmp    104c3b <_Z8HSVtoRGBi+0x16b>
  104c3b:	e9 00 00 00 00       	jmp    104c40 <_Z8HSVtoRGBi+0x170>
  104c40:	8a 45 fa             	mov    al,BYTE PTR [rbp-0x6]
  104c43:	88 45 c6             	mov    BYTE PTR [rbp-0x3a],al
  104c46:	66 8b 45 f8          	mov    ax,WORD PTR [rbp-0x8]
  104c4a:	66 89 45 c4          	mov    WORD PTR [rbp-0x3c],ax
  104c4e:	0f b6 4d c6          	movzx  ecx,BYTE PTR [rbp-0x3a]
  104c52:	c1 e1 10             	shl    ecx,0x10
  104c55:	0f b7 45 c4          	movzx  eax,WORD PTR [rbp-0x3c]
  104c59:	09 c8                	or     eax,ecx
  104c5b:	48 83 c4 40          	add    rsp,0x40
  104c5f:	5d                   	pop    rbp
  104c60:	c3                   	ret
  104c61:	66 66 66 66 66 66 2e 	data16 data16 data16 data16 data16 cs nop WORD PTR [rax+rax*1+0x0]
  104c68:	0f 1f 84 00 00 00 00 
  104c6f:	00 

0000000000104c70 <_Z10WriteAsciic5Colorii>:
  104c70:	55                   	push   rbp
  104c71:	48 89 e5             	mov    rbp,rsp
  104c74:	48 83 ec 30          	sub    rsp,0x30
  104c78:	40 88 f8             	mov    al,dil
  104c7b:	66 89 f7             	mov    di,si
  104c7e:	66 89 7d f4          	mov    WORD PTR [rbp-0xc],di
  104c82:	c1 ee 10             	shr    esi,0x10
  104c85:	40 88 75 f6          	mov    BYTE PTR [rbp-0xa],sil
  104c89:	66 8b 75 f4          	mov    si,WORD PTR [rbp-0xc]
  104c8d:	66 89 75 f8          	mov    WORD PTR [rbp-0x8],si
  104c91:	40 8a 75 f6          	mov    sil,BYTE PTR [rbp-0xa]
  104c95:	40 88 75 fa          	mov    BYTE PTR [rbp-0x6],sil
  104c99:	88 45 f3             	mov    BYTE PTR [rbp-0xd],al
  104c9c:	89 55 ec             	mov    DWORD PTR [rbp-0x14],edx
  104c9f:	89 4d e8             	mov    DWORD PTR [rbp-0x18],ecx
  104ca2:	c7 45 e4 00 00 00 00 	mov    DWORD PTR [rbp-0x1c],0x0
  104ca9:	83 7d e4 10          	cmp    DWORD PTR [rbp-0x1c],0x10
  104cad:	0f 8d ad 00 00 00    	jge    104d60 <_Z10WriteAsciic5Colorii+0xf0>
  104cb3:	c7 45 e0 00 00 00 00 	mov    DWORD PTR [rbp-0x20],0x0
  104cba:	83 7d e0 08          	cmp    DWORD PTR [rbp-0x20],0x8
  104cbe:	0f 8d 89 00 00 00    	jge    104d4d <_Z10WriteAsciic5Colorii+0xdd>
  104cc4:	48 8b 05 6d 27 51 00 	mov    rax,QWORD PTR [rip+0x51276d]        # 617438 <ascii_font>
  104ccb:	48 0f be 4d f3       	movsx  rcx,BYTE PTR [rbp-0xd]
  104cd0:	48 c1 e1 04          	shl    rcx,0x4
  104cd4:	48 01 c8             	add    rax,rcx
  104cd7:	48 63 4d e4          	movsxd rcx,DWORD PTR [rbp-0x1c]
  104cdb:	0f be 04 08          	movsx  eax,BYTE PTR [rax+rcx*1]
  104cdf:	b9 07 00 00 00       	mov    ecx,0x7
  104ce4:	2b 4d e0             	sub    ecx,DWORD PTR [rbp-0x20]
  104ce7:	d3 f8                	sar    eax,cl
  104ce9:	83 e0 01             	and    eax,0x1
  104cec:	83 f8 00             	cmp    eax,0x0
  104cef:	0f 84 45 00 00 00    	je     104d3a <_Z10WriteAsciic5Colorii+0xca>
  104cf5:	48 8d 05 14 b3 55 00 	lea    rax,[rip+0x55b314]        # 660010 <BB_WritePixel>
  104cfc:	48 8b 00             	mov    rax,QWORD PTR [rax]
  104cff:	8a 4d fa             	mov    cl,BYTE PTR [rbp-0x6]
  104d02:	88 4d da             	mov    BYTE PTR [rbp-0x26],cl
  104d05:	66 8b 4d f8          	mov    cx,WORD PTR [rbp-0x8]
  104d09:	66 89 4d d8          	mov    WORD PTR [rbp-0x28],cx
  104d0d:	8b 75 ec             	mov    esi,DWORD PTR [rbp-0x14]
  104d10:	8b 4d e0             	mov    ecx,DWORD PTR [rbp-0x20]
  104d13:	01 ce                	add    esi,ecx
  104d15:	8b 55 e8             	mov    edx,DWORD PTR [rbp-0x18]
  104d18:	8b 4d e4             	mov    ecx,DWORD PTR [rbp-0x1c]
  104d1b:	01 ca                	add    edx,ecx
  104d1d:	8a 4d da             	mov    cl,BYTE PTR [rbp-0x26]
  104d20:	88 4d d6             	mov    BYTE PTR [rbp-0x2a],cl
  104d23:	66 8b 4d d8          	mov    cx,WORD PTR [rbp-0x28]
  104d27:	66 89 4d d4          	mov    WORD PTR [rbp-0x2c],cx
  104d2b:	0f b6 4d d6          	movzx  ecx,BYTE PTR [rbp-0x2a]
  104d2f:	c1 e1 10             	shl    ecx,0x10
  104d32:	0f b7 7d d4          	movzx  edi,WORD PTR [rbp-0x2c]
  104d36:	09 cf                	or     edi,ecx
  104d38:	ff d0                	call   rax
  104d3a:	e9 00 00 00 00       	jmp    104d3f <_Z10WriteAsciic5Colorii+0xcf>
  104d3f:	8b 45 e0             	mov    eax,DWORD PTR [rbp-0x20]
  104d42:	83 c0 01             	add    eax,0x1
  104d45:	89 45 e0             	mov    DWORD PTR [rbp-0x20],eax
  104d48:	e9 6d ff ff ff       	jmp    104cba <_Z10WriteAsciic5Colorii+0x4a>
  104d4d:	e9 00 00 00 00       	jmp    104d52 <_Z10WriteAsciic5Colorii+0xe2>
  104d52:	8b 45 e4             	mov    eax,DWORD PTR [rbp-0x1c]
  104d55:	83 c0 01             	add    eax,0x1
  104d58:	89 45 e4             	mov    DWORD PTR [rbp-0x1c],eax
  104d5b:	e9 49 ff ff ff       	jmp    104ca9 <_Z10WriteAsciic5Colorii+0x39>
  104d60:	e8 db fa 00 00       	call   114840 <_Z10SwapBufferv>
  104d65:	31 c0                	xor    eax,eax
  104d67:	48 83 c4 30          	add    rsp,0x30
  104d6b:	5d                   	pop    rbp
  104d6c:	c3                   	ret
  104d6d:	0f 1f 00             	nop    DWORD PTR [rax]

0000000000104d70 <_Z11WriteSquare6VectorS_5Color>:
  104d70:	55                   	push   rbp
  104d71:	48 89 e5             	mov    rbp,rsp
  104d74:	48 83 ec 50          	sub    rsp,0x50
  104d78:	48 89 7d f8          	mov    QWORD PTR [rbp-0x8],rdi
  104d7c:	48 89 75 f0          	mov    QWORD PTR [rbp-0x10],rsi
  104d80:	89 d0                	mov    eax,edx
  104d82:	c1 e8 10             	shr    eax,0x10
  104d85:	88 45 e6             	mov    BYTE PTR [rbp-0x1a],al
  104d88:	66 89 d0             	mov    ax,dx
  104d8b:	66 89 45 e4          	mov    WORD PTR [rbp-0x1c],ax
  104d8f:	66 8b 45 e4          	mov    ax,WORD PTR [rbp-0x1c]
  104d93:	66 89 45 e8          	mov    WORD PTR [rbp-0x18],ax
  104d97:	8a 45 e6             	mov    al,BYTE PTR [rbp-0x1a]
  104d9a:	88 45 ea             	mov    BYTE PTR [rbp-0x16],al
  104d9d:	8b 45 f8             	mov    eax,DWORD PTR [rbp-0x8]
  104da0:	3b 45 f0             	cmp    eax,DWORD PTR [rbp-0x10]
  104da3:	0f 8e 0b 00 00 00    	jle    104db4 <_Z11WriteSquare6VectorS_5Color+0x44>
  104da9:	8b 45 f0             	mov    eax,DWORD PTR [rbp-0x10]
  104dac:	89 45 d0             	mov    DWORD PTR [rbp-0x30],eax
  104daf:	e9 06 00 00 00       	jmp    104dba <_Z11WriteSquare6VectorS_5Color+0x4a>
  104db4:	8b 45 f8             	mov    eax,DWORD PTR [rbp-0x8]
  104db7:	89 45 d0             	mov    DWORD PTR [rbp-0x30],eax
  104dba:	8b 45 d0             	mov    eax,DWORD PTR [rbp-0x30]
  104dbd:	89 45 e0             	mov    DWORD PTR [rbp-0x20],eax
  104dc0:	8b 45 e0             	mov    eax,DWORD PTR [rbp-0x20]
  104dc3:	89 45 cc             	mov    DWORD PTR [rbp-0x34],eax
  104dc6:	8b 45 f8             	mov    eax,DWORD PTR [rbp-0x8]
  104dc9:	3b 45 f0             	cmp    eax,DWORD PTR [rbp-0x10]
  104dcc:	0f 8d 0b 00 00 00    	jge    104ddd <_Z11WriteSquare6VectorS_5Color+0x6d>
  104dd2:	8b 45 f0             	mov    eax,DWORD PTR [rbp-0x10]
  104dd5:	89 45 c8             	mov    DWORD PTR [rbp-0x38],eax
  104dd8:	e9 06 00 00 00       	jmp    104de3 <_Z11WriteSquare6VectorS_5Color+0x73>
  104ddd:	8b 45 f8             	mov    eax,DWORD PTR [rbp-0x8]
  104de0:	89 45 c8             	mov    DWORD PTR [rbp-0x38],eax
  104de3:	8b 45 cc             	mov    eax,DWORD PTR [rbp-0x34]
  104de6:	8b 4d c8             	mov    ecx,DWORD PTR [rbp-0x38]
  104de9:	39 c8                	cmp    eax,ecx
  104deb:	0f 8d b0 00 00 00    	jge    104ea1 <_Z11WriteSquare6VectorS_5Color+0x131>
  104df1:	8b 45 fc             	mov    eax,DWORD PTR [rbp-0x4]
  104df4:	3b 45 f4             	cmp    eax,DWORD PTR [rbp-0xc]
  104df7:	0f 8e 0b 00 00 00    	jle    104e08 <_Z11WriteSquare6VectorS_5Color+0x98>
  104dfd:	8b 45 f4             	mov    eax,DWORD PTR [rbp-0xc]
  104e00:	89 45 c4             	mov    DWORD PTR [rbp-0x3c],eax
  104e03:	e9 06 00 00 00       	jmp    104e0e <_Z11WriteSquare6VectorS_5Color+0x9e>
  104e08:	8b 45 fc             	mov    eax,DWORD PTR [rbp-0x4]
  104e0b:	89 45 c4             	mov    DWORD PTR [rbp-0x3c],eax
  104e0e:	8b 45 c4             	mov    eax,DWORD PTR [rbp-0x3c]
  104e11:	89 45 dc             	mov    DWORD PTR [rbp-0x24],eax
  104e14:	8b 45 dc             	mov    eax,DWORD PTR [rbp-0x24]
  104e17:	89 45 c0             	mov    DWORD PTR [rbp-0x40],eax
  104e1a:	8b 45 fc             	mov    eax,DWORD PTR [rbp-0x4]
  104e1d:	3b 45 f4             	cmp    eax,DWORD PTR [rbp-0xc]
  104e20:	0f 8d 0b 00 00 00    	jge    104e31 <_Z11WriteSquare6VectorS_5Color+0xc1>
  104e26:	8b 45 f4             	mov    eax,DWORD PTR [rbp-0xc]
  104e29:	89 45 bc             	mov    DWORD PTR [rbp-0x44],eax
  104e2c:	e9 06 00 00 00       	jmp    104e37 <_Z11WriteSquare6VectorS_5Color+0xc7>
  104e31:	8b 45 fc             	mov    eax,DWORD PTR [rbp-0x4]
  104e34:	89 45 bc             	mov    DWORD PTR [rbp-0x44],eax
  104e37:	8b 45 c0             	mov    eax,DWORD PTR [rbp-0x40]
  104e3a:	8b 4d bc             	mov    ecx,DWORD PTR [rbp-0x44]
  104e3d:	39 c8                	cmp    eax,ecx
  104e3f:	0f 8d 49 00 00 00    	jge    104e8e <_Z11WriteSquare6VectorS_5Color+0x11e>
  104e45:	48 8d 05 c4 b1 55 00 	lea    rax,[rip+0x55b1c4]        # 660010 <BB_WritePixel>
  104e4c:	48 8b 00             	mov    rax,QWORD PTR [rax]
  104e4f:	8a 4d ea             	mov    cl,BYTE PTR [rbp-0x16]
  104e52:	88 4d da             	mov    BYTE PTR [rbp-0x26],cl
  104e55:	66 8b 4d e8          	mov    cx,WORD PTR [rbp-0x18]
  104e59:	66 89 4d d8          	mov    WORD PTR [rbp-0x28],cx
  104e5d:	8b 75 e0             	mov    esi,DWORD PTR [rbp-0x20]
  104e60:	8b 55 dc             	mov    edx,DWORD PTR [rbp-0x24]
  104e63:	8a 4d da             	mov    cl,BYTE PTR [rbp-0x26]
  104e66:	88 4d d6             	mov    BYTE PTR [rbp-0x2a],cl
  104e69:	66 8b 4d d8          	mov    cx,WORD PTR [rbp-0x28]
  104e6d:	66 89 4d d4          	mov    WORD PTR [rbp-0x2c],cx
  104e71:	0f b6 4d d6          	movzx  ecx,BYTE PTR [rbp-0x2a]
  104e75:	c1 e1 10             	shl    ecx,0x10
  104e78:	0f b7 7d d4          	movzx  edi,WORD PTR [rbp-0x2c]
  104e7c:	09 cf                	or     edi,ecx
  104e7e:	ff d0                	call   rax
  104e80:	8b 45 dc             	mov    eax,DWORD PTR [rbp-0x24]
  104e83:	83 c0 01             	add    eax,0x1
  104e86:	89 45 dc             	mov    DWORD PTR [rbp-0x24],eax
  104e89:	e9 86 ff ff ff       	jmp    104e14 <_Z11WriteSquare6VectorS_5Color+0xa4>
  104e8e:	e9 00 00 00 00       	jmp    104e93 <_Z11WriteSquare6VectorS_5Color+0x123>
  104e93:	8b 45 e0             	mov    eax,DWORD PTR [rbp-0x20]
  104e96:	83 c0 01             	add    eax,0x1
  104e99:	89 45 e0             	mov    DWORD PTR [rbp-0x20],eax
  104e9c:	e9 1f ff ff ff       	jmp    104dc0 <_Z11WriteSquare6VectorS_5Color+0x50>
  104ea1:	e8 9a f9 00 00       	call   114840 <_Z10SwapBufferv>
  104ea6:	31 c0                	xor    eax,eax
  104ea8:	48 83 c4 50          	add    rsp,0x50
  104eac:	5d                   	pop    rbp
  104ead:	c3                   	ret
  104eae:	66 90                	xchg   ax,ax

0000000000104eb0 <_Z9PrintLinePKc6Vector5Color>:
  104eb0:	55                   	push   rbp
  104eb1:	48 89 e5             	mov    rbp,rsp
  104eb4:	48 83 ec 40          	sub    rsp,0x40
  104eb8:	48 89 75 f8          	mov    QWORD PTR [rbp-0x8],rsi
  104ebc:	66 89 d0             	mov    ax,dx
  104ebf:	66 89 45 ec          	mov    WORD PTR [rbp-0x14],ax
  104ec3:	c1 ea 10             	shr    edx,0x10
  104ec6:	88 d0                	mov    al,dl
  104ec8:	88 45 ee             	mov    BYTE PTR [rbp-0x12],al
  104ecb:	66 8b 45 ec          	mov    ax,WORD PTR [rbp-0x14]
  104ecf:	66 89 45 f0          	mov    WORD PTR [rbp-0x10],ax
  104ed3:	8a 45 ee             	mov    al,BYTE PTR [rbp-0x12]
  104ed6:	88 45 f2             	mov    BYTE PTR [rbp-0xe],al
  104ed9:	48 89 7d e0          	mov    QWORD PTR [rbp-0x20],rdi
  104edd:	48 8b 45 e0          	mov    rax,QWORD PTR [rbp-0x20]
  104ee1:	48 89 45 d8          	mov    QWORD PTR [rbp-0x28],rax
  104ee5:	c7 45 d4 00 00 00 00 	mov    DWORD PTR [rbp-0x2c],0x0
  104eec:	48 8b 45 d8          	mov    rax,QWORD PTR [rbp-0x28]
  104ef0:	48 63 4d d4          	movsxd rcx,DWORD PTR [rbp-0x2c]
  104ef4:	0f be 04 08          	movsx  eax,BYTE PTR [rax+rcx*1]
  104ef8:	83 f8 00             	cmp    eax,0x0
  104efb:	0f 84 c1 00 00 00    	je     104fc2 <_Z9PrintLinePKc6Vector5Color+0x112>
  104f01:	48 8b 45 d8          	mov    rax,QWORD PTR [rbp-0x28]
  104f05:	48 63 4d d4          	movsxd rcx,DWORD PTR [rbp-0x2c]
  104f09:	0f be 04 08          	movsx  eax,BYTE PTR [rax+rcx*1]
  104f0d:	83 f8 0a             	cmp    eax,0xa
  104f10:	0f 84 9e 00 00 00    	je     104fb4 <_Z9PrintLinePKc6Vector5Color+0x104>
  104f16:	48 8b 45 d8          	mov    rax,QWORD PTR [rbp-0x28]
  104f1a:	48 63 4d d4          	movsxd rcx,DWORD PTR [rbp-0x2c]
  104f1e:	0f be 3c 08          	movsx  edi,BYTE PTR [rax+rcx*1]
  104f22:	c6 45 d0 64          	mov    BYTE PTR [rbp-0x30],0x64
  104f26:	c6 45 d1 64          	mov    BYTE PTR [rbp-0x2f],0x64
  104f2a:	c6 45 d2 64          	mov    BYTE PTR [rbp-0x2e],0x64
  104f2e:	8b 4d d4             	mov    ecx,DWORD PTR [rbp-0x2c]
  104f31:	89 c8                	mov    eax,ecx
  104f33:	8d 34 c0             	lea    esi,[rax+rax*8]
  104f36:	8b 55 f8             	mov    edx,DWORD PTR [rbp-0x8]
  104f39:	8b 4d fc             	mov    ecx,DWORD PTR [rbp-0x4]
  104f3c:	89 d0                	mov    eax,edx
  104f3e:	89 f2                	mov    edx,esi
  104f40:	8d 54 10 01          	lea    edx,[rax+rdx*1+0x1]
  104f44:	ff c1                	inc    ecx
  104f46:	8a 45 d2             	mov    al,BYTE PTR [rbp-0x2e]
  104f49:	88 45 ce             	mov    BYTE PTR [rbp-0x32],al
  104f4c:	66 8b 45 d0          	mov    ax,WORD PTR [rbp-0x30]
  104f50:	66 89 45 cc          	mov    WORD PTR [rbp-0x34],ax
  104f54:	0f b6 45 ce          	movzx  eax,BYTE PTR [rbp-0x32]
  104f58:	c1 e0 10             	shl    eax,0x10
  104f5b:	0f b7 75 cc          	movzx  esi,WORD PTR [rbp-0x34]
  104f5f:	09 c6                	or     esi,eax
  104f61:	e8 4a fa 00 00       	call   1149b0 <_Z13BB_WriteAsciic5Colorii>
  104f66:	48 8b 45 d8          	mov    rax,QWORD PTR [rbp-0x28]
  104f6a:	48 63 4d d4          	movsxd rcx,DWORD PTR [rbp-0x2c]
  104f6e:	8a 04 08             	mov    al,BYTE PTR [rax+rcx*1]
  104f71:	8a 4d f2             	mov    cl,BYTE PTR [rbp-0xe]
  104f74:	88 4d ca             	mov    BYTE PTR [rbp-0x36],cl
  104f77:	66 8b 4d f0          	mov    cx,WORD PTR [rbp-0x10]
  104f7b:	66 89 4d c8          	mov    WORD PTR [rbp-0x38],cx
  104f7f:	8b 55 d4             	mov    edx,DWORD PTR [rbp-0x2c]
  104f82:	89 d1                	mov    ecx,edx
  104f84:	8d 34 c9             	lea    esi,[rcx+rcx*8]
  104f87:	8b 55 f8             	mov    edx,DWORD PTR [rbp-0x8]
  104f8a:	8b 4d fc             	mov    ecx,DWORD PTR [rbp-0x4]
  104f8d:	01 f2                	add    edx,esi
  104f8f:	40 8a 75 ca          	mov    sil,BYTE PTR [rbp-0x36]
  104f93:	40 88 75 c6          	mov    BYTE PTR [rbp-0x3a],sil
  104f97:	66 8b 75 c8          	mov    si,WORD PTR [rbp-0x38]
  104f9b:	66 89 75 c4          	mov    WORD PTR [rbp-0x3c],si
  104f9f:	0f b6 7d c6          	movzx  edi,BYTE PTR [rbp-0x3a]
  104fa3:	c1 e7 10             	shl    edi,0x10
  104fa6:	0f b7 75 c4          	movzx  esi,WORD PTR [rbp-0x3c]
  104faa:	09 fe                	or     esi,edi
  104fac:	0f be f8             	movsx  edi,al
  104faf:	e8 fc f9 00 00       	call   1149b0 <_Z13BB_WriteAsciic5Colorii>
  104fb4:	8b 45 d4             	mov    eax,DWORD PTR [rbp-0x2c]
  104fb7:	83 c0 01             	add    eax,0x1
  104fba:	89 45 d4             	mov    DWORD PTR [rbp-0x2c],eax
  104fbd:	e9 2a ff ff ff       	jmp    104eec <_Z9PrintLinePKc6Vector5Color+0x3c>
  104fc2:	e8 79 f8 00 00       	call   114840 <_Z10SwapBufferv>
  104fc7:	31 c0                	xor    eax,eax
  104fc9:	48 83 c4 40          	add    rsp,0x40
  104fcd:	5d                   	pop    rbp
  104fce:	c3                   	ret
  104fcf:	90                   	nop

0000000000104fd0 <_Z12RegisterLinePKc>:
  104fd0:	55                   	push   rbp
  104fd1:	48 89 e5             	mov    rbp,rsp
  104fd4:	48 83 ec 10          	sub    rsp,0x10
  104fd8:	48 89 7d f8          	mov    QWORD PTR [rbp-0x8],rdi
  104fdc:	48 c7 45 f0 00 00 00 	mov    QWORD PTR [rbp-0x10],0x0
  104fe3:	00 
  104fe4:	48 63 05 59 24 51 00 	movsxd rax,DWORD PTR [rip+0x512459]        # 617444 <line_queue_end>
  104feb:	48 8d 3d 5e 24 51 00 	lea    rdi,[rip+0x51245e]        # 617450 <line_queue>
  104ff2:	48 6b c0 64          	imul   rax,rax,0x64
  104ff6:	48 01 c7             	add    rdi,rax
  104ff9:	48 8b 75 f8          	mov    rsi,QWORD PTR [rbp-0x8]
  104ffd:	e8 de 09 00 00       	call   1059e0 <strcpy>
  105002:	48 89 45 f0          	mov    QWORD PTR [rbp-0x10],rax
  105006:	8b 05 38 24 51 00    	mov    eax,DWORD PTR [rip+0x512438]        # 617444 <line_queue_end>
  10500c:	83 c0 01             	add    eax,0x1
  10500f:	99                   	cdq
  105010:	f7 3d 32 24 51 00    	idiv   DWORD PTR [rip+0x512432]        # 617448 <max_line>
  105016:	89 15 28 24 51 00    	mov    DWORD PTR [rip+0x512428],edx        # 617444 <line_queue_end>
  10501c:	8b 05 22 24 51 00    	mov    eax,DWORD PTR [rip+0x512422]        # 617444 <line_queue_end>
  105022:	3b 05 18 24 51 00    	cmp    eax,DWORD PTR [rip+0x512418]        # 617440 <line_queue_head>
  105028:	0f 85 16 00 00 00    	jne    105044 <_Z12RegisterLinePKc+0x74>
  10502e:	8b 05 0c 24 51 00    	mov    eax,DWORD PTR [rip+0x51240c]        # 617440 <line_queue_head>
  105034:	83 c0 01             	add    eax,0x1
  105037:	99                   	cdq
  105038:	f7 3d 0a 24 51 00    	idiv   DWORD PTR [rip+0x51240a]        # 617448 <max_line>
  10503e:	89 15 fc 23 51 00    	mov    DWORD PTR [rip+0x5123fc],edx        # 617440 <line_queue_head>
  105044:	48 8b 45 f0          	mov    rax,QWORD PTR [rbp-0x10]
  105048:	48 83 c4 10          	add    rsp,0x10
  10504c:	5d                   	pop    rbp
  10504d:	c3                   	ret
  10504e:	66 90                	xchg   ax,ax

0000000000105050 <Print>:
  105050:	55                   	push   rbp
  105051:	48 89 e5             	mov    rbp,rsp
  105054:	48 81 ec e0 00 00 00 	sub    rsp,0xe0
  10505b:	48 89 7d f0          	mov    QWORD PTR [rbp-0x10],rdi
  10505f:	48 8b 75 f0          	mov    rsi,QWORD PTR [rbp-0x10]
  105063:	48 8d 3d 16 72 51 00 	lea    rdi,[rip+0x517216]        # 61c280 <_ZZ5PrintE4line>
  10506a:	e8 01 0a 00 00       	call   105a70 <strcat>
  10506f:	8b 05 1b 0c 01 00    	mov    eax,DWORD PTR [rip+0x10c1b]        # 115c90 <line_len_max>
  105075:	ff c0                	inc    eax
  105077:	48 89 e1             	mov    rcx,rsp
  10507a:	48 89 4d e8          	mov    QWORD PTR [rbp-0x18],rcx
  10507e:	48 89 c2             	mov    rdx,rax
  105081:	48 83 c2 0f          	add    rdx,0xf
  105085:	48 83 e2 f0          	and    rdx,0xfffffffffffffff0
  105089:	48 89 e1             	mov    rcx,rsp
  10508c:	48 29 d1             	sub    rcx,rdx
  10508f:	48 89 8d 28 ff ff ff 	mov    QWORD PTR [rbp-0xd8],rcx
  105096:	48 89 cc             	mov    rsp,rcx
  105099:	48 89 45 e0          	mov    QWORD PTR [rbp-0x20],rax
  10509d:	48 8d 3d dc 71 51 00 	lea    rdi,[rip+0x5171dc]        # 61c280 <_ZZ5PrintE4line>
  1050a4:	e8 37 0a 00 00       	call   105ae0 <strlen>
  1050a9:	48 63 0d e0 0b 01 00 	movsxd rcx,DWORD PTR [rip+0x10be0]        # 115c90 <line_len_max>
  1050b0:	48 39 c8             	cmp    rax,rcx
  1050b3:	0f 86 61 00 00 00    	jbe    10511a <Print+0xca>
  1050b9:	48 8b bd 28 ff ff ff 	mov    rdi,QWORD PTR [rbp-0xd8]
  1050c0:	48 63 05 c9 0b 01 00 	movsxd rax,DWORD PTR [rip+0x10bc9]        # 115c90 <line_len_max>
  1050c7:	48 8d 35 b2 71 51 00 	lea    rsi,[rip+0x5171b2]        # 61c280 <_ZZ5PrintE4line>
  1050ce:	48 01 c6             	add    rsi,rax
  1050d1:	e8 0a 09 00 00       	call   1059e0 <strcpy>
  1050d6:	48 63 0d b3 0b 01 00 	movsxd rcx,DWORD PTR [rip+0x10bb3]        # 115c90 <line_len_max>
  1050dd:	48 8d 05 9c 71 51 00 	lea    rax,[rip+0x51719c]        # 61c280 <_ZZ5PrintE4line>
  1050e4:	c6 04 08 00          	mov    BYTE PTR [rax+rcx*1],0x0
  1050e8:	48 8d 3d 91 71 51 00 	lea    rdi,[rip+0x517191]        # 61c280 <_ZZ5PrintE4line>
  1050ef:	e8 dc fe ff ff       	call   104fd0 <_Z12RegisterLinePKc>
  1050f4:	48 8b bd 28 ff ff ff 	mov    rdi,QWORD PTR [rbp-0xd8]
  1050fb:	c6 05 7e 71 51 00 00 	mov    BYTE PTR [rip+0x51717e],0x0        # 61c280 <_ZZ5PrintE4line>
  105102:	e8 49 ff ff ff       	call   105050 <Print>
  105107:	c7 45 fc 00 00 00 00 	mov    DWORD PTR [rbp-0x4],0x0
  10510e:	c7 45 dc 01 00 00 00 	mov    DWORD PTR [rbp-0x24],0x1
  105115:	e9 8c 03 00 00       	jmp    1054a6 <Print+0x456>
  10511a:	48 8d 3d 5f 71 51 00 	lea    rdi,[rip+0x51715f]        # 61c280 <_ZZ5PrintE4line>
  105121:	e8 ba 09 00 00       	call   105ae0 <strlen>
  105126:	48 89 85 20 ff ff ff 	mov    QWORD PTR [rbp-0xe0],rax
  10512d:	48 8b 7d f0          	mov    rdi,QWORD PTR [rbp-0x10]
  105131:	e8 aa 09 00 00       	call   105ae0 <strlen>
  105136:	48 89 c1             	mov    rcx,rax
  105139:	48 8b 85 20 ff ff ff 	mov    rax,QWORD PTR [rbp-0xe0]
  105140:	48 29 c8             	sub    rax,rcx
  105143:	48 83 f8 00          	cmp    rax,0x0
  105147:	0f 84 f7 00 00 00    	je     105244 <Print+0x1f4>
  10514d:	c7 45 d0 00 00 00 00 	mov    DWORD PTR [rbp-0x30],0x0
  105154:	8b 05 1e 71 51 00    	mov    eax,DWORD PTR [rip+0x51711e]        # 61c278 <_ZZ5PrintE1y>
  10515a:	89 45 d4             	mov    DWORD PTR [rbp-0x2c],eax
  10515d:	8b 0d 2d 0b 01 00    	mov    ecx,DWORD PTR [rip+0x10b2d]        # 115c90 <line_len_max>
  105163:	89 c8                	mov    eax,ecx
  105165:	8d 04 c0             	lea    eax,[rax+rax*8]
  105168:	89 45 c8             	mov    DWORD PTR [rbp-0x38],eax
  10516b:	8b 05 07 71 51 00    	mov    eax,DWORD PTR [rip+0x517107]        # 61c278 <_ZZ5PrintE1y>
  105171:	83 c0 11             	add    eax,0x11
  105174:	89 45 cc             	mov    DWORD PTR [rbp-0x34],eax
  105177:	c6 45 c0 00          	mov    BYTE PTR [rbp-0x40],0x0
  10517b:	c6 45 c1 00          	mov    BYTE PTR [rbp-0x3f],0x0
  10517f:	c6 45 c2 00          	mov    BYTE PTR [rbp-0x3e],0x0
  105183:	48 8b 7d d0          	mov    rdi,QWORD PTR [rbp-0x30]
  105187:	48 8b 75 c8          	mov    rsi,QWORD PTR [rbp-0x38]
  10518b:	8a 45 c2             	mov    al,BYTE PTR [rbp-0x3e]
  10518e:	88 45 be             	mov    BYTE PTR [rbp-0x42],al
  105191:	66 8b 45 c0          	mov    ax,WORD PTR [rbp-0x40]
  105195:	66 89 45 bc          	mov    WORD PTR [rbp-0x44],ax
  105199:	0f b6 45 be          	movzx  eax,BYTE PTR [rbp-0x42]
  10519d:	c1 e0 10             	shl    eax,0x10
  1051a0:	0f b7 55 bc          	movzx  edx,WORD PTR [rbp-0x44]
  1051a4:	09 c2                	or     edx,eax
  1051a6:	e8 c5 f6 00 00       	call   114870 <_Z14BB_WriteSquare6VectorS_5Color>
  1051ab:	c7 45 b0 00 00 00 00 	mov    DWORD PTR [rbp-0x50],0x0
  1051b2:	8b 05 c0 70 51 00    	mov    eax,DWORD PTR [rip+0x5170c0]        # 61c278 <_ZZ5PrintE1y>
  1051b8:	89 45 b4             	mov    DWORD PTR [rbp-0x4c],eax
  1051bb:	c6 45 a8 ff          	mov    BYTE PTR [rbp-0x58],0xff
  1051bf:	c6 45 a9 ff          	mov    BYTE PTR [rbp-0x57],0xff
  1051c3:	c6 45 aa ff          	mov    BYTE PTR [rbp-0x56],0xff
  1051c7:	48 8b 75 b0          	mov    rsi,QWORD PTR [rbp-0x50]
  1051cb:	8a 45 aa             	mov    al,BYTE PTR [rbp-0x56]
  1051ce:	88 45 a6             	mov    BYTE PTR [rbp-0x5a],al
  1051d1:	66 8b 45 a8          	mov    ax,WORD PTR [rbp-0x58]
  1051d5:	66 89 45 a4          	mov    WORD PTR [rbp-0x5c],ax
  1051d9:	0f b6 45 a6          	movzx  eax,BYTE PTR [rbp-0x5a]
  1051dd:	c1 e0 10             	shl    eax,0x10
  1051e0:	0f b7 55 a4          	movzx  edx,WORD PTR [rbp-0x5c]
  1051e4:	09 c2                	or     edx,eax
  1051e6:	48 8d 3d 93 70 51 00 	lea    rdi,[rip+0x517093]        # 61c280 <_ZZ5PrintE4line>
  1051ed:	e8 be f8 00 00       	call   114ab0 <_Z12BB_PrintLinePKc6Vector5Color>
  1051f2:	e8 49 f6 00 00       	call   114840 <_Z10SwapBufferv>
  1051f7:	48 8d 3d 82 70 51 00 	lea    rdi,[rip+0x517082]        # 61c280 <_ZZ5PrintE4line>
  1051fe:	e8 dd 08 00 00       	call   105ae0 <strlen>
  105203:	48 89 c1             	mov    rcx,rax
  105206:	48 83 e9 01          	sub    rcx,0x1
  10520a:	48 8d 05 6f 70 51 00 	lea    rax,[rip+0x51706f]        # 61c280 <_ZZ5PrintE4line>
  105211:	0f be 04 08          	movsx  eax,BYTE PTR [rax+rcx*1]
  105215:	83 f8 0a             	cmp    eax,0xa
  105218:	0f 85 13 00 00 00    	jne    105231 <Print+0x1e1>
  10521e:	48 8d 3d 5b 70 51 00 	lea    rdi,[rip+0x51705b]        # 61c280 <_ZZ5PrintE4line>
  105225:	e8 a6 fd ff ff       	call   104fd0 <_Z12RegisterLinePKc>
  10522a:	c6 05 4f 70 51 00 00 	mov    BYTE PTR [rip+0x51704f],0x0        # 61c280 <_ZZ5PrintE4line>
  105231:	c7 45 fc 00 00 00 00 	mov    DWORD PTR [rbp-0x4],0x0
  105238:	c7 45 dc 01 00 00 00 	mov    DWORD PTR [rbp-0x24],0x1
  10523f:	e9 62 02 00 00       	jmp    1054a6 <Print+0x456>
  105244:	c7 05 2a 70 51 00 00 	mov    DWORD PTR [rip+0x51702a],0x0        # 61c278 <_ZZ5PrintE1y>
  10524b:	00 00 00 
  10524e:	8b 05 ec 21 51 00    	mov    eax,DWORD PTR [rip+0x5121ec]        # 617440 <line_queue_head>
  105254:	89 45 a0             	mov    DWORD PTR [rbp-0x60],eax
  105257:	8b 45 a0             	mov    eax,DWORD PTR [rbp-0x60]
  10525a:	3b 05 e4 21 51 00    	cmp    eax,DWORD PTR [rip+0x5121e4]        # 617444 <line_queue_end>
  105260:	0f 84 fd 00 00 00    	je     105363 <Print+0x313>
  105266:	c7 45 98 00 00 00 00 	mov    DWORD PTR [rbp-0x68],0x0
  10526d:	8b 05 05 70 51 00    	mov    eax,DWORD PTR [rip+0x517005]        # 61c278 <_ZZ5PrintE1y>
  105273:	89 45 9c             	mov    DWORD PTR [rbp-0x64],eax
  105276:	8b 0d 14 0a 01 00    	mov    ecx,DWORD PTR [rip+0x10a14]        # 115c90 <line_len_max>
  10527c:	89 c8                	mov    eax,ecx
  10527e:	8d 04 c0             	lea    eax,[rax+rax*8]
  105281:	89 45 90             	mov    DWORD PTR [rbp-0x70],eax
  105284:	8b 05 ee 6f 51 00    	mov    eax,DWORD PTR [rip+0x516fee]        # 61c278 <_ZZ5PrintE1y>
  10528a:	83 c0 11             	add    eax,0x11
  10528d:	89 45 94             	mov    DWORD PTR [rbp-0x6c],eax
  105290:	c6 45 88 00          	mov    BYTE PTR [rbp-0x78],0x0
  105294:	c6 45 89 00          	mov    BYTE PTR [rbp-0x77],0x0
  105298:	c6 45 8a 00          	mov    BYTE PTR [rbp-0x76],0x0
  10529c:	48 8b 7d 98          	mov    rdi,QWORD PTR [rbp-0x68]
  1052a0:	48 8b 75 90          	mov    rsi,QWORD PTR [rbp-0x70]
  1052a4:	8a 45 8a             	mov    al,BYTE PTR [rbp-0x76]
  1052a7:	88 45 86             	mov    BYTE PTR [rbp-0x7a],al
  1052aa:	66 8b 45 88          	mov    ax,WORD PTR [rbp-0x78]
  1052ae:	66 89 45 84          	mov    WORD PTR [rbp-0x7c],ax
  1052b2:	0f b6 45 86          	movzx  eax,BYTE PTR [rbp-0x7a]
  1052b6:	c1 e0 10             	shl    eax,0x10
  1052b9:	0f b7 55 84          	movzx  edx,WORD PTR [rbp-0x7c]
  1052bd:	09 c2                	or     edx,eax
  1052bf:	e8 ac f5 00 00       	call   114870 <_Z14BB_WriteSquare6VectorS_5Color>
  1052c4:	48 63 45 a0          	movsxd rax,DWORD PTR [rbp-0x60]
  1052c8:	48 6b c0 64          	imul   rax,rax,0x64
  1052cc:	48 8d 3d 7d 21 51 00 	lea    rdi,[rip+0x51217d]        # 617450 <line_queue>
  1052d3:	48 01 c7             	add    rdi,rax
  1052d6:	c7 85 78 ff ff ff 00 	mov    DWORD PTR [rbp-0x88],0x0
  1052dd:	00 00 00 
  1052e0:	8b 05 92 6f 51 00    	mov    eax,DWORD PTR [rip+0x516f92]        # 61c278 <_ZZ5PrintE1y>
  1052e6:	89 85 7c ff ff ff    	mov    DWORD PTR [rbp-0x84],eax
  1052ec:	c6 85 70 ff ff ff ff 	mov    BYTE PTR [rbp-0x90],0xff
  1052f3:	c6 85 71 ff ff ff ff 	mov    BYTE PTR [rbp-0x8f],0xff
  1052fa:	c6 85 72 ff ff ff ff 	mov    BYTE PTR [rbp-0x8e],0xff
  105301:	48 8b b5 78 ff ff ff 	mov    rsi,QWORD PTR [rbp-0x88]
  105308:	8a 85 72 ff ff ff    	mov    al,BYTE PTR [rbp-0x8e]
  10530e:	88 85 6e ff ff ff    	mov    BYTE PTR [rbp-0x92],al
  105314:	66 8b 85 70 ff ff ff 	mov    ax,WORD PTR [rbp-0x90]
  10531b:	66 89 85 6c ff ff ff 	mov    WORD PTR [rbp-0x94],ax
  105322:	0f b6 85 6e ff ff ff 	movzx  eax,BYTE PTR [rbp-0x92]
  105329:	c1 e0 10             	shl    eax,0x10
  10532c:	0f b7 95 6c ff ff ff 	movzx  edx,WORD PTR [rbp-0x94]
  105333:	09 c2                	or     edx,eax
  105335:	e8 76 f7 00 00       	call   114ab0 <_Z12BB_PrintLinePKc6Vector5Color>
  10533a:	e8 01 f5 00 00       	call   114840 <_Z10SwapBufferv>
  10533f:	8b 05 33 6f 51 00    	mov    eax,DWORD PTR [rip+0x516f33]        # 61c278 <_ZZ5PrintE1y>
  105345:	83 c0 11             	add    eax,0x11
  105348:	89 05 2a 6f 51 00    	mov    DWORD PTR [rip+0x516f2a],eax        # 61c278 <_ZZ5PrintE1y>
  10534e:	8b 45 a0             	mov    eax,DWORD PTR [rbp-0x60]
  105351:	83 c0 01             	add    eax,0x1
  105354:	99                   	cdq
  105355:	f7 3d ed 20 51 00    	idiv   DWORD PTR [rip+0x5120ed]        # 617448 <max_line>
  10535b:	89 55 a0             	mov    DWORD PTR [rbp-0x60],edx
  10535e:	e9 f4 fe ff ff       	jmp    105257 <Print+0x207>
  105363:	c7 85 60 ff ff ff 00 	mov    DWORD PTR [rbp-0xa0],0x0
  10536a:	00 00 00 
  10536d:	8b 05 05 6f 51 00    	mov    eax,DWORD PTR [rip+0x516f05]        # 61c278 <_ZZ5PrintE1y>
  105373:	89 85 64 ff ff ff    	mov    DWORD PTR [rbp-0x9c],eax
  105379:	8b 0d 11 09 01 00    	mov    ecx,DWORD PTR [rip+0x10911]        # 115c90 <line_len_max>
  10537f:	89 c8                	mov    eax,ecx
  105381:	8d 04 c0             	lea    eax,[rax+rax*8]
  105384:	89 85 58 ff ff ff    	mov    DWORD PTR [rbp-0xa8],eax
  10538a:	8b 05 e8 6e 51 00    	mov    eax,DWORD PTR [rip+0x516ee8]        # 61c278 <_ZZ5PrintE1y>
  105390:	83 c0 11             	add    eax,0x11
  105393:	89 85 5c ff ff ff    	mov    DWORD PTR [rbp-0xa4],eax
  105399:	c6 85 50 ff ff ff 00 	mov    BYTE PTR [rbp-0xb0],0x0
  1053a0:	c6 85 51 ff ff ff 00 	mov    BYTE PTR [rbp-0xaf],0x0
  1053a7:	c6 85 52 ff ff ff 00 	mov    BYTE PTR [rbp-0xae],0x0
  1053ae:	48 8b bd 60 ff ff ff 	mov    rdi,QWORD PTR [rbp-0xa0]
  1053b5:	48 8b b5 58 ff ff ff 	mov    rsi,QWORD PTR [rbp-0xa8]
  1053bc:	8a 85 52 ff ff ff    	mov    al,BYTE PTR [rbp-0xae]
  1053c2:	88 85 4e ff ff ff    	mov    BYTE PTR [rbp-0xb2],al
  1053c8:	66 8b 85 50 ff ff ff 	mov    ax,WORD PTR [rbp-0xb0]
  1053cf:	66 89 85 4c ff ff ff 	mov    WORD PTR [rbp-0xb4],ax
  1053d6:	0f b6 85 4e ff ff ff 	movzx  eax,BYTE PTR [rbp-0xb2]
  1053dd:	c1 e0 10             	shl    eax,0x10
  1053e0:	0f b7 95 4c ff ff ff 	movzx  edx,WORD PTR [rbp-0xb4]
  1053e7:	09 c2                	or     edx,eax
  1053e9:	e8 82 f4 00 00       	call   114870 <_Z14BB_WriteSquare6VectorS_5Color>
  1053ee:	c7 85 40 ff ff ff 00 	mov    DWORD PTR [rbp-0xc0],0x0
  1053f5:	00 00 00 
  1053f8:	8b 05 7a 6e 51 00    	mov    eax,DWORD PTR [rip+0x516e7a]        # 61c278 <_ZZ5PrintE1y>
  1053fe:	89 85 44 ff ff ff    	mov    DWORD PTR [rbp-0xbc],eax
  105404:	c6 85 38 ff ff ff ff 	mov    BYTE PTR [rbp-0xc8],0xff
  10540b:	c6 85 39 ff ff ff ff 	mov    BYTE PTR [rbp-0xc7],0xff
  105412:	c6 85 3a ff ff ff ff 	mov    BYTE PTR [rbp-0xc6],0xff
  105419:	48 8b b5 40 ff ff ff 	mov    rsi,QWORD PTR [rbp-0xc0]
  105420:	8a 85 3a ff ff ff    	mov    al,BYTE PTR [rbp-0xc6]
  105426:	88 85 36 ff ff ff    	mov    BYTE PTR [rbp-0xca],al
  10542c:	66 8b 85 38 ff ff ff 	mov    ax,WORD PTR [rbp-0xc8]
  105433:	66 89 85 34 ff ff ff 	mov    WORD PTR [rbp-0xcc],ax
  10543a:	0f b6 85 36 ff ff ff 	movzx  eax,BYTE PTR [rbp-0xca]
  105441:	c1 e0 10             	shl    eax,0x10
  105444:	0f b7 95 34 ff ff ff 	movzx  edx,WORD PTR [rbp-0xcc]
  10544b:	09 c2                	or     edx,eax
  10544d:	48 8d 3d 2c 6e 51 00 	lea    rdi,[rip+0x516e2c]        # 61c280 <_ZZ5PrintE4line>
  105454:	e8 57 f6 00 00       	call   114ab0 <_Z12BB_PrintLinePKc6Vector5Color>
  105459:	e8 e2 f3 00 00       	call   114840 <_Z10SwapBufferv>
  10545e:	48 8d 3d 1b 6e 51 00 	lea    rdi,[rip+0x516e1b]        # 61c280 <_ZZ5PrintE4line>
  105465:	e8 76 06 00 00       	call   105ae0 <strlen>
  10546a:	48 89 c1             	mov    rcx,rax
  10546d:	48 83 e9 01          	sub    rcx,0x1
  105471:	48 8d 05 08 6e 51 00 	lea    rax,[rip+0x516e08]        # 61c280 <_ZZ5PrintE4line>
  105478:	0f be 04 08          	movsx  eax,BYTE PTR [rax+rcx*1]
  10547c:	83 f8 0a             	cmp    eax,0xa
  10547f:	0f 85 13 00 00 00    	jne    105498 <Print+0x448>
  105485:	48 8d 3d f4 6d 51 00 	lea    rdi,[rip+0x516df4]        # 61c280 <_ZZ5PrintE4line>
  10548c:	e8 3f fb ff ff       	call   104fd0 <_Z12RegisterLinePKc>
  105491:	c6 05 e8 6d 51 00 00 	mov    BYTE PTR [rip+0x516de8],0x0        # 61c280 <_ZZ5PrintE4line>
  105498:	c7 45 fc 00 00 00 00 	mov    DWORD PTR [rbp-0x4],0x0
  10549f:	c7 45 dc 01 00 00 00 	mov    DWORD PTR [rbp-0x24],0x1
  1054a6:	48 8b 45 e8          	mov    rax,QWORD PTR [rbp-0x18]
  1054aa:	48 89 c4             	mov    rsp,rax
  1054ad:	8b 45 fc             	mov    eax,DWORD PTR [rbp-0x4]
  1054b0:	48 89 ec             	mov    rsp,rbp
  1054b3:	5d                   	pop    rbp
  1054b4:	c3                   	ret
  1054b5:	66 66 2e 0f 1f 84 00 	data16 cs nop WORD PTR [rax+rax*1+0x0]
  1054bc:	00 00 00 00 

00000000001054c0 <Printf>:
  1054c0:	55                   	push   rbp
  1054c1:	48 89 e5             	mov    rbp,rsp
  1054c4:	48 81 ec e0 00 00 00 	sub    rsp,0xe0
  1054cb:	84 c0                	test   al,al
  1054cd:	0f 84 26 00 00 00    	je     1054f9 <Printf+0x39>
  1054d3:	0f 29 85 60 ff ff ff 	movaps XMMWORD PTR [rbp-0xa0],xmm0
  1054da:	0f 29 8d 70 ff ff ff 	movaps XMMWORD PTR [rbp-0x90],xmm1
  1054e1:	0f 29 55 80          	movaps XMMWORD PTR [rbp-0x80],xmm2
  1054e5:	0f 29 5d 90          	movaps XMMWORD PTR [rbp-0x70],xmm3
  1054e9:	0f 29 65 a0          	movaps XMMWORD PTR [rbp-0x60],xmm4
  1054ed:	0f 29 6d b0          	movaps XMMWORD PTR [rbp-0x50],xmm5
  1054f1:	0f 29 75 c0          	movaps XMMWORD PTR [rbp-0x40],xmm6
  1054f5:	0f 29 7d d0          	movaps XMMWORD PTR [rbp-0x30],xmm7
  1054f9:	4c 89 8d 58 ff ff ff 	mov    QWORD PTR [rbp-0xa8],r9
  105500:	4c 89 85 50 ff ff ff 	mov    QWORD PTR [rbp-0xb0],r8
  105507:	48 89 8d 48 ff ff ff 	mov    QWORD PTR [rbp-0xb8],rcx
  10550e:	48 89 95 40 ff ff ff 	mov    QWORD PTR [rbp-0xc0],rdx
  105515:	48 89 b5 38 ff ff ff 	mov    QWORD PTR [rbp-0xc8],rsi
  10551c:	48 89 7d f8          	mov    QWORD PTR [rbp-0x8],rdi
  105520:	48 8d 85 30 ff ff ff 	lea    rax,[rbp-0xd0]
  105527:	48 89 45 f0          	mov    QWORD PTR [rbp-0x10],rax
  10552b:	48 8d 45 10          	lea    rax,[rbp+0x10]
  10552f:	48 89 45 e8          	mov    QWORD PTR [rbp-0x18],rax
  105533:	c7 45 e4 30 00 00 00 	mov    DWORD PTR [rbp-0x1c],0x30
  10553a:	c7 45 e0 08 00 00 00 	mov    DWORD PTR [rbp-0x20],0x8
  105541:	48 8b 75 f8          	mov    rsi,QWORD PTR [rbp-0x8]
  105545:	48 8d 3d 24 71 51 00 	lea    rdi,[rip+0x517124]        # 61c670 <_ZZ6PrintfE14str_for_Printf>
  10554c:	48 89 bd 28 ff ff ff 	mov    QWORD PTR [rbp-0xd8],rdi
  105553:	48 8d 55 e0          	lea    rdx,[rbp-0x20]
  105557:	e8 64 06 00 00       	call   105bc0 <vsprintf>
  10555c:	48 8b bd 28 ff ff ff 	mov    rdi,QWORD PTR [rbp-0xd8]
  105563:	e8 e8 fa ff ff       	call   105050 <Print>
  105568:	31 c0                	xor    eax,eax
  10556a:	48 81 c4 e0 00 00 00 	add    rsp,0xe0
  105571:	5d                   	pop    rbp
  105572:	c3                   	ret
  105573:	66 66 66 66 2e 0f 1f 	data16 data16 data16 cs nop WORD PTR [rax+rax*1+0x0]
  10557a:	84 00 00 00 00 00 

0000000000105580 <_Z6dPrintPci>:
  105580:	55                   	push   rbp
  105581:	48 89 e5             	mov    rbp,rsp
  105584:	48 83 ec 30          	sub    rsp,0x30
  105588:	48 89 7d f8          	mov    QWORD PTR [rbp-0x8],rdi
  10558c:	89 75 f4             	mov    DWORD PTR [rbp-0xc],esi
  10558f:	48 8b 7d f8          	mov    rdi,QWORD PTR [rbp-0x8]
  105593:	e8 48 05 00 00       	call   105ae0 <strlen>
  105598:	48 89 c1             	mov    rcx,rax
  10559b:	48 89 c8             	mov    rax,rcx
  10559e:	48 83 c0 32          	add    rax,0x32
  1055a2:	48 89 e2             	mov    rdx,rsp
  1055a5:	48 89 55 e8          	mov    QWORD PTR [rbp-0x18],rdx
  1055a9:	48 83 c1 41          	add    rcx,0x41
  1055ad:	48 83 e1 f0          	and    rcx,0xfffffffffffffff0
  1055b1:	48 89 e7             	mov    rdi,rsp
  1055b4:	48 29 cf             	sub    rdi,rcx
  1055b7:	48 89 7d d8          	mov    QWORD PTR [rbp-0x28],rdi
  1055bb:	48 89 fc             	mov    rsp,rdi
  1055be:	48 89 45 e0          	mov    QWORD PTR [rbp-0x20],rax
  1055c2:	48 8b 55 f8          	mov    rdx,QWORD PTR [rbp-0x8]
  1055c6:	8b 4d f4             	mov    ecx,DWORD PTR [rbp-0xc]
  1055c9:	48 8d 35 87 ae ff ff 	lea    rsi,[rip+0xffffffffffffae87]        # 100457 <_svfprintf_r.blanks-0x689>
  1055d0:	b0 00                	mov    al,0x0
  1055d2:	e8 19 86 00 00       	call   10dbf0 <sprintf>
  1055d7:	48 8b 7d d8          	mov    rdi,QWORD PTR [rbp-0x28]
  1055db:	e8 70 fa ff ff       	call   105050 <Print>
  1055e0:	48 8b 45 e8          	mov    rax,QWORD PTR [rbp-0x18]
  1055e4:	48 89 c4             	mov    rsp,rax
  1055e7:	48 89 ec             	mov    rsp,rbp
  1055ea:	5d                   	pop    rbp
  1055eb:	c3                   	ret
  1055ec:	0f 1f 40 00          	nop    DWORD PTR [rax+0x0]

00000000001055f0 <_Z7udPrintPcj>:
  1055f0:	55                   	push   rbp
  1055f1:	48 89 e5             	mov    rbp,rsp
  1055f4:	48 83 ec 30          	sub    rsp,0x30
  1055f8:	48 89 7d f8          	mov    QWORD PTR [rbp-0x8],rdi
  1055fc:	89 75 f4             	mov    DWORD PTR [rbp-0xc],esi
  1055ff:	48 8b 7d f8          	mov    rdi,QWORD PTR [rbp-0x8]
  105603:	e8 d8 04 00 00       	call   105ae0 <strlen>
  105608:	48 89 c1             	mov    rcx,rax
  10560b:	48 89 c8             	mov    rax,rcx
  10560e:	48 83 c0 32          	add    rax,0x32
  105612:	48 89 e2             	mov    rdx,rsp
  105615:	48 89 55 e8          	mov    QWORD PTR [rbp-0x18],rdx
  105619:	48 83 c1 41          	add    rcx,0x41
  10561d:	48 83 e1 f0          	and    rcx,0xfffffffffffffff0
  105621:	48 89 e7             	mov    rdi,rsp
  105624:	48 29 cf             	sub    rdi,rcx
  105627:	48 89 7d d8          	mov    QWORD PTR [rbp-0x28],rdi
  10562b:	48 89 fc             	mov    rsp,rdi
  10562e:	48 89 45 e0          	mov    QWORD PTR [rbp-0x20],rax
  105632:	48 8b 55 f8          	mov    rdx,QWORD PTR [rbp-0x8]
  105636:	8b 4d f4             	mov    ecx,DWORD PTR [rbp-0xc]
  105639:	48 8d 35 17 ae ff ff 	lea    rsi,[rip+0xffffffffffffae17]        # 100457 <_svfprintf_r.blanks-0x689>
  105640:	b0 00                	mov    al,0x0
  105642:	e8 a9 85 00 00       	call   10dbf0 <sprintf>
  105647:	48 8b 7d d8          	mov    rdi,QWORD PTR [rbp-0x28]
  10564b:	e8 00 fa ff ff       	call   105050 <Print>
  105650:	48 8b 45 e8          	mov    rax,QWORD PTR [rbp-0x18]
  105654:	48 89 c4             	mov    rsp,rax
  105657:	48 89 ec             	mov    rsp,rbp
  10565a:	5d                   	pop    rbp
  10565b:	c3                   	ret
  10565c:	0f 1f 40 00          	nop    DWORD PTR [rax+0x0]

0000000000105660 <_Z8uxdPrintPcj>:
  105660:	55                   	push   rbp
  105661:	48 89 e5             	mov    rbp,rsp
  105664:	48 83 ec 30          	sub    rsp,0x30
  105668:	48 89 7d f8          	mov    QWORD PTR [rbp-0x8],rdi
  10566c:	89 75 f4             	mov    DWORD PTR [rbp-0xc],esi
  10566f:	48 8b 7d f8          	mov    rdi,QWORD PTR [rbp-0x8]
  105673:	e8 68 04 00 00       	call   105ae0 <strlen>
  105678:	48 89 c1             	mov    rcx,rax
  10567b:	48 89 c8             	mov    rax,rcx
  10567e:	48 83 c0 32          	add    rax,0x32
  105682:	48 89 e2             	mov    rdx,rsp
  105685:	48 89 55 e8          	mov    QWORD PTR [rbp-0x18],rdx
  105689:	48 83 c1 41          	add    rcx,0x41
  10568d:	48 83 e1 f0          	and    rcx,0xfffffffffffffff0
  105691:	48 89 e7             	mov    rdi,rsp
  105694:	48 29 cf             	sub    rdi,rcx
  105697:	48 89 7d d8          	mov    QWORD PTR [rbp-0x28],rdi
  10569b:	48 89 fc             	mov    rsp,rdi
  10569e:	48 89 45 e0          	mov    QWORD PTR [rbp-0x20],rax
  1056a2:	48 8b 55 f8          	mov    rdx,QWORD PTR [rbp-0x8]
  1056a6:	8b 4d f4             	mov    ecx,DWORD PTR [rbp-0xc]
  1056a9:	48 8d 35 fc ac ff ff 	lea    rsi,[rip+0xffffffffffffacfc]        # 1003ac <_svfprintf_r.blanks-0x734>
  1056b0:	b0 00                	mov    al,0x0
  1056b2:	e8 39 85 00 00       	call   10dbf0 <sprintf>
  1056b7:	48 8b 7d d8          	mov    rdi,QWORD PTR [rbp-0x28]
  1056bb:	e8 90 f9 ff ff       	call   105050 <Print>
  1056c0:	48 8b 45 e8          	mov    rax,QWORD PTR [rbp-0x18]
  1056c4:	48 89 c4             	mov    rsp,rax
  1056c7:	48 89 ec             	mov    rsp,rbp
  1056ca:	5d                   	pop    rbp
  1056cb:	c3                   	ret
  1056cc:	0f 1f 40 00          	nop    DWORD PTR [rax+0x0]

00000000001056d0 <_Z15WriteMandelbroti>:
  1056d0:	55                   	push   rbp
  1056d1:	48 89 e5             	mov    rbp,rsp
  1056d4:	48 83 ec 20          	sub    rsp,0x20
  1056d8:	89 7d fc             	mov    DWORD PTR [rbp-0x4],edi
  1056db:	c6 45 fb 00          	mov    BYTE PTR [rbp-0x5],0x0
  1056df:	c7 45 f4 00 00 00 00 	mov    DWORD PTR [rbp-0xc],0x0
  1056e6:	8b 45 f4             	mov    eax,DWORD PTR [rbp-0xc]
  1056e9:	48 8b 0d 40 1d 51 00 	mov    rcx,QWORD PTR [rip+0x511d40]        # 617430 <vinfo>
  1056f0:	3b 41 14             	cmp    eax,DWORD PTR [rcx+0x14]
  1056f3:	0f 83 96 00 00 00    	jae    10578f <_Z15WriteMandelbroti+0xbf>
  1056f9:	c7 45 f0 00 00 00 00 	mov    DWORD PTR [rbp-0x10],0x0
  105700:	8b 45 f0             	mov    eax,DWORD PTR [rbp-0x10]
  105703:	48 8b 0d 26 1d 51 00 	mov    rcx,QWORD PTR [rip+0x511d26]        # 617430 <vinfo>
  10570a:	3b 41 10             	cmp    eax,DWORD PTR [rcx+0x10]
  10570d:	0f 83 69 00 00 00    	jae    10577c <_Z15WriteMandelbroti+0xac>
  105713:	8b 7d f0             	mov    edi,DWORD PTR [rbp-0x10]
  105716:	8b 75 f4             	mov    esi,DWORD PTR [rbp-0xc]
  105719:	8b 55 fc             	mov    edx,DWORD PTR [rbp-0x4]
  10571c:	e8 0f 01 00 00       	call   105830 <_Z14CalcMandelbrotiii>
  105721:	88 45 fb             	mov    BYTE PTR [rbp-0x5],al
  105724:	48 8d 05 e5 a8 55 00 	lea    rax,[rip+0x55a8e5]        # 660010 <BB_WritePixel>
  10572b:	48 8b 00             	mov    rax,QWORD PTR [rax]
  10572e:	8a 4d fb             	mov    cl,BYTE PTR [rbp-0x5]
  105731:	c0 e1 02             	shl    cl,0x2
  105734:	88 4d e8             	mov    BYTE PTR [rbp-0x18],cl
  105737:	c6 45 e9 00          	mov    BYTE PTR [rbp-0x17],0x0
  10573b:	c6 45 ea 00          	mov    BYTE PTR [rbp-0x16],0x0
  10573f:	48 8b 0d ea 1c 51 00 	mov    rcx,QWORD PTR [rip+0x511cea]        # 617430 <vinfo>
  105746:	8b 71 10             	mov    esi,DWORD PTR [rcx+0x10]
  105749:	8b 4d f0             	mov    ecx,DWORD PTR [rbp-0x10]
  10574c:	29 ce                	sub    esi,ecx
  10574e:	8b 55 f4             	mov    edx,DWORD PTR [rbp-0xc]
  105751:	8a 4d ea             	mov    cl,BYTE PTR [rbp-0x16]
  105754:	88 4d e6             	mov    BYTE PTR [rbp-0x1a],cl
  105757:	66 8b 4d e8          	mov    cx,WORD PTR [rbp-0x18]
  10575b:	66 89 4d e4          	mov    WORD PTR [rbp-0x1c],cx
  10575f:	0f b6 4d e6          	movzx  ecx,BYTE PTR [rbp-0x1a]
  105763:	c1 e1 10             	shl    ecx,0x10
  105766:	0f b7 7d e4          	movzx  edi,WORD PTR [rbp-0x1c]
  10576a:	09 cf                	or     edi,ecx
  10576c:	ff d0                	call   rax
  10576e:	8b 45 f0             	mov    eax,DWORD PTR [rbp-0x10]
  105771:	83 c0 01             	add    eax,0x1
  105774:	89 45 f0             	mov    DWORD PTR [rbp-0x10],eax
  105777:	e9 84 ff ff ff       	jmp    105700 <_Z15WriteMandelbroti+0x30>
  10577c:	e9 00 00 00 00       	jmp    105781 <_Z15WriteMandelbroti+0xb1>
  105781:	8b 45 f4             	mov    eax,DWORD PTR [rbp-0xc]
  105784:	83 c0 01             	add    eax,0x1
  105787:	89 45 f4             	mov    DWORD PTR [rbp-0xc],eax
  10578a:	e9 57 ff ff ff       	jmp    1056e6 <_Z15WriteMandelbroti+0x16>
  10578f:	e8 ac f0 00 00       	call   114840 <_Z10SwapBufferv>
  105794:	48 83 c4 20          	add    rsp,0x20
  105798:	5d                   	pop    rbp
  105799:	c3                   	ret
  10579a:	66 0f 1f 44 00 00    	nop    WORD PTR [rax+rax*1+0x0]

00000000001057a0 <_Z5clearv>:
  1057a0:	55                   	push   rbp
  1057a1:	48 89 e5             	mov    rbp,rsp
  1057a4:	48 83 ec 20          	sub    rsp,0x20
  1057a8:	c7 45 f8 00 00 00 00 	mov    DWORD PTR [rbp-0x8],0x0
  1057af:	c7 45 fc 00 00 00 00 	mov    DWORD PTR [rbp-0x4],0x0
  1057b6:	48 8b 05 73 1c 51 00 	mov    rax,QWORD PTR [rip+0x511c73]        # 617430 <vinfo>
  1057bd:	8b 40 10             	mov    eax,DWORD PTR [rax+0x10]
  1057c0:	89 45 f0             	mov    DWORD PTR [rbp-0x10],eax
  1057c3:	48 8b 05 66 1c 51 00 	mov    rax,QWORD PTR [rip+0x511c66]        # 617430 <vinfo>
  1057ca:	8b 40 14             	mov    eax,DWORD PTR [rax+0x14]
  1057cd:	89 45 f4             	mov    DWORD PTR [rbp-0xc],eax
  1057d0:	c6 45 e8 00          	mov    BYTE PTR [rbp-0x18],0x0
  1057d4:	c6 45 e9 00          	mov    BYTE PTR [rbp-0x17],0x0
  1057d8:	c6 45 ea 00          	mov    BYTE PTR [rbp-0x16],0x0
  1057dc:	48 8b 7d f8          	mov    rdi,QWORD PTR [rbp-0x8]
  1057e0:	48 8b 75 f0          	mov    rsi,QWORD PTR [rbp-0x10]
  1057e4:	8a 45 ea             	mov    al,BYTE PTR [rbp-0x16]
  1057e7:	88 45 e6             	mov    BYTE PTR [rbp-0x1a],al
  1057ea:	66 8b 45 e8          	mov    ax,WORD PTR [rbp-0x18]
  1057ee:	66 89 45 e4          	mov    WORD PTR [rbp-0x1c],ax
  1057f2:	0f b6 45 e6          	movzx  eax,BYTE PTR [rbp-0x1a]
  1057f6:	c1 e0 10             	shl    eax,0x10
  1057f9:	0f b7 55 e4          	movzx  edx,WORD PTR [rbp-0x1c]
  1057fd:	09 c2                	or     edx,eax
  1057ff:	e8 6c f0 00 00       	call   114870 <_Z14BB_WriteSquare6VectorS_5Color>
  105804:	c7 05 32 1c 51 00 00 	mov    DWORD PTR [rip+0x511c32],0x0        # 617440 <line_queue_head>
  10580b:	00 00 00 
  10580e:	c7 05 2c 1c 51 00 00 	mov    DWORD PTR [rip+0x511c2c],0x0        # 617444 <line_queue_end>
  105815:	00 00 00 
  105818:	e8 23 f0 00 00       	call   114840 <_Z10SwapBufferv>
  10581d:	48 83 c4 20          	add    rsp,0x20
  105821:	5d                   	pop    rbp
  105822:	c3                   	ret
  105823:	cc                   	int3
  105824:	cc                   	int3
  105825:	cc                   	int3
  105826:	cc                   	int3
  105827:	cc                   	int3
  105828:	cc                   	int3
  105829:	cc                   	int3
  10582a:	cc                   	int3
  10582b:	cc                   	int3
  10582c:	cc                   	int3
  10582d:	cc                   	int3
  10582e:	cc                   	int3
  10582f:	cc                   	int3

0000000000105830 <_Z14CalcMandelbrotiii>:
  105830:	55                   	push   rbp
  105831:	48 89 e5             	mov    rbp,rsp
  105834:	48 83 ec 50          	sub    rsp,0x50
  105838:	89 7d f8             	mov    DWORD PTR [rbp-0x8],edi
  10583b:	89 75 f4             	mov    DWORD PTR [rbp-0xc],esi
  10583e:	89 55 f0             	mov    DWORD PTR [rbp-0x10],edx
  105841:	48 8b 05 e8 1b 51 00 	mov    rax,QWORD PTR [rip+0x511be8]        # 617430 <vinfo>
  105848:	8b 40 10             	mov    eax,DWORD PTR [rax+0x10]
  10584b:	89 45 ec             	mov    DWORD PTR [rbp-0x14],eax
  10584e:	48 8b 05 db 1b 51 00 	mov    rax,QWORD PTR [rip+0x511bdb]        # 617430 <vinfo>
  105855:	8b 40 14             	mov    eax,DWORD PTR [rax+0x14]
  105858:	89 45 e8             	mov    DWORD PTR [rbp-0x18],eax
  10585b:	8b 45 ec             	mov    eax,DWORD PTR [rbp-0x14]
  10585e:	3b 45 e8             	cmp    eax,DWORD PTR [rbp-0x18]
  105861:	0f 8e 0b 00 00 00    	jle    105872 <_Z14CalcMandelbrotiii+0x42>
  105867:	8b 45 e8             	mov    eax,DWORD PTR [rbp-0x18]
  10586a:	89 45 b4             	mov    DWORD PTR [rbp-0x4c],eax
  10586d:	e9 06 00 00 00       	jmp    105878 <_Z14CalcMandelbrotiii+0x48>
  105872:	8b 45 ec             	mov    eax,DWORD PTR [rbp-0x14]
  105875:	89 45 b4             	mov    DWORD PTR [rbp-0x4c],eax
  105878:	8b 45 b4             	mov    eax,DWORD PTR [rbp-0x4c]
  10587b:	89 45 e4             	mov    DWORD PTR [rbp-0x1c],eax
  10587e:	0f 57 c0             	xorps  xmm0,xmm0
  105881:	f2 0f 11 45 d0       	movsd  QWORD PTR [rbp-0x30],xmm0
  105886:	0f 57 c0             	xorps  xmm0,xmm0
  105889:	f2 0f 11 45 d8       	movsd  QWORD PTR [rbp-0x28],xmm0
  10588e:	f2 0f 2a 4d f8       	cvtsi2sd xmm1,DWORD PTR [rbp-0x8]
  105893:	f2 0f 2a 45 ec       	cvtsi2sd xmm0,DWORD PTR [rbp-0x14]
  105898:	f2 0f 10 15 c0 af ff 	movsd  xmm2,QWORD PTR [rip+0xffffffffffffafc0]        # 100860 <_svfprintf_r.blanks-0x280>
  10589f:	ff 
  1058a0:	f2 0f 5e c2          	divsd  xmm0,xmm2
  1058a4:	f2 0f 5c c8          	subsd  xmm1,xmm0
  1058a8:	f2 0f 2a 45 e4       	cvtsi2sd xmm0,DWORD PTR [rbp-0x1c]
  1058ad:	f2 0f 5e c8          	divsd  xmm1,xmm0
  1058b1:	f2 0f 10 05 c7 af ff 	movsd  xmm0,QWORD PTR [rip+0xffffffffffffafc7]        # 100880 <_svfprintf_r.blanks-0x260>
  1058b8:	ff 
  1058b9:	f2 0f 5e c8          	divsd  xmm1,xmm0
  1058bd:	f2 0f 10 05 93 af ff 	movsd  xmm0,QWORD PTR [rip+0xffffffffffffaf93]        # 100858 <_svfprintf_r.blanks-0x288>
  1058c4:	ff 
  1058c5:	f2 0f 58 c1          	addsd  xmm0,xmm1
  1058c9:	f2 0f 11 45 c0       	movsd  QWORD PTR [rbp-0x40],xmm0
  1058ce:	f2 0f 2a 4d f4       	cvtsi2sd xmm1,DWORD PTR [rbp-0xc]
  1058d3:	f2 0f 2a 45 e8       	cvtsi2sd xmm0,DWORD PTR [rbp-0x18]
  1058d8:	f2 0f 10 15 80 af ff 	movsd  xmm2,QWORD PTR [rip+0xffffffffffffaf80]        # 100860 <_svfprintf_r.blanks-0x280>
  1058df:	ff 
  1058e0:	f2 0f 5e c2          	divsd  xmm0,xmm2
  1058e4:	f2 0f 5c c8          	subsd  xmm1,xmm0
  1058e8:	f2 0f 2a 45 e4       	cvtsi2sd xmm0,DWORD PTR [rbp-0x1c]
  1058ed:	f2 0f 5e c8          	divsd  xmm1,xmm0
  1058f1:	f2 0f 10 05 87 af ff 	movsd  xmm0,QWORD PTR [rip+0xffffffffffffaf87]        # 100880 <_svfprintf_r.blanks-0x260>
  1058f8:	ff 
  1058f9:	f2 0f 5e c8          	divsd  xmm1,xmm0
  1058fd:	0f 57 c0             	xorps  xmm0,xmm0
  105900:	f2 0f 58 c1          	addsd  xmm0,xmm1
  105904:	f2 0f 11 45 b8       	movsd  QWORD PTR [rbp-0x48],xmm0
  105909:	c7 45 e0 00 00 00 00 	mov    DWORD PTR [rbp-0x20],0x0
  105910:	8b 45 e0             	mov    eax,DWORD PTR [rbp-0x20]
  105913:	3b 45 f0             	cmp    eax,DWORD PTR [rbp-0x10]
  105916:	0f 8f b2 00 00 00    	jg     1059ce <_Z14CalcMandelbrotiii+0x19e>
  10591c:	f2 0f 10 45 d8       	movsd  xmm0,QWORD PTR [rbp-0x28]
  105921:	f2 0f 10 55 d8       	movsd  xmm2,QWORD PTR [rbp-0x28]
  105926:	f2 0f 10 4d d0       	movsd  xmm1,QWORD PTR [rbp-0x30]
  10592b:	f2 0f 59 4d d0       	mulsd  xmm1,QWORD PTR [rbp-0x30]
  105930:	f2 0f 59 c2          	mulsd  xmm0,xmm2
  105934:	f2 0f 58 c1          	addsd  xmm0,xmm1
  105938:	f2 0f 10 0d 28 af ff 	movsd  xmm1,QWORD PTR [rip+0xffffffffffffaf28]        # 100868 <_svfprintf_r.blanks-0x278>
  10593f:	ff 
  105940:	66 0f 2e c1          	ucomisd xmm0,xmm1
  105944:	0f 86 0b 00 00 00    	jbe    105955 <_Z14CalcMandelbrotiii+0x125>
  10594a:	8b 45 e0             	mov    eax,DWORD PTR [rbp-0x20]
  10594d:	89 45 fc             	mov    DWORD PTR [rbp-0x4],eax
  105950:	e9 7f 00 00 00       	jmp    1059d4 <_Z14CalcMandelbrotiii+0x1a4>
  105955:	f2 0f 10 45 d8       	movsd  xmm0,QWORD PTR [rbp-0x28]
  10595a:	f2 0f 10 55 d8       	movsd  xmm2,QWORD PTR [rbp-0x28]
  10595f:	f2 0f 10 4d d0       	movsd  xmm1,QWORD PTR [rbp-0x30]
  105964:	f2 0f 59 4d d0       	mulsd  xmm1,QWORD PTR [rbp-0x30]
  105969:	66 48 0f 7e c8       	movq   rax,xmm1
  10596e:	48 b9 00 00 00 00 00 	movabs rcx,0x8000000000000000
  105975:	00 00 80 
  105978:	48 31 c8             	xor    rax,rcx
  10597b:	66 48 0f 6e c8       	movq   xmm1,rax
  105980:	f2 0f 59 c2          	mulsd  xmm0,xmm2
  105984:	f2 0f 58 c1          	addsd  xmm0,xmm1
  105988:	f2 0f 58 45 c0       	addsd  xmm0,QWORD PTR [rbp-0x40]
  10598d:	f2 0f 11 45 c8       	movsd  QWORD PTR [rbp-0x38],xmm0
  105992:	f2 0f 10 05 c6 ae ff 	movsd  xmm0,QWORD PTR [rip+0xffffffffffffaec6]        # 100860 <_svfprintf_r.blanks-0x280>
  105999:	ff 
  10599a:	f2 0f 59 45 d8       	mulsd  xmm0,QWORD PTR [rbp-0x28]
  10599f:	f2 0f 10 55 d0       	movsd  xmm2,QWORD PTR [rbp-0x30]
  1059a4:	f2 0f 10 4d b8       	movsd  xmm1,QWORD PTR [rbp-0x48]
  1059a9:	f2 0f 59 c2          	mulsd  xmm0,xmm2
  1059ad:	f2 0f 58 c1          	addsd  xmm0,xmm1
  1059b1:	f2 0f 11 45 d0       	movsd  QWORD PTR [rbp-0x30],xmm0
  1059b6:	f2 0f 10 45 c8       	movsd  xmm0,QWORD PTR [rbp-0x38]
  1059bb:	f2 0f 11 45 d8       	movsd  QWORD PTR [rbp-0x28],xmm0
  1059c0:	8b 45 e0             	mov    eax,DWORD PTR [rbp-0x20]
  1059c3:	83 c0 01             	add    eax,0x1
  1059c6:	89 45 e0             	mov    DWORD PTR [rbp-0x20],eax
  1059c9:	e9 42 ff ff ff       	jmp    105910 <_Z14CalcMandelbrotiii+0xe0>
  1059ce:	8b 45 e0             	mov    eax,DWORD PTR [rbp-0x20]
  1059d1:	89 45 fc             	mov    DWORD PTR [rbp-0x4],eax
  1059d4:	8b 45 fc             	mov    eax,DWORD PTR [rbp-0x4]
  1059d7:	48 83 c4 50          	add    rsp,0x50
  1059db:	5d                   	pop    rbp
  1059dc:	c3                   	ret
  1059dd:	cc                   	int3
  1059de:	cc                   	int3
  1059df:	cc                   	int3

00000000001059e0 <strcpy>:
  1059e0:	48 89 f8             	mov    rax,rdi
  1059e3:	89 f1                	mov    ecx,esi
  1059e5:	09 c1                	or     ecx,eax
  1059e7:	f6 c1 07             	test   cl,0x7
  1059ea:	75 29                	jne    105a15 <strcpy+0x35>
  1059ec:	49 b8 ff fe fe fe fe 	movabs r8,0xfefefefefefefeff
  1059f3:	fe fe fe 
  1059f6:	49 b9 80 80 80 80 80 	movabs r9,0x8080808080808080
  1059fd:	80 80 80 
  105a00:	48 8b 16             	mov    rdx,QWORD PTR [rsi]
  105a03:	48 89 d1             	mov    rcx,rdx
  105a06:	48 f7 d1             	not    rcx
  105a09:	4a 8d 3c 02          	lea    rdi,[rdx+r8*1]
  105a0d:	48 21 cf             	and    rdi,rcx
  105a10:	4c 85 cf             	test   rdi,r9
  105a13:	74 1a                	je     105a2f <strcpy+0x4f>
  105a15:	48 89 c7             	mov    rdi,rax
  105a18:	31 d2                	xor    edx,edx
  105a1a:	66 0f 1f 44 00 00    	nop    WORD PTR [rax+rax*1+0x0]
  105a20:	0f b6 0c 16          	movzx  ecx,BYTE PTR [rsi+rdx*1]
  105a24:	88 0c 17             	mov    BYTE PTR [rdi+rdx*1],cl
  105a27:	48 ff c2             	inc    rdx
  105a2a:	84 c9                	test   cl,cl
  105a2c:	75 f2                	jne    105a20 <strcpy+0x40>
  105a2e:	c3                   	ret
  105a2f:	48 89 c7             	mov    rdi,rax
  105a32:	66 66 66 66 66 2e 0f 	data16 data16 data16 data16 cs nop WORD PTR [rax+rax*1+0x0]
  105a39:	1f 84 00 00 00 00 00 
  105a40:	48 89 17             	mov    QWORD PTR [rdi],rdx
  105a43:	48 83 c7 08          	add    rdi,0x8
  105a47:	48 8b 56 08          	mov    rdx,QWORD PTR [rsi+0x8]
  105a4b:	48 83 c6 08          	add    rsi,0x8
  105a4f:	48 89 d1             	mov    rcx,rdx
  105a52:	48 f7 d1             	not    rcx
  105a55:	4e 8d 14 02          	lea    r10,[rdx+r8*1]
  105a59:	4c 21 c9             	and    rcx,r9
  105a5c:	4c 85 d1             	test   rcx,r10
  105a5f:	74 df                	je     105a40 <strcpy+0x60>
  105a61:	eb b5                	jmp    105a18 <strcpy+0x38>
  105a63:	cc                   	int3
  105a64:	cc                   	int3
  105a65:	cc                   	int3
  105a66:	cc                   	int3
  105a67:	cc                   	int3
  105a68:	cc                   	int3
  105a69:	cc                   	int3
  105a6a:	cc                   	int3
  105a6b:	cc                   	int3
  105a6c:	cc                   	int3
  105a6d:	cc                   	int3
  105a6e:	cc                   	int3
  105a6f:	cc                   	int3

0000000000105a70 <strcat>:
  105a70:	41 56                	push   r14
  105a72:	53                   	push   rbx
  105a73:	50                   	push   rax
  105a74:	49 89 fe             	mov    r14,rdi
  105a77:	41 f6 c6 07          	test   r14b,0x7
  105a7b:	75 3c                	jne    105ab9 <strcat+0x49>
  105a7d:	48 b8 80 80 80 80 80 	movabs rax,0x8080808080808080
  105a84:	80 80 80 
  105a87:	49 8d 7e f8          	lea    rdi,[r14-0x8]
  105a8b:	48 b9 ff fe fe fe fe 	movabs rcx,0xfefefefefefefeff
  105a92:	fe fe fe 
  105a95:	66 66 2e 0f 1f 84 00 	data16 cs nop WORD PTR [rax+rax*1+0x0]
  105a9c:	00 00 00 00 
  105aa0:	48 8b 5f 08          	mov    rbx,QWORD PTR [rdi+0x8]
  105aa4:	48 83 c7 08          	add    rdi,0x8
  105aa8:	48 89 da             	mov    rdx,rbx
  105aab:	48 f7 d2             	not    rdx
  105aae:	48 21 c2             	and    rdx,rax
  105ab1:	48 01 cb             	add    rbx,rcx
  105ab4:	48 85 da             	test   rdx,rbx
  105ab7:	74 e7                	je     105aa0 <strcat+0x30>
  105ab9:	48 ff cf             	dec    rdi
  105abc:	0f 1f 40 00          	nop    DWORD PTR [rax+0x0]
  105ac0:	80 7f 01 00          	cmp    BYTE PTR [rdi+0x1],0x0
  105ac4:	48 8d 7f 01          	lea    rdi,[rdi+0x1]
  105ac8:	75 f6                	jne    105ac0 <strcat+0x50>
  105aca:	e8 11 ff ff ff       	call   1059e0 <strcpy>
  105acf:	4c 89 f0             	mov    rax,r14
  105ad2:	48 83 c4 08          	add    rsp,0x8
  105ad6:	5b                   	pop    rbx
  105ad7:	41 5e                	pop    r14
  105ad9:	c3                   	ret
  105ada:	cc                   	int3
  105adb:	cc                   	int3
  105adc:	cc                   	int3
  105add:	cc                   	int3
  105ade:	cc                   	int3
  105adf:	cc                   	int3

0000000000105ae0 <strlen>:
  105ae0:	48 89 f8             	mov    rax,rdi
  105ae3:	40 f6 c7 07          	test   dil,0x7
  105ae7:	74 77                	je     105b60 <strlen+0x80>
  105ae9:	80 3f 00             	cmp    BYTE PTR [rdi],0x0
  105aec:	48 89 f8             	mov    rax,rdi
  105aef:	0f 84 b8 00 00 00    	je     105bad <strlen+0xcd>
  105af5:	48 8d 47 01          	lea    rax,[rdi+0x1]
  105af9:	a8 07                	test   al,0x7
  105afb:	74 63                	je     105b60 <strlen+0x80>
  105afd:	80 38 00             	cmp    BYTE PTR [rax],0x0
  105b00:	0f 84 a7 00 00 00    	je     105bad <strlen+0xcd>
  105b06:	48 8d 47 02          	lea    rax,[rdi+0x2]
  105b0a:	a8 07                	test   al,0x7
  105b0c:	74 52                	je     105b60 <strlen+0x80>
  105b0e:	80 38 00             	cmp    BYTE PTR [rax],0x0
  105b11:	0f 84 96 00 00 00    	je     105bad <strlen+0xcd>
  105b17:	48 8d 47 03          	lea    rax,[rdi+0x3]
  105b1b:	a8 07                	test   al,0x7
  105b1d:	74 41                	je     105b60 <strlen+0x80>
  105b1f:	80 38 00             	cmp    BYTE PTR [rax],0x0
  105b22:	0f 84 85 00 00 00    	je     105bad <strlen+0xcd>
  105b28:	48 8d 47 04          	lea    rax,[rdi+0x4]
  105b2c:	a8 07                	test   al,0x7
  105b2e:	74 30                	je     105b60 <strlen+0x80>
  105b30:	80 38 00             	cmp    BYTE PTR [rax],0x0
  105b33:	74 78                	je     105bad <strlen+0xcd>
  105b35:	48 8d 47 05          	lea    rax,[rdi+0x5]
  105b39:	a8 07                	test   al,0x7
  105b3b:	74 23                	je     105b60 <strlen+0x80>
  105b3d:	80 38 00             	cmp    BYTE PTR [rax],0x0
  105b40:	74 6b                	je     105bad <strlen+0xcd>
  105b42:	48 8d 47 06          	lea    rax,[rdi+0x6]
  105b46:	a8 07                	test   al,0x7
  105b48:	74 16                	je     105b60 <strlen+0x80>
  105b4a:	80 38 00             	cmp    BYTE PTR [rax],0x0
  105b4d:	74 5e                	je     105bad <strlen+0xcd>
  105b4f:	48 8d 47 07          	lea    rax,[rdi+0x7]
  105b53:	a8 07                	test   al,0x7
  105b55:	74 09                	je     105b60 <strlen+0x80>
  105b57:	80 38 00             	cmp    BYTE PTR [rax],0x0
  105b5a:	74 51                	je     105bad <strlen+0xcd>
  105b5c:	48 8d 47 08          	lea    rax,[rdi+0x8]
  105b60:	49 b8 80 80 80 80 80 	movabs r8,0x8080808080808080
  105b67:	80 80 80 
  105b6a:	48 83 c0 f7          	add    rax,0xfffffffffffffff7
  105b6e:	48 be ff fe fe fe fe 	movabs rsi,0xfefefefefefefeff
  105b75:	fe fe fe 
  105b78:	48 89 c1             	mov    rcx,rax
  105b7b:	0f 1f 44 00 00       	nop    DWORD PTR [rax+rax*1+0x0]
  105b80:	48 8b 51 09          	mov    rdx,QWORD PTR [rcx+0x9]
  105b84:	48 89 d0             	mov    rax,rdx
  105b87:	48 f7 d0             	not    rax
  105b8a:	4c 21 c0             	and    rax,r8
  105b8d:	48 01 f2             	add    rdx,rsi
  105b90:	48 83 c1 08          	add    rcx,0x8
  105b94:	48 85 d0             	test   rax,rdx
  105b97:	74 e7                	je     105b80 <strlen+0xa0>
  105b99:	0f 1f 80 00 00 00 00 	nop    DWORD PTR [rax+0x0]
  105ba0:	48 8d 41 01          	lea    rax,[rcx+0x1]
  105ba4:	80 79 01 00          	cmp    BYTE PTR [rcx+0x1],0x0
  105ba8:	48 89 c1             	mov    rcx,rax
  105bab:	75 f3                	jne    105ba0 <strlen+0xc0>
  105bad:	48 29 f8             	sub    rax,rdi
  105bb0:	c3                   	ret
  105bb1:	cc                   	int3
  105bb2:	cc                   	int3
  105bb3:	cc                   	int3
  105bb4:	cc                   	int3
  105bb5:	cc                   	int3
  105bb6:	cc                   	int3
  105bb7:	cc                   	int3
  105bb8:	cc                   	int3
  105bb9:	cc                   	int3
  105bba:	cc                   	int3
  105bbb:	cc                   	int3
  105bbc:	cc                   	int3
  105bbd:	cc                   	int3
  105bbe:	cc                   	int3
  105bbf:	cc                   	int3

0000000000105bc0 <vsprintf>:
  105bc0:	48 81 ec b8 00 00 00 	sub    rsp,0xb8
  105bc7:	48 89 d1             	mov    rcx,rdx
  105bca:	48 89 f2             	mov    rdx,rsi
  105bcd:	48 8d 05 c4 00 01 00 	lea    rax,[rip+0x100c4]        # 115c98 <_impure_ptr>
  105bd4:	48 8b 00             	mov    rax,QWORD PTR [rax]
  105bd7:	48 89 7c 24 08       	mov    QWORD PTR [rsp+0x8],rdi
  105bdc:	48 89 7c 24 20       	mov    QWORD PTR [rsp+0x20],rdi
  105be1:	48 be ff ff ff 7f 08 	movabs rsi,0xffff02087fffffff
  105be8:	02 ff ff 
  105beb:	48 89 74 24 14       	mov    QWORD PTR [rsp+0x14],rsi
  105bf0:	c7 44 24 28 ff ff ff 	mov    DWORD PTR [rsp+0x28],0x7fffffff
  105bf7:	7f 
  105bf8:	48 8d 74 24 08       	lea    rsi,[rsp+0x8]
  105bfd:	48 89 c7             	mov    rdi,rax
  105c00:	e8 6b 00 00 00       	call   105c70 <_svfprintf_r>
  105c05:	48 8b 4c 24 08       	mov    rcx,QWORD PTR [rsp+0x8]
  105c0a:	c6 01 00             	mov    BYTE PTR [rcx],0x0
  105c0d:	48 81 c4 b8 00 00 00 	add    rsp,0xb8
  105c14:	c3                   	ret
  105c15:	66 66 2e 0f 1f 84 00 	data16 cs nop WORD PTR [rax+rax*1+0x0]
  105c1c:	00 00 00 00 

0000000000105c20 <_vsprintf_r>:
  105c20:	48 81 ec b8 00 00 00 	sub    rsp,0xb8
  105c27:	48 89 74 24 08       	mov    QWORD PTR [rsp+0x8],rsi
  105c2c:	48 89 74 24 20       	mov    QWORD PTR [rsp+0x20],rsi
  105c31:	48 b8 ff ff ff 7f 08 	movabs rax,0xffff02087fffffff
  105c38:	02 ff ff 
  105c3b:	48 89 44 24 14       	mov    QWORD PTR [rsp+0x14],rax
  105c40:	c7 44 24 28 ff ff ff 	mov    DWORD PTR [rsp+0x28],0x7fffffff
  105c47:	7f 
  105c48:	48 8d 74 24 08       	lea    rsi,[rsp+0x8]
  105c4d:	e8 1e 00 00 00       	call   105c70 <_svfprintf_r>
  105c52:	48 8b 4c 24 08       	mov    rcx,QWORD PTR [rsp+0x8]
  105c57:	c6 01 00             	mov    BYTE PTR [rcx],0x0
  105c5a:	48 81 c4 b8 00 00 00 	add    rsp,0xb8
  105c61:	c3                   	ret
  105c62:	cc                   	int3
  105c63:	cc                   	int3
  105c64:	cc                   	int3
  105c65:	cc                   	int3
  105c66:	cc                   	int3
  105c67:	cc                   	int3
  105c68:	cc                   	int3
  105c69:	cc                   	int3
  105c6a:	cc                   	int3
  105c6b:	cc                   	int3
  105c6c:	cc                   	int3
  105c6d:	cc                   	int3
  105c6e:	cc                   	int3
  105c6f:	cc                   	int3

0000000000105c70 <_svfprintf_r>:
  105c70:	55                   	push   rbp
  105c71:	41 57                	push   r15
  105c73:	41 56                	push   r14
  105c75:	41 55                	push   r13
  105c77:	41 54                	push   r12
  105c79:	53                   	push   rbx
  105c7a:	48 81 ec a8 01 00 00 	sub    rsp,0x1a8
  105c81:	49 89 ce             	mov    r14,rcx
  105c84:	49 89 d4             	mov    r12,rdx
  105c87:	48 89 f3             	mov    rbx,rsi
  105c8a:	49 89 fd             	mov    r13,rdi
  105c8d:	e8 4e 21 00 00       	call   107de0 <_localeconv_r>
  105c92:	48 8b 38             	mov    rdi,QWORD PTR [rax]
  105c95:	48 89 bc 24 b0 00 00 	mov    QWORD PTR [rsp+0xb0],rdi
  105c9c:	00 
  105c9d:	e8 3e fe ff ff       	call   105ae0 <strlen>
  105ca2:	48 89 c5             	mov    rbp,rax
  105ca5:	f6 43 10 80          	test   BYTE PTR [rbx+0x10],0x80
  105ca9:	74 2b                	je     105cd6 <_svfprintf_r+0x66>
  105cab:	48 83 7b 18 00       	cmp    QWORD PTR [rbx+0x18],0x0
  105cb0:	75 24                	jne    105cd6 <_svfprintf_r+0x66>
  105cb2:	be 40 00 00 00       	mov    esi,0x40
  105cb7:	4c 89 ef             	mov    rdi,r13
  105cba:	e8 d1 23 00 00       	call   108090 <_malloc_r>
  105cbf:	48 89 03             	mov    QWORD PTR [rbx],rax
  105cc2:	48 89 43 18          	mov    QWORD PTR [rbx+0x18],rax
  105cc6:	48 85 c0             	test   rax,rax
  105cc9:	0f 84 d7 20 00 00    	je     107da6 <_svfprintf_r+0x2136>
  105ccf:	c7 43 20 40 00 00 00 	mov    DWORD PTR [rbx+0x20],0x40
  105cd6:	48 89 5c 24 28       	mov    QWORD PTR [rsp+0x28],rbx
  105cdb:	4c 8d bc 24 20 01 00 	lea    r15,[rsp+0x120]
  105ce2:	00 
  105ce3:	4c 89 7c 24 10       	mov    QWORD PTR [rsp+0x10],r15
  105ce8:	48 c7 44 24 20 00 00 	mov    QWORD PTR [rsp+0x20],0x0
  105cef:	00 00 
  105cf1:	c7 44 24 18 00 00 00 	mov    DWORD PTR [rsp+0x18],0x0
  105cf8:	00 
  105cf9:	4c 89 74 24 48       	mov    QWORD PTR [rsp+0x48],r14
  105cfe:	49 8d 46 08          	lea    rax,[r14+0x8]
  105d02:	48 89 44 24 50       	mov    QWORD PTR [rsp+0x50],rax
  105d07:	48 89 e8             	mov    rax,rbp
  105d0a:	48 89 ac 24 a0 00 00 	mov    QWORD PTR [rsp+0xa0],rbp
  105d11:	00 
  105d12:	8d 45 01             	lea    eax,[rbp+0x1]
  105d15:	89 84 24 c0 00 00 00 	mov    DWORD PTR [rsp+0xc0],eax
  105d1c:	66 0f 57 d2          	xorpd  xmm2,xmm2
  105d20:	31 c0                	xor    eax,eax
  105d22:	48 89 84 24 90 00 00 	mov    QWORD PTR [rsp+0x90],rax
  105d29:	00 
  105d2a:	31 db                	xor    ebx,ebx
  105d2c:	31 c0                	xor    eax,eax
  105d2e:	48 89 84 24 c8 00 00 	mov    QWORD PTR [rsp+0xc8],rax
  105d35:	00 
  105d36:	31 c0                	xor    eax,eax
  105d38:	48 89 84 24 b8 00 00 	mov    QWORD PTR [rsp+0xb8],rax
  105d3f:	00 
  105d40:	4c 89 6c 24 38       	mov    QWORD PTR [rsp+0x38],r13
  105d45:	41 89 dd             	mov    r13d,ebx
  105d48:	4d 89 fe             	mov    r14,r15
  105d4b:	49 8d 6c 24 01       	lea    rbp,[r12+0x1]
  105d50:	31 db                	xor    ebx,ebx
  105d52:	31 c0                	xor    eax,eax
  105d54:	66 66 66 2e 0f 1f 84 	data16 data16 cs nop WORD PTR [rax+rax*1+0x0]
  105d5b:	00 00 00 00 00 
  105d60:	0f b6 4d ff          	movzx  ecx,BYTE PTR [rbp-0x1]
  105d64:	85 c9                	test   ecx,ecx
  105d66:	74 28                	je     105d90 <_svfprintf_r+0x120>
  105d68:	83 f9 25             	cmp    ecx,0x25
  105d6b:	74 23                	je     105d90 <_svfprintf_r+0x120>
  105d6d:	48 ff c5             	inc    rbp
  105d70:	48 b9 00 00 00 00 01 	movabs rcx,0x100000000
  105d77:	00 00 00 
  105d7a:	48 01 c8             	add    rax,rcx
  105d7d:	ff cb                	dec    ebx
  105d7f:	eb df                	jmp    105d60 <_svfprintf_r+0xf0>
  105d81:	66 66 66 66 66 66 2e 	data16 data16 data16 data16 data16 cs nop WORD PTR [rax+rax*1+0x0]
  105d88:	0f 1f 84 00 00 00 00 
  105d8f:	00 
  105d90:	85 db                	test   ebx,ebx
  105d92:	74 67                	je     105dfb <_svfprintf_r+0x18b>
  105d94:	4d 89 26             	mov    QWORD PTR [r14],r12
  105d97:	48 c1 f8 20          	sar    rax,0x20
  105d9b:	49 89 46 08          	mov    QWORD PTR [r14+0x8],rax
  105d9f:	48 01 44 24 20       	add    QWORD PTR [rsp+0x20],rax
  105da4:	8b 44 24 18          	mov    eax,DWORD PTR [rsp+0x18]
  105da8:	8d 48 01             	lea    ecx,[rax+0x1]
  105dab:	89 4c 24 18          	mov    DWORD PTR [rsp+0x18],ecx
  105daf:	83 f8 07             	cmp    eax,0x7
  105db2:	7c 3c                	jl     105df0 <_svfprintf_r+0x180>
  105db4:	48 8b 7c 24 38       	mov    rdi,QWORD PTR [rsp+0x38]
  105db9:	48 8b 74 24 28       	mov    rsi,QWORD PTR [rsp+0x28]
  105dbe:	48 8d 54 24 10       	lea    rdx,[rsp+0x10]
  105dc3:	66 0f 29 54 24 70    	movapd XMMWORD PTR [rsp+0x70],xmm2
  105dc9:	e8 d2 2f 00 00       	call   108da0 <__ssprint_r>
  105dce:	66 0f 28 54 24 70    	movapd xmm2,XMMWORD PTR [rsp+0x70]
  105dd4:	4c 8d b4 24 20 01 00 	lea    r14,[rsp+0x120]
  105ddb:	00 
  105ddc:	85 c0                	test   eax,eax
  105dde:	74 14                	je     105df4 <_svfprintf_r+0x184>
  105de0:	e9 d0 1f 00 00       	jmp    107db5 <_svfprintf_r+0x2145>
  105de5:	66 66 2e 0f 1f 84 00 	data16 cs nop WORD PTR [rax+rax*1+0x0]
  105dec:	00 00 00 00 
  105df0:	49 83 c6 10          	add    r14,0x10
  105df4:	41 29 dd             	sub    r13d,ebx
  105df7:	0f b6 4d ff          	movzx  ecx,BYTE PTR [rbp-0x1]
  105dfb:	84 c9                	test   cl,cl
  105dfd:	48 8b 5c 24 28       	mov    rbx,QWORD PTR [rsp+0x28]
  105e02:	0f 84 82 1f 00 00    	je     107d8a <_svfprintf_r+0x211a>
  105e08:	c6 44 24 0b 00       	mov    BYTE PTR [rsp+0xb],0x0
  105e0d:	41 bf ff ff ff ff    	mov    r15d,0xffffffff
  105e13:	31 c0                	xor    eax,eax
  105e15:	c7 44 24 04 00 00 00 	mov    DWORD PTR [rsp+0x4],0x0
  105e1c:	00 
  105e1d:	45 31 db             	xor    r11d,r11d
  105e20:	49 89 ec             	mov    r12,rbp
  105e23:	41 0f b6 0c 24       	movzx  ecx,BYTE PTR [r12]
  105e28:	49 ff c4             	inc    r12
  105e2b:	0f be e9             	movsx  ebp,cl
  105e2e:	4c 89 5c 24 30       	mov    QWORD PTR [rsp+0x30],r11
  105e33:	83 fd 78             	cmp    ebp,0x78
  105e36:	0f 87 89 05 00 00    	ja     1063c5 <_svfprintf_r+0x755>
  105e3c:	89 e9                	mov    ecx,ebp
  105e3e:	48 8d 15 ab aa ff ff 	lea    rdx,[rip+0xffffffffffffaaab]        # 1008f0 <_svfprintf_r.blanks-0x1f0>
  105e45:	48 63 0c 8a          	movsxd rcx,DWORD PTR [rdx+rcx*4]
  105e49:	48 01 d1             	add    rcx,rdx
  105e4c:	ff e1                	jmp    rcx
  105e4e:	41 0f be 2c 24       	movsx  ebp,BYTE PTR [r12]
  105e53:	49 ff c4             	inc    r12
  105e56:	83 fd 2a             	cmp    ebp,0x2a
  105e59:	0f 84 e2 00 00 00    	je     105f41 <_svfprintf_r+0x2d1>
  105e5f:	8d 55 d0             	lea    edx,[rbp-0x30]
  105e62:	31 c9                	xor    ecx,ecx
  105e64:	83 fa 09             	cmp    edx,0x9
  105e67:	77 1d                	ja     105e86 <_svfprintf_r+0x216>
  105e69:	31 c9                	xor    ecx,ecx
  105e6b:	0f 1f 44 00 00       	nop    DWORD PTR [rax+rax*1+0x0]
  105e70:	8d 0c 89             	lea    ecx,[rcx+rcx*4]
  105e73:	8d 0c 4a             	lea    ecx,[rdx+rcx*2]
  105e76:	41 0f be 2c 24       	movsx  ebp,BYTE PTR [r12]
  105e7b:	49 ff c4             	inc    r12
  105e7e:	8d 55 d0             	lea    edx,[rbp-0x30]
  105e81:	83 fa 0a             	cmp    edx,0xa
  105e84:	72 ea                	jb     105e70 <_svfprintf_r+0x200>
  105e86:	85 c9                	test   ecx,ecx
  105e88:	41 bf ff ff ff ff    	mov    r15d,0xffffffff
  105e8e:	44 0f 49 f9          	cmovns r15d,ecx
  105e92:	83 fd 78             	cmp    ebp,0x78
  105e95:	76 a5                	jbe    105e3c <_svfprintf_r+0x1cc>
  105e97:	e9 29 05 00 00       	jmp    1063c5 <_svfprintf_r+0x755>
  105e9c:	0f 1f 40 00          	nop    DWORD PTR [rax+0x0]
  105ea0:	45 31 db             	xor    r11d,r11d
  105ea3:	66 66 66 66 2e 0f 1f 	data16 data16 data16 cs nop WORD PTR [rax+rax*1+0x0]
  105eaa:	84 00 00 00 00 00 
  105eb0:	43 8d 0c 9b          	lea    ecx,[r11+r11*4]
  105eb4:	44 8d 5c 4d d0       	lea    r11d,[rbp+rcx*2-0x30]
  105eb9:	41 0f b6 0c 24       	movzx  ecx,BYTE PTR [r12]
  105ebe:	49 ff c4             	inc    r12
  105ec1:	0f be e9             	movsx  ebp,cl
  105ec4:	8d 55 d0             	lea    edx,[rbp-0x30]
  105ec7:	83 fa 0a             	cmp    edx,0xa
  105eca:	72 e4                	jb     105eb0 <_svfprintf_r+0x240>
  105ecc:	e9 5a ff ff ff       	jmp    105e2b <_svfprintf_r+0x1bb>
  105ed1:	83 4c 24 04 10       	or     DWORD PTR [rsp+0x4],0x10
  105ed6:	e9 48 ff ff ff       	jmp    105e23 <_svfprintf_r+0x1b3>
  105edb:	84 c0                	test   al,al
  105edd:	0f 85 40 ff ff ff    	jne    105e23 <_svfprintf_r+0x1b3>
  105ee3:	c6 44 24 0b 20       	mov    BYTE PTR [rsp+0xb],0x20
  105ee8:	b0 20                	mov    al,0x20
  105eea:	e9 34 ff ff ff       	jmp    105e23 <_svfprintf_r+0x1b3>
  105eef:	83 4c 24 04 01       	or     DWORD PTR [rsp+0x4],0x1
  105ef4:	e9 2a ff ff ff       	jmp    105e23 <_svfprintf_r+0x1b3>
  105ef9:	48 8b 74 24 48       	mov    rsi,QWORD PTR [rsp+0x48]
  105efe:	8b 16                	mov    edx,DWORD PTR [rsi]
  105f00:	48 83 fa 28          	cmp    rdx,0x28
  105f04:	77 56                	ja     105f5c <_svfprintf_r+0x2ec>
  105f06:	48 89 d1             	mov    rcx,rdx
  105f09:	48 03 4e 10          	add    rcx,QWORD PTR [rsi+0x10]
  105f0d:	83 c2 08             	add    edx,0x8
  105f10:	89 16                	mov    DWORD PTR [rsi],edx
  105f12:	eb 57                	jmp    105f6b <_svfprintf_r+0x2fb>
  105f14:	c6 44 24 0b 2b       	mov    BYTE PTR [rsp+0xb],0x2b
  105f19:	b0 2b                	mov    al,0x2b
  105f1b:	e9 03 ff ff ff       	jmp    105e23 <_svfprintf_r+0x1b3>
  105f20:	81 4c 24 04 80 00 00 	or     DWORD PTR [rsp+0x4],0x80
  105f27:	00 
  105f28:	e9 f6 fe ff ff       	jmp    105e23 <_svfprintf_r+0x1b3>
  105f2d:	83 4c 24 04 08       	or     DWORD PTR [rsp+0x4],0x8
  105f32:	e9 ec fe ff ff       	jmp    105e23 <_svfprintf_r+0x1b3>
  105f37:	83 4c 24 04 40       	or     DWORD PTR [rsp+0x4],0x40
  105f3c:	e9 e2 fe ff ff       	jmp    105e23 <_svfprintf_r+0x1b3>
  105f41:	48 8b 74 24 48       	mov    rsi,QWORD PTR [rsp+0x48]
  105f46:	8b 16                	mov    edx,DWORD PTR [rsi]
  105f48:	48 83 fa 28          	cmp    rdx,0x28
  105f4c:	77 36                	ja     105f84 <_svfprintf_r+0x314>
  105f4e:	48 89 d1             	mov    rcx,rdx
  105f51:	48 03 4e 10          	add    rcx,QWORD PTR [rsi+0x10]
  105f55:	83 c2 08             	add    edx,0x8
  105f58:	89 16                	mov    DWORD PTR [rsi],edx
  105f5a:	eb 37                	jmp    105f93 <_svfprintf_r+0x323>
  105f5c:	48 8b 74 24 50       	mov    rsi,QWORD PTR [rsp+0x50]
  105f61:	48 8b 0e             	mov    rcx,QWORD PTR [rsi]
  105f64:	48 8d 51 08          	lea    rdx,[rcx+0x8]
  105f68:	48 89 16             	mov    QWORD PTR [rsi],rdx
  105f6b:	44 8b 19             	mov    r11d,DWORD PTR [rcx]
  105f6e:	45 85 db             	test   r11d,r11d
  105f71:	0f 89 ac fe ff ff    	jns    105e23 <_svfprintf_r+0x1b3>
  105f77:	41 f7 db             	neg    r11d
  105f7a:	83 4c 24 04 04       	or     DWORD PTR [rsp+0x4],0x4
  105f7f:	e9 9f fe ff ff       	jmp    105e23 <_svfprintf_r+0x1b3>
  105f84:	48 8b 74 24 50       	mov    rsi,QWORD PTR [rsp+0x50]
  105f89:	48 8b 0e             	mov    rcx,QWORD PTR [rsi]
  105f8c:	48 8d 51 08          	lea    rdx,[rcx+0x8]
  105f90:	48 89 16             	mov    QWORD PTR [rsi],rdx
  105f93:	8b 09                	mov    ecx,DWORD PTR [rcx]
  105f95:	85 c9                	test   ecx,ecx
  105f97:	41 bf ff ff ff ff    	mov    r15d,0xffffffff
  105f9d:	44 0f 49 f9          	cmovns r15d,ecx
  105fa1:	e9 7d fe ff ff       	jmp    105e23 <_svfprintf_r+0x1b3>
  105fa6:	8b 44 24 04          	mov    eax,DWORD PTR [rsp+0x4]
  105faa:	a8 10                	test   al,0x10
  105fac:	75 1f                	jne    105fcd <_svfprintf_r+0x35d>
  105fae:	a8 40                	test   al,0x40
  105fb0:	75 36                	jne    105fe8 <_svfprintf_r+0x378>
  105fb2:	48 8b 54 24 48       	mov    rdx,QWORD PTR [rsp+0x48]
  105fb7:	8b 0a                	mov    ecx,DWORD PTR [rdx]
  105fb9:	48 83 f9 28          	cmp    rcx,0x28
  105fbd:	77 61                	ja     106020 <_svfprintf_r+0x3b0>
  105fbf:	48 89 c8             	mov    rax,rcx
  105fc2:	48 03 42 10          	add    rax,QWORD PTR [rdx+0x10]
  105fc6:	83 c1 08             	add    ecx,0x8
  105fc9:	89 0a                	mov    DWORD PTR [rdx],ecx
  105fcb:	eb 62                	jmp    10602f <_svfprintf_r+0x3bf>
  105fcd:	48 8b 54 24 48       	mov    rdx,QWORD PTR [rsp+0x48]
  105fd2:	8b 0a                	mov    ecx,DWORD PTR [rdx]
  105fd4:	48 83 f9 28          	cmp    rcx,0x28
  105fd8:	77 29                	ja     106003 <_svfprintf_r+0x393>
  105fda:	48 89 c8             	mov    rax,rcx
  105fdd:	48 03 42 10          	add    rax,QWORD PTR [rdx+0x10]
  105fe1:	83 c1 08             	add    ecx,0x8
  105fe4:	89 0a                	mov    DWORD PTR [rdx],ecx
  105fe6:	eb 2a                	jmp    106012 <_svfprintf_r+0x3a2>
  105fe8:	48 8b 54 24 48       	mov    rdx,QWORD PTR [rsp+0x48]
  105fed:	8b 0a                	mov    ecx,DWORD PTR [rdx]
  105fef:	48 83 f9 28          	cmp    rcx,0x28
  105ff3:	77 45                	ja     10603a <_svfprintf_r+0x3ca>
  105ff5:	48 89 c8             	mov    rax,rcx
  105ff8:	48 03 42 10          	add    rax,QWORD PTR [rdx+0x10]
  105ffc:	83 c1 08             	add    ecx,0x8
  105fff:	89 0a                	mov    DWORD PTR [rdx],ecx
  106001:	eb 46                	jmp    106049 <_svfprintf_r+0x3d9>
  106003:	48 8b 54 24 50       	mov    rdx,QWORD PTR [rsp+0x50]
  106008:	48 8b 02             	mov    rax,QWORD PTR [rdx]
  10600b:	48 8d 48 08          	lea    rcx,[rax+0x8]
  10600f:	48 89 0a             	mov    QWORD PTR [rdx],rcx
  106012:	49 63 cd             	movsxd rcx,r13d
  106015:	48 8b 00             	mov    rax,QWORD PTR [rax]
  106018:	48 89 08             	mov    QWORD PTR [rax],rcx
  10601b:	e9 2b fd ff ff       	jmp    105d4b <_svfprintf_r+0xdb>
  106020:	48 8b 54 24 50       	mov    rdx,QWORD PTR [rsp+0x50]
  106025:	48 8b 02             	mov    rax,QWORD PTR [rdx]
  106028:	48 8d 48 08          	lea    rcx,[rax+0x8]
  10602c:	48 89 0a             	mov    QWORD PTR [rdx],rcx
  10602f:	48 8b 00             	mov    rax,QWORD PTR [rax]
  106032:	44 89 28             	mov    DWORD PTR [rax],r13d
  106035:	e9 11 fd ff ff       	jmp    105d4b <_svfprintf_r+0xdb>
  10603a:	48 8b 54 24 50       	mov    rdx,QWORD PTR [rsp+0x50]
  10603f:	48 8b 02             	mov    rax,QWORD PTR [rdx]
  106042:	48 8d 48 08          	lea    rcx,[rax+0x8]
  106046:	48 89 0a             	mov    QWORD PTR [rdx],rcx
  106049:	48 8b 00             	mov    rax,QWORD PTR [rax]
  10604c:	66 44 89 28          	mov    WORD PTR [rax],r13w
  106050:	e9 f6 fc ff ff       	jmp    105d4b <_svfprintf_r+0xdb>
  106055:	66 66 2e 0f 1f 84 00 	data16 cs nop WORD PTR [rax+rax*1+0x0]
  10605c:	00 00 00 00 
  106060:	f6 44 24 04 08       	test   BYTE PTR [rsp+0x4],0x8
  106065:	75 20                	jne    106087 <_svfprintf_r+0x417>
  106067:	48 8b 54 24 48       	mov    rdx,QWORD PTR [rsp+0x48]
  10606c:	8b 4a 04             	mov    ecx,DWORD PTR [rdx+0x4]
  10606f:	48 81 f9 a0 00 00 00 	cmp    rcx,0xa0
  106076:	77 43                	ja     1060bb <_svfprintf_r+0x44b>
  106078:	48 89 c8             	mov    rax,rcx
  10607b:	48 03 42 10          	add    rax,QWORD PTR [rdx+0x10]
  10607f:	83 c1 10             	add    ecx,0x10
  106082:	89 4a 04             	mov    DWORD PTR [rdx+0x4],ecx
  106085:	eb 43                	jmp    1060ca <_svfprintf_r+0x45a>
  106087:	48 8b 54 24 50       	mov    rdx,QWORD PTR [rsp+0x50]
  10608c:	48 8b 02             	mov    rax,QWORD PTR [rdx]
  10608f:	48 83 c0 0f          	add    rax,0xf
  106093:	48 83 e0 f0          	and    rax,0xfffffffffffffff0
  106097:	48 8d 48 10          	lea    rcx,[rax+0x10]
  10609b:	48 89 0a             	mov    QWORD PTR [rdx],rcx
  10609e:	db 28                	fld    TBYTE PTR [rax]
  1060a0:	dd 9c 24 10 01 00 00 	fstp   QWORD PTR [rsp+0x110]
  1060a7:	f2 0f 10 84 24 10 01 	movsd  xmm0,QWORD PTR [rsp+0x110]
  1060ae:	00 00 
  1060b0:	eb 1c                	jmp    1060ce <_svfprintf_r+0x45e>
  1060b2:	8b 4c 24 04          	mov    ecx,DWORD PTR [rsp+0x4]
  1060b6:	e9 51 01 00 00       	jmp    10620c <_svfprintf_r+0x59c>
  1060bb:	48 8b 54 24 50       	mov    rdx,QWORD PTR [rsp+0x50]
  1060c0:	48 8b 02             	mov    rax,QWORD PTR [rdx]
  1060c3:	48 8d 48 08          	lea    rcx,[rax+0x8]
  1060c7:	48 89 0a             	mov    QWORD PTR [rdx],rcx
  1060ca:	f2 0f 10 00          	movsd  xmm0,QWORD PTR [rax]
  1060ce:	66 0f 29 44 24 70    	movapd XMMWORD PTR [rsp+0x70],xmm0
  1060d4:	e8 47 4d 00 00       	call   10ae20 <__fpclassifyd>
  1060d9:	83 f8 01             	cmp    eax,0x1
  1060dc:	44 89 6c 24 0c       	mov    DWORD PTR [rsp+0xc],r13d
  1060e1:	75 50                	jne    106133 <_svfprintf_r+0x4c3>
  1060e3:	66 0f 57 c0          	xorpd  xmm0,xmm0
  1060e7:	66 0f 28 54 24 70    	movapd xmm2,XMMWORD PTR [rsp+0x70]
  1060ed:	66 0f 2e c2          	ucomisd xmm0,xmm2
  1060f1:	4c 8b 5c 24 30       	mov    r11,QWORD PTR [rsp+0x30]
  1060f6:	8b 4c 24 04          	mov    ecx,DWORD PTR [rsp+0x4]
  1060fa:	76 05                	jbe    106101 <_svfprintf_r+0x491>
  1060fc:	c6 44 24 0b 2d       	mov    BYTE PTR [rsp+0xb],0x2d
  106101:	83 fd 48             	cmp    ebp,0x48
  106104:	48 8d 05 e7 a6 ff ff 	lea    rax,[rip+0xffffffffffffa6e7]        # 1007f2 <_svfprintf_r.blanks-0x2ee>
  10610b:	4c 8d 2d 9f a2 ff ff 	lea    r13,[rip+0xffffffffffffa29f]        # 1003b1 <_svfprintf_r.blanks-0x72f>
  106112:	4c 0f 42 e8          	cmovb  r13,rax
  106116:	81 e1 7f ff ff ff    	and    ecx,0xffffff7f
  10611c:	ba 03 00 00 00       	mov    edx,0x3
  106121:	31 c0                	xor    eax,eax
  106123:	48 89 84 24 88 00 00 	mov    QWORD PTR [rsp+0x88],rax
  10612a:	00 
  10612b:	45 31 ff             	xor    r15d,r15d
  10612e:	e9 1d 0c 00 00       	jmp    106d50 <_svfprintf_r+0x10e0>
  106133:	66 0f 28 44 24 70    	movapd xmm0,XMMWORD PTR [rsp+0x70]
  106139:	e8 e2 4c 00 00       	call   10ae20 <__fpclassifyd>
  10613e:	85 c0                	test   eax,eax
  106140:	0f 84 0e 03 00 00    	je     106454 <_svfprintf_r+0x7e4>
  106146:	89 eb                	mov    ebx,ebp
  106148:	83 e3 df             	and    ebx,0xffffffdf
  10614b:	89 d8                	mov    eax,ebx
  10614d:	83 f0 47             	xor    eax,0x47
  106150:	44 09 f8             	or     eax,r15d
  106153:	b8 01 00 00 00       	mov    eax,0x1
  106158:	41 0f 45 c7          	cmovne eax,r15d
  10615c:	41 83 ff ff          	cmp    r15d,0xffffffff
  106160:	b9 06 00 00 00       	mov    ecx,0x6
  106165:	0f 45 c8             	cmovne ecx,eax
  106168:	66 0f 6f 4c 24 70    	movdqa xmm1,XMMWORD PTR [rsp+0x70]
  10616e:	66 48 0f 7e c8       	movq   rax,xmm1
  106173:	66 0f 6f c1          	movdqa xmm0,xmm1
  106177:	48 89 44 24 58       	mov    QWORD PTR [rsp+0x58],rax
  10617c:	48 85 c0             	test   rax,rax
  10617f:	79 0c                	jns    10618d <_svfprintf_r+0x51d>
  106181:	66 0f 6f 05 47 a7 ff 	movdqa xmm0,XMMWORD PTR [rip+0xffffffffffffa747]        # 1008d0 <_svfprintf_r.blanks-0x210>
  106188:	ff 
  106189:	66 0f ef c1          	pxor   xmm0,xmm1
  10618d:	31 f6                	xor    esi,esi
  10618f:	83 fb 46             	cmp    ebx,0x46
  106192:	40 0f 94 c6          	sete   sil
  106196:	31 d2                	xor    edx,edx
  106198:	83 fb 45             	cmp    ebx,0x45
  10619b:	0f 94 c2             	sete   dl
  10619e:	83 ce 02             	or     esi,0x2
  1061a1:	48 89 8c 24 a8 00 00 	mov    QWORD PTR [rsp+0xa8],rcx
  1061a8:	00 
  1061a9:	01 ca                	add    edx,ecx
  1061ab:	48 8d 4c 24 44       	lea    rcx,[rsp+0x44]
  1061b0:	4c 8d 84 24 1c 01 00 	lea    r8,[rsp+0x11c]
  1061b7:	00 
  1061b8:	4c 8d 8c 24 98 00 00 	lea    r9,[rsp+0x98]
  1061bf:	00 
  1061c0:	48 8b 7c 24 38       	mov    rdi,QWORD PTR [rsp+0x38]
  1061c5:	66 0f 7f 84 24 00 01 	movdqa XMMWORD PTR [rsp+0x100],xmm0
  1061cc:	00 00 
  1061ce:	41 89 d7             	mov    r15d,edx
  1061d1:	e8 aa 4c 00 00       	call   10ae80 <_dtoa_r>
  1061d6:	49 89 c5             	mov    r13,rax
  1061d9:	f6 44 24 04 01       	test   BYTE PTR [rsp+0x4],0x1
  1061de:	0f 85 b1 02 00 00    	jne    106495 <_svfprintf_r+0x825>
  1061e4:	83 fb 47             	cmp    ebx,0x47
  1061e7:	0f 85 a8 02 00 00    	jne    106495 <_svfprintf_r+0x825>
  1061ed:	4c 8b 94 24 98 00 00 	mov    r10,QWORD PTR [rsp+0x98]
  1061f4:	00 
  1061f5:	66 0f 28 54 24 70    	movapd xmm2,XMMWORD PTR [rsp+0x70]
  1061fb:	4c 8b 5c 24 30       	mov    r11,QWORD PTR [rsp+0x30]
  106200:	e9 18 08 00 00       	jmp    106a1d <_svfprintf_r+0xdad>
  106205:	8b 4c 24 04          	mov    ecx,DWORD PTR [rsp+0x4]
  106209:	83 c9 10             	or     ecx,0x10
  10620c:	f6 c1 10             	test   cl,0x10
  10620f:	89 4c 24 04          	mov    DWORD PTR [rsp+0x4],ecx
  106213:	75 2f                	jne    106244 <_svfprintf_r+0x5d4>
  106215:	48 8b 44 24 48       	mov    rax,QWORD PTR [rsp+0x48]
  10621a:	8b 00                	mov    eax,DWORD PTR [rax]
  10621c:	f6 c1 40             	test   cl,0x40
  10621f:	0f 85 c2 02 00 00    	jne    1064e7 <_svfprintf_r+0x877>
  106225:	83 f8 28             	cmp    eax,0x28
  106228:	0f 87 88 04 00 00    	ja     1066b6 <_svfprintf_r+0xa46>
  10622e:	48 89 c1             	mov    rcx,rax
  106231:	48 8b 54 24 48       	mov    rdx,QWORD PTR [rsp+0x48]
  106236:	48 03 4a 10          	add    rcx,QWORD PTR [rdx+0x10]
  10623a:	83 c0 08             	add    eax,0x8
  10623d:	89 02                	mov    DWORD PTR [rdx],eax
  10623f:	e9 81 04 00 00       	jmp    1066c5 <_svfprintf_r+0xa55>
  106244:	48 8b 54 24 48       	mov    rdx,QWORD PTR [rsp+0x48]
  106249:	8b 02                	mov    eax,DWORD PTR [rdx]
  10624b:	48 83 f8 28          	cmp    rax,0x28
  10624f:	0f 87 b5 02 00 00    	ja     10650a <_svfprintf_r+0x89a>
  106255:	48 89 c1             	mov    rcx,rax
  106258:	48 03 4a 10          	add    rcx,QWORD PTR [rdx+0x10]
  10625c:	83 c0 08             	add    eax,0x8
  10625f:	89 02                	mov    DWORD PTR [rdx],eax
  106261:	48 8b 09             	mov    rcx,QWORD PTR [rcx]
  106264:	e9 74 04 00 00       	jmp    1066dd <_svfprintf_r+0xa6d>
  106269:	8b 4c 24 04          	mov    ecx,DWORD PTR [rsp+0x4]
  10626d:	83 c9 10             	or     ecx,0x10
  106270:	eb 43                	jmp    1062b5 <_svfprintf_r+0x645>
  106272:	8b 4c 24 04          	mov    ecx,DWORD PTR [rsp+0x4]
  106276:	83 c9 10             	or     ecx,0x10
  106279:	e9 c0 00 00 00       	jmp    10633e <_svfprintf_r+0x6ce>
  10627e:	48 8d 0d 5e a4 ff ff 	lea    rcx,[rip+0xffffffffffffa45e]        # 1006e3 <_svfprintf_r.blanks-0x3fd>
  106285:	e9 f7 00 00 00       	jmp    106381 <_svfprintf_r+0x711>
  10628a:	48 8b 54 24 48       	mov    rdx,QWORD PTR [rsp+0x48]
  10628f:	8b 0a                	mov    ecx,DWORD PTR [rdx]
  106291:	48 83 f9 28          	cmp    rcx,0x28
  106295:	44 89 6c 24 0c       	mov    DWORD PTR [rsp+0xc],r13d
  10629a:	0f 87 81 02 00 00    	ja     106521 <_svfprintf_r+0x8b1>
  1062a0:	48 89 c8             	mov    rax,rcx
  1062a3:	48 03 42 10          	add    rax,QWORD PTR [rdx+0x10]
  1062a7:	83 c1 08             	add    ecx,0x8
  1062aa:	89 0a                	mov    DWORD PTR [rdx],ecx
  1062ac:	e9 7f 02 00 00       	jmp    106530 <_svfprintf_r+0x8c0>
  1062b1:	8b 4c 24 04          	mov    ecx,DWORD PTR [rsp+0x4]
  1062b5:	f6 c1 10             	test   cl,0x10
  1062b8:	89 4c 24 04          	mov    DWORD PTR [rsp+0x4],ecx
  1062bc:	0f 85 29 01 00 00    	jne    1063eb <_svfprintf_r+0x77b>
  1062c2:	48 8b 44 24 48       	mov    rax,QWORD PTR [rsp+0x48]
  1062c7:	8b 00                	mov    eax,DWORD PTR [rax]
  1062c9:	f6 c1 40             	test   cl,0x40
  1062cc:	0f 85 91 02 00 00    	jne    106563 <_svfprintf_r+0x8f3>
  1062d2:	83 f8 28             	cmp    eax,0x28
  1062d5:	0f 87 56 04 00 00    	ja     106731 <_svfprintf_r+0xac1>
  1062db:	48 89 c1             	mov    rcx,rax
  1062de:	48 8b 54 24 48       	mov    rdx,QWORD PTR [rsp+0x48]
  1062e3:	48 03 4a 10          	add    rcx,QWORD PTR [rdx+0x10]
  1062e7:	83 c0 08             	add    eax,0x8
  1062ea:	89 02                	mov    DWORD PTR [rdx],eax
  1062ec:	e9 4f 04 00 00       	jmp    106740 <_svfprintf_r+0xad0>
  1062f1:	48 8b 54 24 48       	mov    rdx,QWORD PTR [rsp+0x48]
  1062f6:	8b 0a                	mov    ecx,DWORD PTR [rdx]
  1062f8:	48 83 f9 28          	cmp    rcx,0x28
  1062fc:	0f 87 80 02 00 00    	ja     106582 <_svfprintf_r+0x912>
  106302:	48 89 c8             	mov    rax,rcx
  106305:	48 03 42 10          	add    rax,QWORD PTR [rdx+0x10]
  106309:	83 c1 08             	add    ecx,0x8
  10630c:	89 0a                	mov    DWORD PTR [rdx],ecx
  10630e:	e9 7e 02 00 00       	jmp    106591 <_svfprintf_r+0x921>
  106313:	48 8b 54 24 48       	mov    rdx,QWORD PTR [rsp+0x48]
  106318:	8b 0a                	mov    ecx,DWORD PTR [rdx]
  10631a:	48 83 f9 28          	cmp    rcx,0x28
  10631e:	44 89 6c 24 0c       	mov    DWORD PTR [rsp+0xc],r13d
  106323:	0f 87 92 02 00 00    	ja     1065bb <_svfprintf_r+0x94b>
  106329:	48 89 c8             	mov    rax,rcx
  10632c:	48 03 42 10          	add    rax,QWORD PTR [rdx+0x10]
  106330:	83 c1 08             	add    ecx,0x8
  106333:	89 0a                	mov    DWORD PTR [rdx],ecx
  106335:	e9 90 02 00 00       	jmp    1065ca <_svfprintf_r+0x95a>
  10633a:	8b 4c 24 04          	mov    ecx,DWORD PTR [rsp+0x4]
  10633e:	f6 c1 10             	test   cl,0x10
  106341:	89 4c 24 04          	mov    DWORD PTR [rsp+0x4],ecx
  106345:	0f 85 c2 00 00 00    	jne    10640d <_svfprintf_r+0x79d>
  10634b:	48 8b 44 24 48       	mov    rax,QWORD PTR [rsp+0x48]
  106350:	8b 00                	mov    eax,DWORD PTR [rax]
  106352:	f6 c1 40             	test   cl,0x40
  106355:	0f 85 bb 02 00 00    	jne    106616 <_svfprintf_r+0x9a6>
  10635b:	83 f8 28             	cmp    eax,0x28
  10635e:	0f 87 e5 03 00 00    	ja     106749 <_svfprintf_r+0xad9>
  106364:	48 89 c1             	mov    rcx,rax
  106367:	48 8b 54 24 48       	mov    rdx,QWORD PTR [rsp+0x48]
  10636c:	48 03 4a 10          	add    rcx,QWORD PTR [rdx+0x10]
  106370:	83 c0 08             	add    eax,0x8
  106373:	89 02                	mov    DWORD PTR [rdx],eax
  106375:	e9 de 03 00 00       	jmp    106758 <_svfprintf_r+0xae8>
  10637a:	48 8d 0d cf 9f ff ff 	lea    rcx,[rip+0xffffffffffff9fcf]        # 100350 <_svfprintf_r.blanks-0x790>
  106381:	8b 54 24 04          	mov    edx,DWORD PTR [rsp+0x4]
  106385:	f6 c2 10             	test   dl,0x10
  106388:	48 89 8c 24 b8 00 00 	mov    QWORD PTR [rsp+0xb8],rcx
  10638f:	00 
  106390:	0f 85 99 00 00 00    	jne    10642f <_svfprintf_r+0x7bf>
  106396:	48 8b 44 24 48       	mov    rax,QWORD PTR [rsp+0x48]
  10639b:	8b 00                	mov    eax,DWORD PTR [rax]
  10639d:	f6 c2 40             	test   dl,0x40
  1063a0:	0f 85 8f 02 00 00    	jne    106635 <_svfprintf_r+0x9c5>
  1063a6:	83 f8 28             	cmp    eax,0x28
  1063a9:	0f 87 af 03 00 00    	ja     10675e <_svfprintf_r+0xaee>
  1063af:	48 89 c1             	mov    rcx,rax
  1063b2:	48 8b 54 24 48       	mov    rdx,QWORD PTR [rsp+0x48]
  1063b7:	48 03 4a 10          	add    rcx,QWORD PTR [rdx+0x10]
  1063bb:	83 c0 08             	add    eax,0x8
  1063be:	89 02                	mov    DWORD PTR [rdx],eax
  1063c0:	e9 a8 03 00 00       	jmp    10676d <_svfprintf_r+0xafd>
  1063c5:	44 89 6c 24 0c       	mov    DWORD PTR [rsp+0xc],r13d
  1063ca:	40 88 ac 24 d0 00 00 	mov    BYTE PTR [rsp+0xd0],bpl
  1063d1:	00 
  1063d2:	c6 44 24 0b 00       	mov    BYTE PTR [rsp+0xb],0x0
  1063d7:	ba 01 00 00 00       	mov    edx,0x1
  1063dc:	31 c0                	xor    eax,eax
  1063de:	48 89 84 24 88 00 00 	mov    QWORD PTR [rsp+0x88],rax
  1063e5:	00 
  1063e6:	e9 68 01 00 00       	jmp    106553 <_svfprintf_r+0x8e3>
  1063eb:	48 8b 54 24 48       	mov    rdx,QWORD PTR [rsp+0x48]
  1063f0:	8b 0a                	mov    ecx,DWORD PTR [rdx]
  1063f2:	48 83 f9 28          	cmp    rcx,0x28
  1063f6:	0f 87 58 02 00 00    	ja     106654 <_svfprintf_r+0x9e4>
  1063fc:	48 89 c8             	mov    rax,rcx
  1063ff:	48 03 42 10          	add    rax,QWORD PTR [rdx+0x10]
  106403:	83 c1 08             	add    ecx,0x8
  106406:	89 0a                	mov    DWORD PTR [rdx],ecx
  106408:	e9 56 02 00 00       	jmp    106663 <_svfprintf_r+0x9f3>
  10640d:	48 8b 54 24 48       	mov    rdx,QWORD PTR [rsp+0x48]
  106412:	8b 0a                	mov    ecx,DWORD PTR [rdx]
  106414:	48 83 f9 28          	cmp    rcx,0x28
  106418:	0f 87 4f 02 00 00    	ja     10666d <_svfprintf_r+0x9fd>
  10641e:	48 89 c8             	mov    rax,rcx
  106421:	48 03 42 10          	add    rax,QWORD PTR [rdx+0x10]
  106425:	83 c1 08             	add    ecx,0x8
  106428:	89 0a                	mov    DWORD PTR [rdx],ecx
  10642a:	e9 4d 02 00 00       	jmp    10667c <_svfprintf_r+0xa0c>
  10642f:	48 8b 54 24 48       	mov    rdx,QWORD PTR [rsp+0x48]
  106434:	8b 02                	mov    eax,DWORD PTR [rdx]
  106436:	48 83 f8 28          	cmp    rax,0x28
  10643a:	0f 87 46 02 00 00    	ja     106686 <_svfprintf_r+0xa16>
  106440:	48 89 c1             	mov    rcx,rax
  106443:	48 03 4a 10          	add    rcx,QWORD PTR [rdx+0x10]
  106447:	83 c0 08             	add    eax,0x8
  10644a:	89 02                	mov    DWORD PTR [rdx],eax
  10644c:	48 8b 09             	mov    rcx,QWORD PTR [rcx]
  10644f:	e9 5b 03 00 00       	jmp    1067af <_svfprintf_r+0xb3f>
  106454:	83 fd 48             	cmp    ebp,0x48
  106457:	48 8d 05 78 a3 ff ff 	lea    rax,[rip+0xffffffffffffa378]        # 1007d6 <_svfprintf_r.blanks-0x30a>
  10645e:	4c 8d 2d e7 9e ff ff 	lea    r13,[rip+0xffffffffffff9ee7]        # 10034c <_svfprintf_r.blanks-0x794>
  106465:	4c 0f 42 e8          	cmovb  r13,rax
  106469:	8b 4c 24 04          	mov    ecx,DWORD PTR [rsp+0x4]
  10646d:	81 e1 7f ff ff ff    	and    ecx,0xffffff7f
  106473:	ba 03 00 00 00       	mov    edx,0x3
  106478:	31 c0                	xor    eax,eax
  10647a:	48 89 84 24 88 00 00 	mov    QWORD PTR [rsp+0x88],rax
  106481:	00 
  106482:	45 31 ff             	xor    r15d,r15d
  106485:	66 0f 28 54 24 70    	movapd xmm2,XMMWORD PTR [rsp+0x70]
  10648b:	4c 8b 5c 24 30       	mov    r11,QWORD PTR [rsp+0x30]
  106490:	e9 bb 08 00 00       	jmp    106d50 <_svfprintf_r+0x10e0>
  106495:	49 63 cf             	movsxd rcx,r15d
  106498:	4c 89 e8             	mov    rax,r13
  10649b:	48 01 c8             	add    rax,rcx
  10649e:	83 fb 46             	cmp    ebx,0x46
  1064a1:	0f 85 f6 01 00 00    	jne    10669d <_svfprintf_r+0xa2d>
  1064a7:	66 0f ef c0          	pxor   xmm0,xmm0
  1064ab:	66 0f 28 8c 24 00 01 	movapd xmm1,XMMWORD PTR [rsp+0x100]
  1064b2:	00 00 
  1064b4:	66 0f 2e c8          	ucomisd xmm1,xmm0
  1064b8:	66 0f 28 54 24 70    	movapd xmm2,XMMWORD PTR [rsp+0x70]
  1064be:	4c 8b 5c 24 30       	mov    r11,QWORD PTR [rsp+0x30]
  1064c3:	75 06                	jne    1064cb <_svfprintf_r+0x85b>
  1064c5:	0f 8b 19 05 00 00    	jnp    1069e4 <_svfprintf_r+0xd74>
  1064cb:	41 80 7d 00 30       	cmp    BYTE PTR [r13+0x0],0x30
  1064d0:	0f 85 0e 05 00 00    	jne    1069e4 <_svfprintf_r+0xd74>
  1064d6:	b9 01 00 00 00       	mov    ecx,0x1
  1064db:	44 29 f9             	sub    ecx,r15d
  1064de:	89 4c 24 44          	mov    DWORD PTR [rsp+0x44],ecx
  1064e2:	e9 01 05 00 00       	jmp    1069e8 <_svfprintf_r+0xd78>
  1064e7:	83 f8 28             	cmp    eax,0x28
  1064ea:	0f 87 da 01 00 00    	ja     1066ca <_svfprintf_r+0xa5a>
  1064f0:	48 8b 54 24 48       	mov    rdx,QWORD PTR [rsp+0x48]
  1064f5:	48 8b 4a 10          	mov    rcx,QWORD PTR [rdx+0x10]
  1064f9:	48 01 c1             	add    rcx,rax
  1064fc:	83 c0 08             	add    eax,0x8
  1064ff:	89 02                	mov    DWORD PTR [rdx],eax
  106501:	48 0f bf 09          	movsx  rcx,WORD PTR [rcx]
  106505:	e9 d3 01 00 00       	jmp    1066dd <_svfprintf_r+0xa6d>
  10650a:	48 8b 54 24 50       	mov    rdx,QWORD PTR [rsp+0x50]
  10650f:	48 8b 02             	mov    rax,QWORD PTR [rdx]
  106512:	48 8d 48 08          	lea    rcx,[rax+0x8]
  106516:	48 89 0a             	mov    QWORD PTR [rdx],rcx
  106519:	48 8b 08             	mov    rcx,QWORD PTR [rax]
  10651c:	e9 bc 01 00 00       	jmp    1066dd <_svfprintf_r+0xa6d>
  106521:	48 8b 54 24 50       	mov    rdx,QWORD PTR [rsp+0x50]
  106526:	48 8b 02             	mov    rax,QWORD PTR [rdx]
  106529:	48 8d 48 08          	lea    rcx,[rax+0x8]
  10652d:	48 89 0a             	mov    QWORD PTR [rdx],rcx
  106530:	0f b6 00             	movzx  eax,BYTE PTR [rax]
  106533:	88 84 24 d0 00 00 00 	mov    BYTE PTR [rsp+0xd0],al
  10653a:	c6 44 24 0b 00       	mov    BYTE PTR [rsp+0xb],0x0
  10653f:	ba 01 00 00 00       	mov    edx,0x1
  106544:	31 c0                	xor    eax,eax
  106546:	48 89 84 24 88 00 00 	mov    QWORD PTR [rsp+0x88],rax
  10654d:	00 
  10654e:	bd 63 00 00 00       	mov    ebp,0x63
  106553:	4c 8d ac 24 d0 00 00 	lea    r13,[rsp+0xd0]
  10655a:	00 
  10655b:	45 31 ff             	xor    r15d,r15d
  10655e:	e9 78 04 00 00       	jmp    1069db <_svfprintf_r+0xd6b>
  106563:	83 f8 28             	cmp    eax,0x28
  106566:	0f 87 05 02 00 00    	ja     106771 <_svfprintf_r+0xb01>
  10656c:	48 8b 54 24 48       	mov    rdx,QWORD PTR [rsp+0x48]
  106571:	48 8b 4a 10          	mov    rcx,QWORD PTR [rdx+0x10]
  106575:	48 01 c1             	add    rcx,rax
  106578:	83 c0 08             	add    eax,0x8
  10657b:	89 02                	mov    DWORD PTR [rdx],eax
  10657d:	e9 fe 01 00 00       	jmp    106780 <_svfprintf_r+0xb10>
  106582:	48 8b 54 24 50       	mov    rdx,QWORD PTR [rsp+0x50]
  106587:	48 8b 02             	mov    rax,QWORD PTR [rdx]
  10658a:	48 8d 48 08          	lea    rcx,[rax+0x8]
  10658e:	48 89 0a             	mov    QWORD PTR [rdx],rcx
  106591:	48 8b 08             	mov    rcx,QWORD PTR [rax]
  106594:	83 4c 24 04 02       	or     DWORD PTR [rsp+0x4],0x2
  106599:	66 c7 44 24 6e 30 78 	mov    WORD PTR [rsp+0x6e],0x7830
  1065a0:	48 8d 05 a9 9d ff ff 	lea    rax,[rip+0xffffffffffff9da9]        # 100350 <_svfprintf_r.blanks-0x790>
  1065a7:	48 89 84 24 b8 00 00 	mov    QWORD PTR [rsp+0xb8],rax
  1065ae:	00 
  1065af:	b0 02                	mov    al,0x2
  1065b1:	bd 78 00 00 00       	mov    ebp,0x78
  1065b6:	e9 15 02 00 00       	jmp    1067d0 <_svfprintf_r+0xb60>
  1065bb:	48 8b 54 24 50       	mov    rdx,QWORD PTR [rsp+0x50]
  1065c0:	48 8b 02             	mov    rax,QWORD PTR [rdx]
  1065c3:	48 8d 48 08          	lea    rcx,[rax+0x8]
  1065c7:	48 89 0a             	mov    QWORD PTR [rdx],rcx
  1065ca:	4c 8b 28             	mov    r13,QWORD PTR [rax]
  1065cd:	c6 44 24 0b 00       	mov    BYTE PTR [rsp+0xb],0x0
  1065d2:	4d 85 ed             	test   r13,r13
  1065d5:	8b 4c 24 04          	mov    ecx,DWORD PTR [rsp+0x4]
  1065d9:	0f 84 27 01 00 00    	je     106706 <_svfprintf_r+0xa96>
  1065df:	66 0f 29 54 24 70    	movapd XMMWORD PTR [rsp+0x70],xmm2
  1065e5:	45 85 ff             	test   r15d,r15d
  1065e8:	0f 88 c5 03 00 00    	js     1069b3 <_svfprintf_r+0xd43>
  1065ee:	44 89 fa             	mov    edx,r15d
  1065f1:	31 c0                	xor    eax,eax
  1065f3:	48 89 84 24 88 00 00 	mov    QWORD PTR [rsp+0x88],rax
  1065fa:	00 
  1065fb:	4c 89 ef             	mov    rdi,r13
  1065fe:	31 f6                	xor    esi,esi
  106600:	e8 9b 46 00 00       	call   10aca0 <memchr>
  106605:	89 c2                	mov    edx,eax
  106607:	44 29 ea             	sub    edx,r13d
  10660a:	48 85 c0             	test   rax,rax
  10660d:	41 0f 44 d7          	cmove  edx,r15d
  106611:	e9 b2 03 00 00       	jmp    1069c8 <_svfprintf_r+0xd58>
  106616:	83 f8 28             	cmp    eax,0x28
  106619:	0f 87 68 01 00 00    	ja     106787 <_svfprintf_r+0xb17>
  10661f:	48 8b 54 24 48       	mov    rdx,QWORD PTR [rsp+0x48]
  106624:	48 8b 4a 10          	mov    rcx,QWORD PTR [rdx+0x10]
  106628:	48 01 c1             	add    rcx,rax
  10662b:	83 c0 08             	add    eax,0x8
  10662e:	89 02                	mov    DWORD PTR [rdx],eax
  106630:	e9 61 01 00 00       	jmp    106796 <_svfprintf_r+0xb26>
  106635:	83 f8 28             	cmp    eax,0x28
  106638:	0f 87 5f 01 00 00    	ja     10679d <_svfprintf_r+0xb2d>
  10663e:	48 8b 54 24 48       	mov    rdx,QWORD PTR [rsp+0x48]
  106643:	48 8b 4a 10          	mov    rcx,QWORD PTR [rdx+0x10]
  106647:	48 01 c1             	add    rcx,rax
  10664a:	83 c0 08             	add    eax,0x8
  10664d:	89 02                	mov    DWORD PTR [rdx],eax
  10664f:	e9 58 01 00 00       	jmp    1067ac <_svfprintf_r+0xb3c>
  106654:	48 8b 54 24 50       	mov    rdx,QWORD PTR [rsp+0x50]
  106659:	48 8b 02             	mov    rax,QWORD PTR [rdx]
  10665c:	48 8d 48 08          	lea    rcx,[rax+0x8]
  106660:	48 89 0a             	mov    QWORD PTR [rdx],rcx
  106663:	48 8b 08             	mov    rcx,QWORD PTR [rax]
  106666:	31 c0                	xor    eax,eax
  106668:	e9 63 01 00 00       	jmp    1067d0 <_svfprintf_r+0xb60>
  10666d:	48 8b 54 24 50       	mov    rdx,QWORD PTR [rsp+0x50]
  106672:	48 8b 02             	mov    rax,QWORD PTR [rdx]
  106675:	48 8d 48 08          	lea    rcx,[rax+0x8]
  106679:	48 89 0a             	mov    QWORD PTR [rdx],rcx
  10667c:	48 8b 08             	mov    rcx,QWORD PTR [rax]
  10667f:	b0 01                	mov    al,0x1
  106681:	e9 4a 01 00 00       	jmp    1067d0 <_svfprintf_r+0xb60>
  106686:	48 8b 54 24 50       	mov    rdx,QWORD PTR [rsp+0x50]
  10668b:	48 8b 02             	mov    rax,QWORD PTR [rdx]
  10668e:	48 8d 48 08          	lea    rcx,[rax+0x8]
  106692:	48 89 0a             	mov    QWORD PTR [rdx],rcx
  106695:	48 8b 08             	mov    rcx,QWORD PTR [rax]
  106698:	e9 12 01 00 00       	jmp    1067af <_svfprintf_r+0xb3f>
  10669d:	66 0f 28 54 24 70    	movapd xmm2,XMMWORD PTR [rsp+0x70]
  1066a3:	4c 8b 5c 24 30       	mov    r11,QWORD PTR [rsp+0x30]
  1066a8:	66 0f 28 8c 24 00 01 	movapd xmm1,XMMWORD PTR [rsp+0x100]
  1066af:	00 00 
  1066b1:	e9 38 03 00 00       	jmp    1069ee <_svfprintf_r+0xd7e>
  1066b6:	48 8b 54 24 50       	mov    rdx,QWORD PTR [rsp+0x50]
  1066bb:	48 8b 0a             	mov    rcx,QWORD PTR [rdx]
  1066be:	48 8d 41 08          	lea    rax,[rcx+0x8]
  1066c2:	48 89 02             	mov    QWORD PTR [rdx],rax
  1066c5:	48 63 09             	movsxd rcx,DWORD PTR [rcx]
  1066c8:	eb 13                	jmp    1066dd <_svfprintf_r+0xa6d>
  1066ca:	48 8b 54 24 50       	mov    rdx,QWORD PTR [rsp+0x50]
  1066cf:	48 8b 02             	mov    rax,QWORD PTR [rdx]
  1066d2:	48 8d 48 08          	lea    rcx,[rax+0x8]
  1066d6:	48 89 0a             	mov    QWORD PTR [rdx],rcx
  1066d9:	48 0f bf 08          	movsx  rcx,WORD PTR [rax]
  1066dd:	b0 01                	mov    al,0x1
  1066df:	48 85 c9             	test   rcx,rcx
  1066e2:	0f 89 ed 00 00 00    	jns    1067d5 <_svfprintf_r+0xb65>
  1066e8:	48 f7 d9             	neg    rcx
  1066eb:	c6 44 24 0b 2d       	mov    BYTE PTR [rsp+0xb],0x2d
  1066f0:	8b 5c 24 04          	mov    ebx,DWORD PTR [rsp+0x4]
  1066f4:	89 d8                	mov    eax,ebx
  1066f6:	25 7f ff ff ff       	and    eax,0xffffff7f
  1066fb:	45 85 ff             	test   r15d,r15d
  1066fe:	0f 49 d8             	cmovns ebx,eax
  106701:	e9 7f 01 00 00       	jmp    106885 <_svfprintf_r+0xc15>
  106706:	41 83 ff 06          	cmp    r15d,0x6
  10670a:	ba 06 00 00 00       	mov    edx,0x6
  10670f:	41 0f 42 d7          	cmovb  edx,r15d
  106713:	31 c0                	xor    eax,eax
  106715:	48 89 84 24 88 00 00 	mov    QWORD PTR [rsp+0x88],rax
  10671c:	00 
  10671d:	bd 73 00 00 00       	mov    ebp,0x73
  106722:	4c 8d 2d 75 9a ff ff 	lea    r13,[rip+0xffffffffffff9a75]        # 10019e <_svfprintf_r.blanks-0x942>
  106729:	45 31 ff             	xor    r15d,r15d
  10672c:	e9 1f 06 00 00       	jmp    106d50 <_svfprintf_r+0x10e0>
  106731:	48 8b 54 24 50       	mov    rdx,QWORD PTR [rsp+0x50]
  106736:	48 8b 0a             	mov    rcx,QWORD PTR [rdx]
  106739:	48 8d 41 08          	lea    rax,[rcx+0x8]
  10673d:	48 89 02             	mov    QWORD PTR [rdx],rax
  106740:	8b 09                	mov    ecx,DWORD PTR [rcx]
  106742:	31 c0                	xor    eax,eax
  106744:	e9 87 00 00 00       	jmp    1067d0 <_svfprintf_r+0xb60>
  106749:	48 8b 54 24 50       	mov    rdx,QWORD PTR [rsp+0x50]
  10674e:	48 8b 0a             	mov    rcx,QWORD PTR [rdx]
  106751:	48 8d 41 08          	lea    rax,[rcx+0x8]
  106755:	48 89 02             	mov    QWORD PTR [rdx],rax
  106758:	8b 09                	mov    ecx,DWORD PTR [rcx]
  10675a:	b0 01                	mov    al,0x1
  10675c:	eb 72                	jmp    1067d0 <_svfprintf_r+0xb60>
  10675e:	48 8b 54 24 50       	mov    rdx,QWORD PTR [rsp+0x50]
  106763:	48 8b 0a             	mov    rcx,QWORD PTR [rdx]
  106766:	48 8d 41 08          	lea    rax,[rcx+0x8]
  10676a:	48 89 02             	mov    QWORD PTR [rdx],rax
  10676d:	8b 09                	mov    ecx,DWORD PTR [rcx]
  10676f:	eb 3e                	jmp    1067af <_svfprintf_r+0xb3f>
  106771:	48 8b 54 24 50       	mov    rdx,QWORD PTR [rsp+0x50]
  106776:	48 8b 0a             	mov    rcx,QWORD PTR [rdx]
  106779:	48 8d 41 08          	lea    rax,[rcx+0x8]
  10677d:	48 89 02             	mov    QWORD PTR [rdx],rax
  106780:	0f b7 09             	movzx  ecx,WORD PTR [rcx]
  106783:	31 c0                	xor    eax,eax
  106785:	eb 49                	jmp    1067d0 <_svfprintf_r+0xb60>
  106787:	48 8b 54 24 50       	mov    rdx,QWORD PTR [rsp+0x50]
  10678c:	48 8b 0a             	mov    rcx,QWORD PTR [rdx]
  10678f:	48 8d 41 08          	lea    rax,[rcx+0x8]
  106793:	48 89 02             	mov    QWORD PTR [rdx],rax
  106796:	0f b7 09             	movzx  ecx,WORD PTR [rcx]
  106799:	b0 01                	mov    al,0x1
  10679b:	eb 33                	jmp    1067d0 <_svfprintf_r+0xb60>
  10679d:	48 8b 54 24 50       	mov    rdx,QWORD PTR [rsp+0x50]
  1067a2:	48 8b 0a             	mov    rcx,QWORD PTR [rdx]
  1067a5:	48 8d 41 08          	lea    rax,[rcx+0x8]
  1067a9:	48 89 02             	mov    QWORD PTR [rdx],rax
  1067ac:	0f b7 09             	movzx  ecx,WORD PTR [rcx]
  1067af:	b0 02                	mov    al,0x2
  1067b1:	f6 44 24 04 01       	test   BYTE PTR [rsp+0x4],0x1
  1067b6:	74 18                	je     1067d0 <_svfprintf_r+0xb60>
  1067b8:	48 85 c9             	test   rcx,rcx
  1067bb:	74 13                	je     1067d0 <_svfprintf_r+0xb60>
  1067bd:	c6 44 24 6e 30       	mov    BYTE PTR [rsp+0x6e],0x30
  1067c2:	40 88 6c 24 6f       	mov    BYTE PTR [rsp+0x6f],bpl
  1067c7:	83 4c 24 04 02       	or     DWORD PTR [rsp+0x4],0x2
  1067cc:	0f 1f 40 00          	nop    DWORD PTR [rax+0x0]
  1067d0:	c6 44 24 0b 00       	mov    BYTE PTR [rsp+0xb],0x0
  1067d5:	8b 5c 24 04          	mov    ebx,DWORD PTR [rsp+0x4]
  1067d9:	89 da                	mov    edx,ebx
  1067db:	81 e3 7f ff ff ff    	and    ebx,0xffffff7f
  1067e1:	45 85 ff             	test   r15d,r15d
  1067e4:	0f 48 da             	cmovs  ebx,edx
  1067e7:	48 85 c9             	test   rcx,rcx
  1067ea:	75 44                	jne    106830 <_svfprintf_r+0xbc0>
  1067ec:	45 85 ff             	test   r15d,r15d
  1067ef:	75 3f                	jne    106830 <_svfprintf_r+0xbc0>
  1067f1:	45 31 ff             	xor    r15d,r15d
  1067f4:	84 c0                	test   al,al
  1067f6:	44 89 6c 24 0c       	mov    DWORD PTR [rsp+0xc],r13d
  1067fb:	0f 85 e6 00 00 00    	jne    1068e7 <_svfprintf_r+0xc77>
  106801:	89 d9                	mov    ecx,ebx
  106803:	89 d8                	mov    eax,ebx
  106805:	83 e0 01             	and    eax,0x1
  106808:	0f 84 e6 00 00 00    	je     1068f4 <_svfprintf_r+0xc84>
  10680e:	c6 84 24 f7 00 00 00 	mov    BYTE PTR [rsp+0xf7],0x30
  106815:	30 
  106816:	4c 8d ac 24 f7 00 00 	lea    r13,[rsp+0xf7]
  10681d:	00 
  10681e:	e9 6f 01 00 00       	jmp    106992 <_svfprintf_r+0xd22>
  106823:	66 66 66 66 2e 0f 1f 	data16 data16 data16 cs nop WORD PTR [rax+rax*1+0x0]
  10682a:	84 00 00 00 00 00 
  106830:	84 c0                	test   al,al
  106832:	0f 84 c9 00 00 00    	je     106901 <_svfprintf_r+0xc91>
  106838:	0f b6 c0             	movzx  eax,al
  10683b:	83 f8 01             	cmp    eax,0x1
  10683e:	74 45                	je     106885 <_svfprintf_r+0xc15>
  106840:	44 89 6c 24 0c       	mov    DWORD PTR [rsp+0xc],r13d
  106845:	4c 8d ac 24 f8 00 00 	lea    r13,[rsp+0xf8]
  10684c:	00 
  10684d:	83 f8 02             	cmp    eax,0x2
  106850:	48 8b 94 24 b8 00 00 	mov    rdx,QWORD PTR [rsp+0xb8]
  106857:	00 
  106858:	0f 85 f0 00 00 00    	jne    10694e <_svfprintf_r+0xcde>
  10685e:	66 90                	xchg   ax,ax
  106860:	89 c8                	mov    eax,ecx
  106862:	83 e0 0f             	and    eax,0xf
  106865:	0f b6 04 02          	movzx  eax,BYTE PTR [rdx+rax*1]
  106869:	41 88 45 ff          	mov    BYTE PTR [r13-0x1],al
  10686d:	49 ff cd             	dec    r13
  106870:	48 89 c8             	mov    rax,rcx
  106873:	48 c1 e8 04          	shr    rax,0x4
  106877:	48 83 f9 10          	cmp    rcx,0x10
  10687b:	48 89 c1             	mov    rcx,rax
  10687e:	73 e0                	jae    106860 <_svfprintf_r+0xbf0>
  106880:	e9 0b 01 00 00       	jmp    106990 <_svfprintf_r+0xd20>
  106885:	44 89 6c 24 0c       	mov    DWORD PTR [rsp+0xc],r13d
  10688a:	48 83 f9 0a          	cmp    rcx,0xa
  10688e:	73 17                	jae    1068a7 <_svfprintf_r+0xc37>
  106890:	80 c1 30             	add    cl,0x30
  106893:	88 8c 24 f7 00 00 00 	mov    BYTE PTR [rsp+0xf7],cl
  10689a:	4c 8d ac 24 f7 00 00 	lea    r13,[rsp+0xf7]
  1068a1:	00 
  1068a2:	e9 e9 00 00 00       	jmp    106990 <_svfprintf_r+0xd20>
  1068a7:	4c 8d ac 24 f8 00 00 	lea    r13,[rsp+0xf8]
  1068ae:	00 
  1068af:	90                   	nop
  1068b0:	48 ba cd cc cc cc cc 	movabs rdx,0xcccccccccccccccd
  1068b7:	cc cc cc 
  1068ba:	48 89 c8             	mov    rax,rcx
  1068bd:	48 f7 e2             	mul    rdx
  1068c0:	48 c1 ea 03          	shr    rdx,0x3
  1068c4:	8d 04 12             	lea    eax,[rdx+rdx*1]
  1068c7:	8d 04 80             	lea    eax,[rax+rax*4]
  1068ca:	89 ce                	mov    esi,ecx
  1068cc:	29 c6                	sub    esi,eax
  1068ce:	40 80 ce 30          	or     sil,0x30
  1068d2:	41 88 75 ff          	mov    BYTE PTR [r13-0x1],sil
  1068d6:	49 ff cd             	dec    r13
  1068d9:	48 83 f9 0a          	cmp    rcx,0xa
  1068dd:	48 89 d1             	mov    rcx,rdx
  1068e0:	73 ce                	jae    1068b0 <_svfprintf_r+0xc40>
  1068e2:	e9 a9 00 00 00       	jmp    106990 <_svfprintf_r+0xd20>
  1068e7:	4c 8d ac 24 f8 00 00 	lea    r13,[rsp+0xf8]
  1068ee:	00 
  1068ef:	e9 9c 00 00 00       	jmp    106990 <_svfprintf_r+0xd20>
  1068f4:	4c 8d ac 24 f8 00 00 	lea    r13,[rsp+0xf8]
  1068fb:	00 
  1068fc:	e9 91 00 00 00       	jmp    106992 <_svfprintf_r+0xd22>
  106901:	44 89 6c 24 0c       	mov    DWORD PTR [rsp+0xc],r13d
  106906:	4c 8d ac 24 f7 00 00 	lea    r13,[rsp+0xf7]
  10690d:	00 
  10690e:	48 89 ca             	mov    rdx,rcx
  106911:	66 66 66 66 66 66 2e 	data16 data16 data16 data16 data16 cs nop WORD PTR [rax+rax*1+0x0]
  106918:	0f 1f 84 00 00 00 00 
  10691f:	00 
  106920:	89 c8                	mov    eax,ecx
  106922:	24 07                	and    al,0x7
  106924:	0c 30                	or     al,0x30
  106926:	41 88 45 00          	mov    BYTE PTR [r13+0x0],al
  10692a:	48 c1 ea 03          	shr    rdx,0x3
  10692e:	49 ff cd             	dec    r13
  106931:	48 83 f9 07          	cmp    rcx,0x7
  106935:	48 89 d1             	mov    rcx,rdx
  106938:	77 e6                	ja     106920 <_svfprintf_r+0xcb0>
  10693a:	49 8d 4d 01          	lea    rcx,[r13+0x1]
  10693e:	f6 c3 01             	test   bl,0x1
  106941:	74 44                	je     106987 <_svfprintf_r+0xd17>
  106943:	3c 30                	cmp    al,0x30
  106945:	74 40                	je     106987 <_svfprintf_r+0xd17>
  106947:	41 c6 45 00 30       	mov    BYTE PTR [r13+0x0],0x30
  10694c:	eb 42                	jmp    106990 <_svfprintf_r+0xd20>
  10694e:	4c 8d 2d 20 9c ff ff 	lea    r13,[rip+0xffffffffffff9c20]        # 100575 <_svfprintf_r.blanks-0x56b>
  106955:	4c 89 ef             	mov    rdi,r13
  106958:	66 0f 29 54 24 70    	movapd XMMWORD PTR [rsp+0x70],xmm2
  10695e:	e8 7d f1 ff ff       	call   105ae0 <strlen>
  106963:	4c 8b 5c 24 30       	mov    r11,QWORD PTR [rsp+0x30]
  106968:	66 0f 28 54 24 70    	movapd xmm2,XMMWORD PTR [rsp+0x70]
  10696e:	48 89 c2             	mov    rdx,rax
  106971:	31 c0                	xor    eax,eax
  106973:	48 89 84 24 88 00 00 	mov    QWORD PTR [rsp+0x88],rax
  10697a:	00 
  10697b:	89 d9                	mov    ecx,ebx
  10697d:	48 8b 5c 24 28       	mov    rbx,QWORD PTR [rsp+0x28]
  106982:	e9 c9 03 00 00       	jmp    106d50 <_svfprintf_r+0x10e0>
  106987:	49 89 cd             	mov    r13,rcx
  10698a:	66 0f 1f 44 00 00    	nop    WORD PTR [rax+rax*1+0x0]
  106990:	89 d9                	mov    ecx,ebx
  106992:	48 8b 5c 24 28       	mov    rbx,QWORD PTR [rsp+0x28]
  106997:	48 8d 84 24 f8 00 00 	lea    rax,[rsp+0xf8]
  10699e:	00 
  10699f:	89 c2                	mov    edx,eax
  1069a1:	44 29 ea             	sub    edx,r13d
  1069a4:	31 c0                	xor    eax,eax
  1069a6:	48 89 84 24 88 00 00 	mov    QWORD PTR [rsp+0x88],rax
  1069ad:	00 
  1069ae:	e9 9d 03 00 00       	jmp    106d50 <_svfprintf_r+0x10e0>
  1069b3:	4c 89 ef             	mov    rdi,r13
  1069b6:	e8 25 f1 ff ff       	call   105ae0 <strlen>
  1069bb:	48 89 c2             	mov    rdx,rax
  1069be:	31 c0                	xor    eax,eax
  1069c0:	48 89 84 24 88 00 00 	mov    QWORD PTR [rsp+0x88],rax
  1069c7:	00 
  1069c8:	bd 73 00 00 00       	mov    ebp,0x73
  1069cd:	45 31 ff             	xor    r15d,r15d
  1069d0:	66 0f 28 54 24 70    	movapd xmm2,XMMWORD PTR [rsp+0x70]
  1069d6:	4c 8b 5c 24 30       	mov    r11,QWORD PTR [rsp+0x30]
  1069db:	8b 4c 24 04          	mov    ecx,DWORD PTR [rsp+0x4]
  1069df:	e9 6c 03 00 00       	jmp    106d50 <_svfprintf_r+0x10e0>
  1069e4:	8b 4c 24 44          	mov    ecx,DWORD PTR [rsp+0x44]
  1069e8:	48 63 c9             	movsxd rcx,ecx
  1069eb:	48 01 c8             	add    rax,rcx
  1069ee:	66 0f 57 c0          	xorpd  xmm0,xmm0
  1069f2:	66 0f 2e c8          	ucomisd xmm1,xmm0
  1069f6:	75 18                	jne    106a10 <_svfprintf_r+0xda0>
  1069f8:	7a 16                	jp     106a10 <_svfprintf_r+0xda0>
  1069fa:	49 89 c2             	mov    r10,rax
  1069fd:	eb 1e                	jmp    106a1d <_svfprintf_r+0xdad>
  1069ff:	90                   	nop
  106a00:	49 8d 4a 01          	lea    rcx,[r10+0x1]
  106a04:	48 89 8c 24 98 00 00 	mov    QWORD PTR [rsp+0x98],rcx
  106a0b:	00 
  106a0c:	41 c6 02 30          	mov    BYTE PTR [r10],0x30
  106a10:	4c 8b 94 24 98 00 00 	mov    r10,QWORD PTR [rsp+0x98]
  106a17:	00 
  106a18:	49 39 c2             	cmp    r10,rax
  106a1b:	72 e3                	jb     106a00 <_svfprintf_r+0xd90>
  106a1d:	45 29 ea             	sub    r10d,r13d
  106a20:	83 fb 47             	cmp    ebx,0x47
  106a23:	4c 89 94 24 90 00 00 	mov    QWORD PTR [rsp+0x90],r10
  106a2a:	00 
  106a2b:	75 29                	jne    106a56 <_svfprintf_r+0xde6>
  106a2d:	8b 54 24 44          	mov    edx,DWORD PTR [rsp+0x44]
  106a31:	83 c5 fe             	add    ebp,0xfffffffe
  106a34:	83 fa fd             	cmp    edx,0xfffffffd
  106a37:	48 8b 5c 24 28       	mov    rbx,QWORD PTR [rsp+0x28]
  106a3c:	4c 8b bc 24 a8 00 00 	mov    r15,QWORD PTR [rsp+0xa8]
  106a43:	00 
  106a44:	7c 22                	jl     106a68 <_svfprintf_r+0xdf8>
  106a46:	b8 67 00 00 00       	mov    eax,0x67
  106a4b:	44 39 fa             	cmp    edx,r15d
  106a4e:	0f 8e 23 01 00 00    	jle    106b77 <_svfprintf_r+0xf07>
  106a54:	eb 12                	jmp    106a68 <_svfprintf_r+0xdf8>
  106a56:	83 fd 65             	cmp    ebp,0x65
  106a59:	48 8b 5c 24 28       	mov    rbx,QWORD PTR [rsp+0x28]
  106a5e:	0f 8f b8 00 00 00    	jg     106b1c <_svfprintf_r+0xeac>
  106a64:	8b 54 24 44          	mov    edx,DWORD PTR [rsp+0x44]
  106a68:	8d 42 ff             	lea    eax,[rdx-0x1]
  106a6b:	89 44 24 44          	mov    DWORD PTR [rsp+0x44],eax
  106a6f:	40 88 6c 24 67       	mov    BYTE PTR [rsp+0x67],bpl
  106a74:	85 d2                	test   edx,edx
  106a76:	0f 9e c1             	setle  cl
  106a79:	00 c9                	add    cl,cl
  106a7b:	80 c1 2b             	add    cl,0x2b
  106a7e:	89 c2                	mov    edx,eax
  106a80:	f7 da                	neg    edx
  106a82:	0f 48 d0             	cmovs  edx,eax
  106a85:	88 4c 24 68          	mov    BYTE PTR [rsp+0x68],cl
  106a89:	83 fa 0a             	cmp    edx,0xa
  106a8c:	0f 82 cd 00 00 00    	jb     106b5f <_svfprintf_r+0xeef>
  106a92:	b9 01 00 00 00       	mov    ecx,0x1
  106a97:	31 c0                	xor    eax,eax
  106a99:	0f 1f 80 00 00 00 00 	nop    DWORD PTR [rax+0x0]
  106aa0:	48 89 c7             	mov    rdi,rax
  106aa3:	48 63 f2             	movsxd rsi,edx
  106aa6:	48 69 d6 67 66 66 66 	imul   rdx,rsi,0x66666667
  106aad:	48 89 d0             	mov    rax,rdx
  106ab0:	48 c1 e8 3f          	shr    rax,0x3f
  106ab4:	48 c1 fa 22          	sar    rdx,0x22
  106ab8:	01 c2                	add    edx,eax
  106aba:	8d 04 12             	lea    eax,[rdx+rdx*1]
  106abd:	8d 04 80             	lea    eax,[rax+rax*4]
  106ac0:	89 f3                	mov    ebx,esi
  106ac2:	29 c3                	sub    ebx,eax
  106ac4:	80 c3 30             	add    bl,0x30
  106ac7:	88 9c 3c 9e 00 00 00 	mov    BYTE PTR [rsp+rdi*1+0x9e],bl
  106ace:	48 8d 47 ff          	lea    rax,[rdi-0x1]
  106ad2:	48 ff c1             	inc    rcx
  106ad5:	83 fe 63             	cmp    esi,0x63
  106ad8:	7f c6                	jg     106aa0 <_svfprintf_r+0xe30>
  106ada:	80 c2 30             	add    dl,0x30
  106add:	88 94 04 9e 00 00 00 	mov    BYTE PTR [rsp+rax*1+0x9e],dl
  106ae4:	48 8d 50 08          	lea    rdx,[rax+0x8]
  106ae8:	48 8d 74 24 69       	lea    rsi,[rsp+0x69]
  106aed:	48 83 fa 08          	cmp    rdx,0x8
  106af1:	48 8b 5c 24 28       	mov    rbx,QWORD PTR [rsp+0x28]
  106af6:	0f 8f ea 01 00 00    	jg     106ce6 <_svfprintf_r+0x1076>
  106afc:	ba 01 00 00 00       	mov    edx,0x1
  106b01:	48 29 c2             	sub    rdx,rax
  106b04:	48 83 fa 20          	cmp    rdx,0x20
  106b08:	0f 83 b0 00 00 00    	jae    106bbe <_svfprintf_r+0xf4e>
  106b0e:	48 83 c0 06          	add    rax,0x6
  106b12:	48 8d 74 24 69       	lea    rsi,[rsp+0x69]
  106b17:	e9 b4 01 00 00       	jmp    106cd0 <_svfprintf_r+0x1060>
  106b1c:	8b 54 24 44          	mov    edx,DWORD PTR [rsp+0x44]
  106b20:	83 fd 66             	cmp    ebp,0x66
  106b23:	8b 4c 24 04          	mov    ecx,DWORD PTR [rsp+0x4]
  106b27:	75 4c                	jne    106b75 <_svfprintf_r+0xf05>
  106b29:	89 c8                	mov    eax,ecx
  106b2b:	83 e0 01             	and    eax,0x1
  106b2e:	48 8b b4 24 a8 00 00 	mov    rsi,QWORD PTR [rsp+0xa8]
  106b35:	00 
  106b36:	09 f0                	or     eax,esi
  106b38:	0f 94 c0             	sete   al
  106b3b:	85 d2                	test   edx,edx
  106b3d:	48 89 94 24 88 00 00 	mov    QWORD PTR [rsp+0x88],rdx
  106b44:	00 
  106b45:	0f 8e 02 01 00 00    	jle    106c4d <_svfprintf_r+0xfdd>
  106b4b:	bd 66 00 00 00       	mov    ebp,0x66
  106b50:	84 c0                	test   al,al
  106b52:	0f 84 10 01 00 00    	je     106c68 <_svfprintf_r+0xff8>
  106b58:	89 d6                	mov    esi,edx
  106b5a:	e9 c7 01 00 00       	jmp    106d26 <_svfprintf_r+0x10b6>
  106b5f:	c6 44 24 69 30       	mov    BYTE PTR [rsp+0x69],0x30
  106b64:	80 c2 30             	add    dl,0x30
  106b67:	88 54 24 6a          	mov    BYTE PTR [rsp+0x6a],dl
  106b6b:	48 8d 74 24 6b       	lea    rsi,[rsp+0x6b]
  106b70:	e9 71 01 00 00       	jmp    106ce6 <_svfprintf_r+0x1076>
  106b75:	89 e8                	mov    eax,ebp
  106b77:	44 39 d2             	cmp    edx,r10d
  106b7a:	48 89 94 24 88 00 00 	mov    QWORD PTR [rsp+0x88],rdx
  106b81:	00 
  106b82:	7d 1f                	jge    106ba3 <_svfprintf_r+0xf33>
  106b84:	48 8b 8c 24 a0 00 00 	mov    rcx,QWORD PTR [rsp+0xa0]
  106b8b:	00 
  106b8c:	41 8d 34 0a          	lea    esi,[r10+rcx*1]
  106b90:	85 d2                	test   edx,edx
  106b92:	7f 04                	jg     106b98 <_svfprintf_r+0xf28>
  106b94:	29 d6                	sub    esi,edx
  106b96:	ff c6                	inc    esi
  106b98:	89 c5                	mov    ebp,eax
  106b9a:	8b 4c 24 04          	mov    ecx,DWORD PTR [rsp+0x4]
  106b9e:	e9 83 01 00 00       	jmp    106d26 <_svfprintf_r+0x10b6>
  106ba3:	8b 4c 24 04          	mov    ecx,DWORD PTR [rsp+0x4]
  106ba7:	89 ce                	mov    esi,ecx
  106ba9:	83 e6 01             	and    esi,0x1
  106bac:	f7 de                	neg    esi
  106bae:	23 b4 24 a0 00 00 00 	and    esi,DWORD PTR [rsp+0xa0]
  106bb5:	01 d6                	add    esi,edx
  106bb7:	89 c5                	mov    ebp,eax
  106bb9:	e9 68 01 00 00       	jmp    106d26 <_svfprintf_r+0x10b6>
  106bbe:	49 89 d0             	mov    r8,rdx
  106bc1:	49 83 e0 e0          	and    r8,0xffffffffffffffe0
  106bc5:	49 8d 70 e0          	lea    rsi,[r8-0x20]
  106bc9:	49 89 f1             	mov    r9,rsi
  106bcc:	49 c1 e9 05          	shr    r9,0x5
  106bd0:	49 ff c1             	inc    r9
  106bd3:	48 85 f6             	test   rsi,rsi
  106bd6:	0f 84 a7 00 00 00    	je     106c83 <_svfprintf_r+0x1013>
  106bdc:	48 8d b4 24 ce 00 00 	lea    rsi,[rsp+0xce]
  106be3:	00 
  106be4:	48 01 c6             	add    rsi,rax
  106be7:	bb 02 00 00 00       	mov    ebx,0x2
  106bec:	48 29 fb             	sub    rbx,rdi
  106bef:	48 83 e3 e0          	and    rbx,0xffffffffffffffe0
  106bf3:	48 83 c3 e0          	add    rbx,0xffffffffffffffe0
  106bf7:	48 c1 eb 05          	shr    rbx,0x5
  106bfb:	48 ff c3             	inc    rbx
  106bfe:	48 83 e3 fe          	and    rbx,0xfffffffffffffffe
  106c02:	31 ff                	xor    edi,edi
  106c04:	66 66 66 2e 0f 1f 84 	data16 data16 cs nop WORD PTR [rax+rax*1+0x0]
  106c0b:	00 00 00 00 00 
  106c10:	0f 10 44 3e d0       	movups xmm0,XMMWORD PTR [rsi+rdi*1-0x30]
  106c15:	0f 10 4c 3e e0       	movups xmm1,XMMWORD PTR [rsi+rdi*1-0x20]
  106c1a:	0f 11 44 3c 69       	movups XMMWORD PTR [rsp+rdi*1+0x69],xmm0
  106c1f:	0f 11 4c 3c 79       	movups XMMWORD PTR [rsp+rdi*1+0x79],xmm1
  106c24:	f3 0f 6f 44 3e f0    	movdqu xmm0,XMMWORD PTR [rsi+rdi*1-0x10]
  106c2a:	f3 0f 6f 0c 3e       	movdqu xmm1,XMMWORD PTR [rsi+rdi*1]
  106c2f:	f3 0f 7f 84 3c 89 00 	movdqu XMMWORD PTR [rsp+rdi*1+0x89],xmm0
  106c36:	00 00 
  106c38:	f3 0f 7f 8c 3c 99 00 	movdqu XMMWORD PTR [rsp+rdi*1+0x99],xmm1
  106c3f:	00 00 
  106c41:	48 83 c7 40          	add    rdi,0x40
  106c45:	48 83 c3 fe          	add    rbx,0xfffffffffffffffe
  106c49:	75 c5                	jne    106c10 <_svfprintf_r+0xfa0>
  106c4b:	eb 38                	jmp    106c85 <_svfprintf_r+0x1015>
  106c4d:	03 b4 24 c0 00 00 00 	add    esi,DWORD PTR [rsp+0xc0]
  106c54:	84 c0                	test   al,al
  106c56:	b8 01 00 00 00       	mov    eax,0x1
  106c5b:	0f 45 f0             	cmovne esi,eax
  106c5e:	bd 66 00 00 00       	mov    ebp,0x66
  106c63:	e9 be 00 00 00       	jmp    106d26 <_svfprintf_r+0x10b6>
  106c68:	4c 8b bc 24 a8 00 00 	mov    r15,QWORD PTR [rsp+0xa8]
  106c6f:	00 
  106c70:	44 03 bc 24 a0 00 00 	add    r15d,DWORD PTR [rsp+0xa0]
  106c77:	00 
  106c78:	41 01 d7             	add    r15d,edx
  106c7b:	4c 89 fe             	mov    rsi,r15
  106c7e:	e9 a3 00 00 00       	jmp    106d26 <_svfprintf_r+0x10b6>
  106c83:	31 ff                	xor    edi,edi
  106c85:	41 f6 c1 01          	test   r9b,0x1
  106c89:	48 8b 5c 24 28       	mov    rbx,QWORD PTR [rsp+0x28]
  106c8e:	74 23                	je     106cb3 <_svfprintf_r+0x1043>
  106c90:	48 8d b4 24 98 00 00 	lea    rsi,[rsp+0x98]
  106c97:	00 
  106c98:	48 01 fe             	add    rsi,rdi
  106c9b:	f3 0f 6f 44 30 06    	movdqu xmm0,XMMWORD PTR [rax+rsi*1+0x6]
  106ca1:	f3 0f 6f 4c 30 16    	movdqu xmm1,XMMWORD PTR [rax+rsi*1+0x16]
  106ca7:	f3 0f 7f 44 3c 69    	movdqu XMMWORD PTR [rsp+rdi*1+0x69],xmm0
  106cad:	f3 0f 7f 4c 3c 79    	movdqu XMMWORD PTR [rsp+rdi*1+0x79],xmm1
  106cb3:	48 8d 74 24 69       	lea    rsi,[rsp+0x69]
  106cb8:	4c 01 c6             	add    rsi,r8
  106cbb:	4c 39 c2             	cmp    rdx,r8
  106cbe:	74 26                	je     106ce6 <_svfprintf_r+0x1076>
  106cc0:	48 83 e1 e0          	and    rcx,0xffffffffffffffe0
  106cc4:	48 01 c8             	add    rax,rcx
  106cc7:	48 83 c0 06          	add    rax,0x6
  106ccb:	0f 1f 44 00 00       	nop    DWORD PTR [rax+rax*1+0x0]
  106cd0:	0f b6 8c 04 98 00 00 	movzx  ecx,BYTE PTR [rsp+rax*1+0x98]
  106cd7:	00 
  106cd8:	48 ff c0             	inc    rax
  106cdb:	88 0e                	mov    BYTE PTR [rsi],cl
  106cdd:	48 ff c6             	inc    rsi
  106ce0:	48 83 f8 07          	cmp    rax,0x7
  106ce4:	75 ea                	jne    106cd0 <_svfprintf_r+0x1060>
  106ce6:	8b 54 24 04          	mov    edx,DWORD PTR [rsp+0x4]
  106cea:	89 d7                	mov    edi,edx
  106cec:	83 e7 01             	and    edi,0x1
  106cef:	f7 df                	neg    edi
  106cf1:	48 8d 44 24 67       	lea    rax,[rsp+0x67]
  106cf6:	29 c6                	sub    esi,eax
  106cf8:	48 89 b4 24 c8 00 00 	mov    QWORD PTR [rsp+0xc8],rsi
  106cff:	00 
  106d00:	42 8d 04 16          	lea    eax,[rsi+r10*1]
  106d04:	48 8b 8c 24 a0 00 00 	mov    rcx,QWORD PTR [rsp+0xa0]
  106d0b:	00 
  106d0c:	21 cf                	and    edi,ecx
  106d0e:	41 83 fa 02          	cmp    r10d,0x2
  106d12:	0f 4d f9             	cmovge edi,ecx
  106d15:	89 d1                	mov    ecx,edx
  106d17:	01 c7                	add    edi,eax
  106d19:	48 89 fe             	mov    rsi,rdi
  106d1c:	31 c0                	xor    eax,eax
  106d1e:	48 89 84 24 88 00 00 	mov    QWORD PTR [rsp+0x88],rax
  106d25:	00 
  106d26:	48 8b 44 24 58       	mov    rax,QWORD PTR [rsp+0x58]
  106d2b:	81 c9 00 01 00 00    	or     ecx,0x100
  106d31:	45 31 ff             	xor    r15d,r15d
  106d34:	48 85 c0             	test   rax,rax
  106d37:	79 05                	jns    106d3e <_svfprintf_r+0x10ce>
  106d39:	c6 44 24 0b 2d       	mov    BYTE PTR [rsp+0xb],0x2d
  106d3e:	48 89 f2             	mov    rdx,rsi
  106d41:	66 66 66 66 66 66 2e 	data16 data16 data16 data16 data16 cs nop WORD PTR [rax+rax*1+0x0]
  106d48:	0f 1f 84 00 00 00 00 
  106d4f:	00 
  106d50:	41 39 d7             	cmp    r15d,edx
  106d53:	48 89 94 24 a8 00 00 	mov    QWORD PTR [rsp+0xa8],rdx
  106d5a:	00 
  106d5b:	89 d0                	mov    eax,edx
  106d5d:	41 0f 4f c7          	cmovg  eax,r15d
  106d61:	80 7c 24 0b 01       	cmp    BYTE PTR [rsp+0xb],0x1
  106d66:	83 d8 ff             	sbb    eax,0xffffffff
  106d69:	8d 50 02             	lea    edx,[rax+0x2]
  106d6c:	f6 c1 02             	test   cl,0x2
  106d6f:	0f 44 d0             	cmove  edx,eax
  106d72:	44 89 d8             	mov    eax,r11d
  106d75:	89 94 24 c4 00 00 00 	mov    DWORD PTR [rsp+0xc4],edx
  106d7c:	29 d0                	sub    eax,edx
  106d7e:	89 ca                	mov    edx,ecx
  106d80:	81 e2 84 00 00 00    	and    edx,0x84
  106d86:	89 94 24 00 01 00 00 	mov    DWORD PTR [rsp+0x100],edx
  106d8d:	66 0f 29 54 24 70    	movapd XMMWORD PTR [rsp+0x70],xmm2
  106d93:	89 4c 24 04          	mov    DWORD PTR [rsp+0x4],ecx
  106d97:	48 89 44 24 58       	mov    QWORD PTR [rsp+0x58],rax
  106d9c:	0f 85 ed 00 00 00    	jne    106e8f <_svfprintf_r+0x121f>
  106da2:	85 c0                	test   eax,eax
  106da4:	0f 8e e5 00 00 00    	jle    106e8f <_svfprintf_r+0x121f>
  106daa:	83 f8 11             	cmp    eax,0x11
  106dad:	0f 82 7d 00 00 00    	jb     106e30 <_svfprintf_r+0x11c0>
  106db3:	89 c3                	mov    ebx,eax
  106db5:	eb 17                	jmp    106dce <_svfprintf_r+0x115e>
  106db7:	66 0f 1f 84 00 00 00 	nop    WORD PTR [rax+rax*1+0x0]
  106dbe:	00 00 
  106dc0:	49 83 c6 10          	add    r14,0x10
  106dc4:	8d 43 f0             	lea    eax,[rbx-0x10]
  106dc7:	83 fb 20             	cmp    ebx,0x20
  106dca:	89 c3                	mov    ebx,eax
  106dcc:	7e 62                	jle    106e30 <_svfprintf_r+0x11c0>
  106dce:	48 8d 05 0b 9d ff ff 	lea    rax,[rip+0xffffffffffff9d0b]        # 100ae0 <_svfprintf_r.blanks>
  106dd5:	49 89 06             	mov    QWORD PTR [r14],rax
  106dd8:	49 c7 46 08 10 00 00 	mov    QWORD PTR [r14+0x8],0x10
  106ddf:	00 
  106de0:	48 83 44 24 20 10    	add    QWORD PTR [rsp+0x20],0x10
  106de6:	8b 44 24 18          	mov    eax,DWORD PTR [rsp+0x18]
  106dea:	8d 48 01             	lea    ecx,[rax+0x1]
  106ded:	89 4c 24 18          	mov    DWORD PTR [rsp+0x18],ecx
  106df1:	83 f8 07             	cmp    eax,0x7
  106df4:	7c ca                	jl     106dc0 <_svfprintf_r+0x1150>
  106df6:	48 8b 7c 24 38       	mov    rdi,QWORD PTR [rsp+0x38]
  106dfb:	48 8b 74 24 28       	mov    rsi,QWORD PTR [rsp+0x28]
  106e00:	48 8d 54 24 10       	lea    rdx,[rsp+0x10]
  106e05:	e8 96 1f 00 00       	call   108da0 <__ssprint_r>
  106e0a:	4c 8b 5c 24 30       	mov    r11,QWORD PTR [rsp+0x30]
  106e0f:	66 0f 28 54 24 70    	movapd xmm2,XMMWORD PTR [rsp+0x70]
  106e15:	4c 8d b4 24 20 01 00 	lea    r14,[rsp+0x120]
  106e1c:	00 
  106e1d:	85 c0                	test   eax,eax
  106e1f:	74 a3                	je     106dc4 <_svfprintf_r+0x1154>
  106e21:	e9 38 0f 00 00       	jmp    107d5e <_svfprintf_r+0x20ee>
  106e26:	66 2e 0f 1f 84 00 00 	cs nop WORD PTR [rax+rax*1+0x0]
  106e2d:	00 00 00 
  106e30:	48 8d 0d a9 9c ff ff 	lea    rcx,[rip+0xffffffffffff9ca9]        # 100ae0 <_svfprintf_r.blanks>
  106e37:	49 89 0e             	mov    QWORD PTR [r14],rcx
  106e3a:	89 c0                	mov    eax,eax
  106e3c:	49 89 46 08          	mov    QWORD PTR [r14+0x8],rax
  106e40:	48 01 44 24 20       	add    QWORD PTR [rsp+0x20],rax
  106e45:	8b 44 24 18          	mov    eax,DWORD PTR [rsp+0x18]
  106e49:	8d 48 01             	lea    ecx,[rax+0x1]
  106e4c:	89 4c 24 18          	mov    DWORD PTR [rsp+0x18],ecx
  106e50:	83 f8 07             	cmp    eax,0x7
  106e53:	0f 8c b1 00 00 00    	jl     106f0a <_svfprintf_r+0x129a>
  106e59:	48 8b 7c 24 38       	mov    rdi,QWORD PTR [rsp+0x38]
  106e5e:	48 8b 5c 24 28       	mov    rbx,QWORD PTR [rsp+0x28]
  106e63:	48 89 de             	mov    rsi,rbx
  106e66:	48 8d 54 24 10       	lea    rdx,[rsp+0x10]
  106e6b:	e8 30 1f 00 00       	call   108da0 <__ssprint_r>
  106e70:	4c 8b 5c 24 30       	mov    r11,QWORD PTR [rsp+0x30]
  106e75:	66 0f 28 54 24 70    	movapd xmm2,XMMWORD PTR [rsp+0x70]
  106e7b:	4c 8d b4 24 20 01 00 	lea    r14,[rsp+0x120]
  106e82:	00 
  106e83:	85 c0                	test   eax,eax
  106e85:	8b 4c 24 04          	mov    ecx,DWORD PTR [rsp+0x4]
  106e89:	0f 85 d4 0e 00 00    	jne    107d63 <_svfprintf_r+0x20f3>
  106e8f:	80 7c 24 0b 00       	cmp    BYTE PTR [rsp+0xb],0x0
  106e94:	0f 84 96 00 00 00    	je     106f30 <_svfprintf_r+0x12c0>
  106e9a:	48 8d 44 24 0b       	lea    rax,[rsp+0xb]
  106e9f:	49 89 06             	mov    QWORD PTR [r14],rax
  106ea2:	49 c7 46 08 01 00 00 	mov    QWORD PTR [r14+0x8],0x1
  106ea9:	00 
  106eaa:	48 ff 44 24 20       	inc    QWORD PTR [rsp+0x20]
  106eaf:	8b 44 24 18          	mov    eax,DWORD PTR [rsp+0x18]
  106eb3:	8d 48 01             	lea    ecx,[rax+0x1]
  106eb6:	89 4c 24 18          	mov    DWORD PTR [rsp+0x18],ecx
  106eba:	83 f8 07             	cmp    eax,0x7
  106ebd:	7c 41                	jl     106f00 <_svfprintf_r+0x1290>
  106ebf:	48 8b 7c 24 38       	mov    rdi,QWORD PTR [rsp+0x38]
  106ec4:	48 89 de             	mov    rsi,rbx
  106ec7:	48 8d 54 24 10       	lea    rdx,[rsp+0x10]
  106ecc:	e8 cf 1e 00 00       	call   108da0 <__ssprint_r>
  106ed1:	4c 8b 5c 24 30       	mov    r11,QWORD PTR [rsp+0x30]
  106ed6:	66 0f 28 54 24 70    	movapd xmm2,XMMWORD PTR [rsp+0x70]
  106edc:	4c 8d b4 24 20 01 00 	lea    r14,[rsp+0x120]
  106ee3:	00 
  106ee4:	85 c0                	test   eax,eax
  106ee6:	8b 4c 24 04          	mov    ecx,DWORD PTR [rsp+0x4]
  106eea:	74 44                	je     106f30 <_svfprintf_r+0x12c0>
  106eec:	e9 72 0e 00 00       	jmp    107d63 <_svfprintf_r+0x20f3>
  106ef1:	66 66 66 66 66 66 2e 	data16 data16 data16 data16 data16 cs nop WORD PTR [rax+rax*1+0x0]
  106ef8:	0f 1f 84 00 00 00 00 
  106eff:	00 
  106f00:	49 83 c6 10          	add    r14,0x10
  106f04:	8b 4c 24 04          	mov    ecx,DWORD PTR [rsp+0x4]
  106f08:	eb 26                	jmp    106f30 <_svfprintf_r+0x12c0>
  106f0a:	49 83 c6 10          	add    r14,0x10
  106f0e:	48 8b 5c 24 28       	mov    rbx,QWORD PTR [rsp+0x28]
  106f13:	8b 4c 24 04          	mov    ecx,DWORD PTR [rsp+0x4]
  106f17:	80 7c 24 0b 00       	cmp    BYTE PTR [rsp+0xb],0x0
  106f1c:	0f 85 78 ff ff ff    	jne    106e9a <_svfprintf_r+0x122a>
  106f22:	66 66 66 66 66 2e 0f 	data16 data16 data16 data16 cs nop WORD PTR [rax+rax*1+0x0]
  106f29:	1f 84 00 00 00 00 00 
  106f30:	f6 c1 02             	test   cl,0x2
  106f33:	74 57                	je     106f8c <_svfprintf_r+0x131c>
  106f35:	48 8d 44 24 6e       	lea    rax,[rsp+0x6e]
  106f3a:	49 89 06             	mov    QWORD PTR [r14],rax
  106f3d:	49 c7 46 08 02 00 00 	mov    QWORD PTR [r14+0x8],0x2
  106f44:	00 
  106f45:	48 83 44 24 20 02    	add    QWORD PTR [rsp+0x20],0x2
  106f4b:	8b 44 24 18          	mov    eax,DWORD PTR [rsp+0x18]
  106f4f:	8d 48 01             	lea    ecx,[rax+0x1]
  106f52:	89 4c 24 18          	mov    DWORD PTR [rsp+0x18],ecx
  106f56:	83 f8 07             	cmp    eax,0x7
  106f59:	7c 45                	jl     106fa0 <_svfprintf_r+0x1330>
  106f5b:	48 8b 7c 24 38       	mov    rdi,QWORD PTR [rsp+0x38]
  106f60:	48 89 de             	mov    rsi,rbx
  106f63:	48 8d 54 24 10       	lea    rdx,[rsp+0x10]
  106f68:	e8 33 1e 00 00       	call   108da0 <__ssprint_r>
  106f6d:	4c 8b 5c 24 30       	mov    r11,QWORD PTR [rsp+0x30]
  106f72:	66 0f 28 54 24 70    	movapd xmm2,XMMWORD PTR [rsp+0x70]
  106f78:	4c 8d b4 24 20 01 00 	lea    r14,[rsp+0x120]
  106f7f:	00 
  106f80:	85 c0                	test   eax,eax
  106f82:	8b 4c 24 04          	mov    ecx,DWORD PTR [rsp+0x4]
  106f86:	0f 85 d7 0d 00 00    	jne    107d63 <_svfprintf_r+0x20f3>
  106f8c:	81 bc 24 00 01 00 00 	cmp    DWORD PTR [rsp+0x100],0x80
  106f93:	80 00 00 00 
  106f97:	74 20                	je     106fb9 <_svfprintf_r+0x1349>
  106f99:	e9 01 01 00 00       	jmp    10709f <_svfprintf_r+0x142f>
  106f9e:	66 90                	xchg   ax,ax
  106fa0:	49 83 c6 10          	add    r14,0x10
  106fa4:	8b 4c 24 04          	mov    ecx,DWORD PTR [rsp+0x4]
  106fa8:	81 bc 24 00 01 00 00 	cmp    DWORD PTR [rsp+0x100],0x80
  106faf:	80 00 00 00 
  106fb3:	0f 85 e6 00 00 00    	jne    10709f <_svfprintf_r+0x142f>
  106fb9:	48 8b 44 24 58       	mov    rax,QWORD PTR [rsp+0x58]
  106fbe:	85 c0                	test   eax,eax
  106fc0:	0f 8e d9 00 00 00    	jle    10709f <_svfprintf_r+0x142f>
  106fc6:	83 f8 11             	cmp    eax,0x11
  106fc9:	72 75                	jb     107040 <_svfprintf_r+0x13d0>
  106fcb:	89 c3                	mov    ebx,eax
  106fcd:	eb 0f                	jmp    106fde <_svfprintf_r+0x136e>
  106fcf:	90                   	nop
  106fd0:	49 83 c6 10          	add    r14,0x10
  106fd4:	8d 43 f0             	lea    eax,[rbx-0x10]
  106fd7:	83 fb 20             	cmp    ebx,0x20
  106fda:	89 c3                	mov    ebx,eax
  106fdc:	7e 62                	jle    107040 <_svfprintf_r+0x13d0>
  106fde:	48 8d 05 0b 9b ff ff 	lea    rax,[rip+0xffffffffffff9b0b]        # 100af0 <_svfprintf_r.zeroes>
  106fe5:	49 89 06             	mov    QWORD PTR [r14],rax
  106fe8:	49 c7 46 08 10 00 00 	mov    QWORD PTR [r14+0x8],0x10
  106fef:	00 
  106ff0:	48 83 44 24 20 10    	add    QWORD PTR [rsp+0x20],0x10
  106ff6:	8b 44 24 18          	mov    eax,DWORD PTR [rsp+0x18]
  106ffa:	8d 48 01             	lea    ecx,[rax+0x1]
  106ffd:	89 4c 24 18          	mov    DWORD PTR [rsp+0x18],ecx
  107001:	83 f8 07             	cmp    eax,0x7
  107004:	7c ca                	jl     106fd0 <_svfprintf_r+0x1360>
  107006:	48 8b 7c 24 38       	mov    rdi,QWORD PTR [rsp+0x38]
  10700b:	48 8b 74 24 28       	mov    rsi,QWORD PTR [rsp+0x28]
  107010:	48 8d 54 24 10       	lea    rdx,[rsp+0x10]
  107015:	e8 86 1d 00 00       	call   108da0 <__ssprint_r>
  10701a:	4c 8b 5c 24 30       	mov    r11,QWORD PTR [rsp+0x30]
  10701f:	66 0f 28 54 24 70    	movapd xmm2,XMMWORD PTR [rsp+0x70]
  107025:	4c 8d b4 24 20 01 00 	lea    r14,[rsp+0x120]
  10702c:	00 
  10702d:	85 c0                	test   eax,eax
  10702f:	74 a3                	je     106fd4 <_svfprintf_r+0x1364>
  107031:	e9 28 0d 00 00       	jmp    107d5e <_svfprintf_r+0x20ee>
  107036:	66 2e 0f 1f 84 00 00 	cs nop WORD PTR [rax+rax*1+0x0]
  10703d:	00 00 00 
  107040:	48 8d 0d a9 9a ff ff 	lea    rcx,[rip+0xffffffffffff9aa9]        # 100af0 <_svfprintf_r.zeroes>
  107047:	49 89 0e             	mov    QWORD PTR [r14],rcx
  10704a:	89 c0                	mov    eax,eax
  10704c:	49 89 46 08          	mov    QWORD PTR [r14+0x8],rax
  107050:	48 01 44 24 20       	add    QWORD PTR [rsp+0x20],rax
  107055:	8b 44 24 18          	mov    eax,DWORD PTR [rsp+0x18]
  107059:	8d 48 01             	lea    ecx,[rax+0x1]
  10705c:	89 4c 24 18          	mov    DWORD PTR [rsp+0x18],ecx
  107060:	83 f8 07             	cmp    eax,0x7
  107063:	0f 8c 28 01 00 00    	jl     107191 <_svfprintf_r+0x1521>
  107069:	48 8b 7c 24 38       	mov    rdi,QWORD PTR [rsp+0x38]
  10706e:	48 8b 5c 24 28       	mov    rbx,QWORD PTR [rsp+0x28]
  107073:	48 89 de             	mov    rsi,rbx
  107076:	48 8d 54 24 10       	lea    rdx,[rsp+0x10]
  10707b:	e8 20 1d 00 00       	call   108da0 <__ssprint_r>
  107080:	4c 8b 5c 24 30       	mov    r11,QWORD PTR [rsp+0x30]
  107085:	66 0f 28 54 24 70    	movapd xmm2,XMMWORD PTR [rsp+0x70]
  10708b:	4c 8d b4 24 20 01 00 	lea    r14,[rsp+0x120]
  107092:	00 
  107093:	85 c0                	test   eax,eax
  107095:	8b 4c 24 04          	mov    ecx,DWORD PTR [rsp+0x4]
  107099:	0f 85 c4 0c 00 00    	jne    107d63 <_svfprintf_r+0x20f3>
  10709f:	44 2b bc 24 a8 00 00 	sub    r15d,DWORD PTR [rsp+0xa8]
  1070a6:	00 
  1070a7:	0f 8e 03 01 00 00    	jle    1071b0 <_svfprintf_r+0x1540>
  1070ad:	41 83 ff 11          	cmp    r15d,0x11
  1070b1:	73 7e                	jae    107131 <_svfprintf_r+0x14c1>
  1070b3:	44 89 f8             	mov    eax,r15d
  1070b6:	48 8d 0d 33 9a ff ff 	lea    rcx,[rip+0xffffffffffff9a33]        # 100af0 <_svfprintf_r.zeroes>
  1070bd:	49 89 0e             	mov    QWORD PTR [r14],rcx
  1070c0:	89 c0                	mov    eax,eax
  1070c2:	49 89 46 08          	mov    QWORD PTR [r14+0x8],rax
  1070c6:	48 01 44 24 20       	add    QWORD PTR [rsp+0x20],rax
  1070cb:	8b 44 24 18          	mov    eax,DWORD PTR [rsp+0x18]
  1070cf:	8d 48 01             	lea    ecx,[rax+0x1]
  1070d2:	89 4c 24 18          	mov    DWORD PTR [rsp+0x18],ecx
  1070d6:	83 f8 07             	cmp    eax,0x7
  1070d9:	0f 8c a8 00 00 00    	jl     107187 <_svfprintf_r+0x1517>
  1070df:	48 8b 7c 24 38       	mov    rdi,QWORD PTR [rsp+0x38]
  1070e4:	48 89 de             	mov    rsi,rbx
  1070e7:	48 8d 54 24 10       	lea    rdx,[rsp+0x10]
  1070ec:	e8 af 1c 00 00       	call   108da0 <__ssprint_r>
  1070f1:	4c 8b 5c 24 30       	mov    r11,QWORD PTR [rsp+0x30]
  1070f6:	66 0f 28 54 24 70    	movapd xmm2,XMMWORD PTR [rsp+0x70]
  1070fc:	4c 8d b4 24 20 01 00 	lea    r14,[rsp+0x120]
  107103:	00 
  107104:	85 c0                	test   eax,eax
  107106:	8b 4c 24 04          	mov    ecx,DWORD PTR [rsp+0x4]
  10710a:	0f 84 a0 00 00 00    	je     1071b0 <_svfprintf_r+0x1540>
  107110:	e9 4e 0c 00 00       	jmp    107d63 <_svfprintf_r+0x20f3>
  107115:	66 66 2e 0f 1f 84 00 	data16 cs nop WORD PTR [rax+rax*1+0x0]
  10711c:	00 00 00 00 
  107120:	49 83 c6 10          	add    r14,0x10
  107124:	41 8d 47 f0          	lea    eax,[r15-0x10]
  107128:	41 83 ff 20          	cmp    r15d,0x20
  10712c:	41 89 c7             	mov    r15d,eax
  10712f:	7e 85                	jle    1070b6 <_svfprintf_r+0x1446>
  107131:	48 8d 05 b8 99 ff ff 	lea    rax,[rip+0xffffffffffff99b8]        # 100af0 <_svfprintf_r.zeroes>
  107138:	49 89 06             	mov    QWORD PTR [r14],rax
  10713b:	49 c7 46 08 10 00 00 	mov    QWORD PTR [r14+0x8],0x10
  107142:	00 
  107143:	48 83 44 24 20 10    	add    QWORD PTR [rsp+0x20],0x10
  107149:	8b 44 24 18          	mov    eax,DWORD PTR [rsp+0x18]
  10714d:	8d 48 01             	lea    ecx,[rax+0x1]
  107150:	89 4c 24 18          	mov    DWORD PTR [rsp+0x18],ecx
  107154:	83 f8 07             	cmp    eax,0x7
  107157:	7c c7                	jl     107120 <_svfprintf_r+0x14b0>
  107159:	48 8b 7c 24 38       	mov    rdi,QWORD PTR [rsp+0x38]
  10715e:	48 89 de             	mov    rsi,rbx
  107161:	48 8d 54 24 10       	lea    rdx,[rsp+0x10]
  107166:	e8 35 1c 00 00       	call   108da0 <__ssprint_r>
  10716b:	4c 8b 5c 24 30       	mov    r11,QWORD PTR [rsp+0x30]
  107170:	66 0f 28 54 24 70    	movapd xmm2,XMMWORD PTR [rsp+0x70]
  107176:	4c 8d b4 24 20 01 00 	lea    r14,[rsp+0x120]
  10717d:	00 
  10717e:	85 c0                	test   eax,eax
  107180:	74 a2                	je     107124 <_svfprintf_r+0x14b4>
  107182:	e9 dc 0b 00 00       	jmp    107d63 <_svfprintf_r+0x20f3>
  107187:	49 83 c6 10          	add    r14,0x10
  10718b:	8b 4c 24 04          	mov    ecx,DWORD PTR [rsp+0x4]
  10718f:	eb 1f                	jmp    1071b0 <_svfprintf_r+0x1540>
  107191:	49 83 c6 10          	add    r14,0x10
  107195:	48 8b 5c 24 28       	mov    rbx,QWORD PTR [rsp+0x28]
  10719a:	8b 4c 24 04          	mov    ecx,DWORD PTR [rsp+0x4]
  10719e:	44 2b bc 24 a8 00 00 	sub    r15d,DWORD PTR [rsp+0xa8]
  1071a5:	00 
  1071a6:	0f 8f 01 ff ff ff    	jg     1070ad <_svfprintf_r+0x143d>
  1071ac:	0f 1f 40 00          	nop    DWORD PTR [rax+0x0]
  1071b0:	f7 c1 00 01 00 00    	test   ecx,0x100
  1071b6:	75 68                	jne    107220 <_svfprintf_r+0x15b0>
  1071b8:	4d 89 2e             	mov    QWORD PTR [r14],r13
  1071bb:	48 63 84 24 a8 00 00 	movsxd rax,DWORD PTR [rsp+0xa8]
  1071c2:	00 
  1071c3:	49 89 46 08          	mov    QWORD PTR [r14+0x8],rax
  1071c7:	48 01 44 24 20       	add    QWORD PTR [rsp+0x20],rax
  1071cc:	8b 44 24 18          	mov    eax,DWORD PTR [rsp+0x18]
  1071d0:	8d 48 01             	lea    ecx,[rax+0x1]
  1071d3:	89 4c 24 18          	mov    DWORD PTR [rsp+0x18],ecx
  1071d7:	83 f8 07             	cmp    eax,0x7
  1071da:	0f 8c c5 00 00 00    	jl     1072a5 <_svfprintf_r+0x1635>
  1071e0:	48 8b 7c 24 38       	mov    rdi,QWORD PTR [rsp+0x38]
  1071e5:	48 89 de             	mov    rsi,rbx
  1071e8:	48 8d 54 24 10       	lea    rdx,[rsp+0x10]
  1071ed:	e8 ae 1b 00 00       	call   108da0 <__ssprint_r>
  1071f2:	4c 8b 5c 24 30       	mov    r11,QWORD PTR [rsp+0x30]
  1071f7:	4c 8d bc 24 20 01 00 	lea    r15,[rsp+0x120]
  1071fe:	00 
  1071ff:	4d 89 fe             	mov    r14,r15
  107202:	85 c0                	test   eax,eax
  107204:	44 8b 6c 24 0c       	mov    r13d,DWORD PTR [rsp+0xc]
  107209:	8b 4c 24 04          	mov    ecx,DWORD PTR [rsp+0x4]
  10720d:	48 8b 6c 24 58       	mov    rbp,QWORD PTR [rsp+0x58]
  107212:	0f 84 58 09 00 00    	je     107b70 <_svfprintf_r+0x1f00>
  107218:	e9 4b 0b 00 00       	jmp    107d68 <_svfprintf_r+0x20f8>
  10721d:	0f 1f 00             	nop    DWORD PTR [rax]
  107220:	83 fd 66             	cmp    ebp,0x66
  107223:	0f 8c a4 00 00 00    	jl     1072cd <_svfprintf_r+0x165d>
  107229:	66 0f 2e 15 87 96 ff 	ucomisd xmm2,QWORD PTR [rip+0xffffffffffff9687]        # 1008b8 <_svfprintf_r.blanks-0x228>
  107230:	ff 
  107231:	4c 8d bc 24 20 01 00 	lea    r15,[rsp+0x120]
  107238:	00 
  107239:	0f 85 a1 01 00 00    	jne    1073e0 <_svfprintf_r+0x1770>
  10723f:	0f 8a 9b 01 00 00    	jp     1073e0 <_svfprintf_r+0x1770>
  107245:	48 8d 05 42 8f ff ff 	lea    rax,[rip+0xffffffffffff8f42]        # 10018e <_svfprintf_r.blanks-0x952>
  10724c:	49 89 06             	mov    QWORD PTR [r14],rax
  10724f:	49 c7 46 08 01 00 00 	mov    QWORD PTR [r14+0x8],0x1
  107256:	00 
  107257:	48 ff 44 24 20       	inc    QWORD PTR [rsp+0x20]
  10725c:	8b 44 24 18          	mov    eax,DWORD PTR [rsp+0x18]
  107260:	8d 48 01             	lea    ecx,[rax+0x1]
  107263:	89 4c 24 18          	mov    DWORD PTR [rsp+0x18],ecx
  107267:	83 f8 07             	cmp    eax,0x7
  10726a:	48 8b 6c 24 58       	mov    rbp,QWORD PTR [rsp+0x58]
  10726f:	0f 8c e6 01 00 00    	jl     10745b <_svfprintf_r+0x17eb>
  107275:	48 8b 7c 24 38       	mov    rdi,QWORD PTR [rsp+0x38]
  10727a:	48 89 de             	mov    rsi,rbx
  10727d:	48 8d 54 24 10       	lea    rdx,[rsp+0x10]
  107282:	e8 19 1b 00 00       	call   108da0 <__ssprint_r>
  107287:	4c 8b 5c 24 30       	mov    r11,QWORD PTR [rsp+0x30]
  10728c:	4d 89 fe             	mov    r14,r15
  10728f:	85 c0                	test   eax,eax
  107291:	44 8b 6c 24 0c       	mov    r13d,DWORD PTR [rsp+0xc]
  107296:	8b 4c 24 04          	mov    ecx,DWORD PTR [rsp+0x4]
  10729a:	0f 84 c8 01 00 00    	je     107468 <_svfprintf_r+0x17f8>
  1072a0:	e9 c3 0a 00 00       	jmp    107d68 <_svfprintf_r+0x20f8>
  1072a5:	49 83 c6 10          	add    r14,0x10
  1072a9:	44 8b 6c 24 0c       	mov    r13d,DWORD PTR [rsp+0xc]
  1072ae:	4c 8d bc 24 20 01 00 	lea    r15,[rsp+0x120]
  1072b5:	00 
  1072b6:	8b 4c 24 04          	mov    ecx,DWORD PTR [rsp+0x4]
  1072ba:	48 8b 6c 24 58       	mov    rbp,QWORD PTR [rsp+0x58]
  1072bf:	f6 c1 04             	test   cl,0x4
  1072c2:	0f 85 b1 08 00 00    	jne    107b79 <_svfprintf_r+0x1f09>
  1072c8:	e9 83 09 00 00       	jmp    107c50 <_svfprintf_r+0x1fe0>
  1072cd:	4d 89 2e             	mov    QWORD PTR [r14],r13
  1072d0:	49 c7 46 08 01 00 00 	mov    QWORD PTR [r14+0x8],0x1
  1072d7:	00 
  1072d8:	48 8b 44 24 20       	mov    rax,QWORD PTR [rsp+0x20]
  1072dd:	48 ff c0             	inc    rax
  1072e0:	49 83 c6 10          	add    r14,0x10
  1072e4:	8b 54 24 18          	mov    edx,DWORD PTR [rsp+0x18]
  1072e8:	8d 4a 01             	lea    ecx,[rdx+0x1]
  1072eb:	48 89 44 24 20       	mov    QWORD PTR [rsp+0x20],rax
  1072f0:	89 4c 24 18          	mov    DWORD PTR [rsp+0x18],ecx
  1072f4:	83 bc 24 90 00 00 00 	cmp    DWORD PTR [rsp+0x90],0x1
  1072fb:	01 
  1072fc:	4c 8d bc 24 20 01 00 	lea    r15,[rsp+0x120]
  107303:	00 
  107304:	7f 43                	jg     107349 <_svfprintf_r+0x16d9>
  107306:	8b 74 24 04          	mov    esi,DWORD PTR [rsp+0x4]
  10730a:	83 e6 01             	and    esi,0x1
  10730d:	75 3a                	jne    107349 <_svfprintf_r+0x16d9>
  10730f:	83 fa 07             	cmp    edx,0x7
  107312:	44 8b 6c 24 0c       	mov    r13d,DWORD PTR [rsp+0xc]
  107317:	48 8b 6c 24 58       	mov    rbp,QWORD PTR [rsp+0x58]
  10731c:	0f 8c f7 07 00 00    	jl     107b19 <_svfprintf_r+0x1ea9>
  107322:	48 8b 7c 24 38       	mov    rdi,QWORD PTR [rsp+0x38]
  107327:	48 89 de             	mov    rsi,rbx
  10732a:	48 8d 54 24 10       	lea    rdx,[rsp+0x10]
  10732f:	e8 6c 1a 00 00       	call   108da0 <__ssprint_r>
  107334:	4c 8b 5c 24 30       	mov    r11,QWORD PTR [rsp+0x30]
  107339:	4d 89 fe             	mov    r14,r15
  10733c:	85 c0                	test   eax,eax
  10733e:	0f 84 d5 07 00 00    	je     107b19 <_svfprintf_r+0x1ea9>
  107344:	e9 1f 0a 00 00       	jmp    107d68 <_svfprintf_r+0x20f8>
  107349:	83 fa 07             	cmp    edx,0x7
  10734c:	48 8b 6c 24 58       	mov    rbp,QWORD PTR [rsp+0x58]
  107351:	7c 31                	jl     107384 <_svfprintf_r+0x1714>
  107353:	48 8b 7c 24 38       	mov    rdi,QWORD PTR [rsp+0x38]
  107358:	48 89 de             	mov    rsi,rbx
  10735b:	48 8d 54 24 10       	lea    rdx,[rsp+0x10]
  107360:	e8 3b 1a 00 00       	call   108da0 <__ssprint_r>
  107365:	85 c0                	test   eax,eax
  107367:	0f 85 f6 09 00 00    	jne    107d63 <_svfprintf_r+0x20f3>
  10736d:	48 8b 44 24 20       	mov    rax,QWORD PTR [rsp+0x20]
  107372:	8b 4c 24 18          	mov    ecx,DWORD PTR [rsp+0x18]
  107376:	4d 89 fe             	mov    r14,r15
  107379:	66 0f 28 54 24 70    	movapd xmm2,XMMWORD PTR [rsp+0x70]
  10737f:	4c 8b 5c 24 30       	mov    r11,QWORD PTR [rsp+0x30]
  107384:	48 8b 94 24 b0 00 00 	mov    rdx,QWORD PTR [rsp+0xb0]
  10738b:	00 
  10738c:	49 89 16             	mov    QWORD PTR [r14],rdx
  10738f:	48 8b 94 24 a0 00 00 	mov    rdx,QWORD PTR [rsp+0xa0]
  107396:	00 
  107397:	49 89 56 08          	mov    QWORD PTR [r14+0x8],rdx
  10739b:	48 01 d0             	add    rax,rdx
  10739e:	48 89 44 24 20       	mov    QWORD PTR [rsp+0x20],rax
  1073a3:	8d 41 01             	lea    eax,[rcx+0x1]
  1073a6:	89 44 24 18          	mov    DWORD PTR [rsp+0x18],eax
  1073aa:	83 f9 07             	cmp    ecx,0x7
  1073ad:	0f 8c 25 01 00 00    	jl     1074d8 <_svfprintf_r+0x1868>
  1073b3:	48 8b 7c 24 38       	mov    rdi,QWORD PTR [rsp+0x38]
  1073b8:	48 89 de             	mov    rsi,rbx
  1073bb:	48 8d 54 24 10       	lea    rdx,[rsp+0x10]
  1073c0:	e8 db 19 00 00       	call   108da0 <__ssprint_r>
  1073c5:	4c 8b 5c 24 30       	mov    r11,QWORD PTR [rsp+0x30]
  1073ca:	66 0f 28 54 24 70    	movapd xmm2,XMMWORD PTR [rsp+0x70]
  1073d0:	4d 89 fe             	mov    r14,r15
  1073d3:	85 c0                	test   eax,eax
  1073d5:	0f 84 01 01 00 00    	je     1074dc <_svfprintf_r+0x186c>
  1073db:	e9 83 09 00 00       	jmp    107d63 <_svfprintf_r+0x20f3>
  1073e0:	8b 44 24 44          	mov    eax,DWORD PTR [rsp+0x44]
  1073e4:	85 c0                	test   eax,eax
  1073e6:	0f 8e 6f 02 00 00    	jle    10765b <_svfprintf_r+0x19eb>
  1073ec:	48 8b 84 24 90 00 00 	mov    rax,QWORD PTR [rsp+0x90]
  1073f3:	00 
  1073f4:	4c 8b bc 24 88 00 00 	mov    r15,QWORD PTR [rsp+0x88]
  1073fb:	00 
  1073fc:	44 39 f8             	cmp    eax,r15d
  1073ff:	44 89 fd             	mov    ebp,r15d
  107402:	0f 4c e8             	cmovl  ebp,eax
  107405:	85 ed                	test   ebp,ebp
  107407:	0f 8e bf 02 00 00    	jle    1076cc <_svfprintf_r+0x1a5c>
  10740d:	4d 89 2e             	mov    QWORD PTR [r14],r13
  107410:	89 e8                	mov    eax,ebp
  107412:	49 89 46 08          	mov    QWORD PTR [r14+0x8],rax
  107416:	48 01 44 24 20       	add    QWORD PTR [rsp+0x20],rax
  10741b:	8b 44 24 18          	mov    eax,DWORD PTR [rsp+0x18]
  10741f:	8d 48 01             	lea    ecx,[rax+0x1]
  107422:	89 4c 24 18          	mov    DWORD PTR [rsp+0x18],ecx
  107426:	83 f8 07             	cmp    eax,0x7
  107429:	0f 8c 99 02 00 00    	jl     1076c8 <_svfprintf_r+0x1a58>
  10742f:	48 8b 7c 24 38       	mov    rdi,QWORD PTR [rsp+0x38]
  107434:	48 89 de             	mov    rsi,rbx
  107437:	48 8d 54 24 10       	lea    rdx,[rsp+0x10]
  10743c:	e8 5f 19 00 00       	call   108da0 <__ssprint_r>
  107441:	4c 8b 5c 24 30       	mov    r11,QWORD PTR [rsp+0x30]
  107446:	4c 8d b4 24 20 01 00 	lea    r14,[rsp+0x120]
  10744d:	00 
  10744e:	85 c0                	test   eax,eax
  107450:	0f 84 76 02 00 00    	je     1076cc <_svfprintf_r+0x1a5c>
  107456:	e9 08 09 00 00       	jmp    107d63 <_svfprintf_r+0x20f3>
  10745b:	49 83 c6 10          	add    r14,0x10
  10745f:	44 8b 6c 24 0c       	mov    r13d,DWORD PTR [rsp+0xc]
  107464:	8b 4c 24 04          	mov    ecx,DWORD PTR [rsp+0x4]
  107468:	48 8b 84 24 90 00 00 	mov    rax,QWORD PTR [rsp+0x90]
  10746f:	00 
  107470:	39 44 24 44          	cmp    DWORD PTR [rsp+0x44],eax
  107474:	7c 0b                	jl     107481 <_svfprintf_r+0x1811>
  107476:	89 c8                	mov    eax,ecx
  107478:	83 e0 01             	and    eax,0x1
  10747b:	0f 84 ef 06 00 00    	je     107b70 <_svfprintf_r+0x1f00>
  107481:	48 8b 84 24 b0 00 00 	mov    rax,QWORD PTR [rsp+0xb0]
  107488:	00 
  107489:	49 89 06             	mov    QWORD PTR [r14],rax
  10748c:	48 8b 84 24 a0 00 00 	mov    rax,QWORD PTR [rsp+0xa0]
  107493:	00 
  107494:	49 89 46 08          	mov    QWORD PTR [r14+0x8],rax
  107498:	48 01 44 24 20       	add    QWORD PTR [rsp+0x20],rax
  10749d:	8b 44 24 18          	mov    eax,DWORD PTR [rsp+0x18]
  1074a1:	8d 48 01             	lea    ecx,[rax+0x1]
  1074a4:	89 4c 24 18          	mov    DWORD PTR [rsp+0x18],ecx
  1074a8:	83 f8 07             	cmp    eax,0x7
  1074ab:	0f 8c 12 01 00 00    	jl     1075c3 <_svfprintf_r+0x1953>
  1074b1:	48 8b 7c 24 38       	mov    rdi,QWORD PTR [rsp+0x38]
  1074b6:	48 89 de             	mov    rsi,rbx
  1074b9:	48 8d 54 24 10       	lea    rdx,[rsp+0x10]
  1074be:	e8 dd 18 00 00       	call   108da0 <__ssprint_r>
  1074c3:	4c 8b 5c 24 30       	mov    r11,QWORD PTR [rsp+0x30]
  1074c8:	4d 89 fe             	mov    r14,r15
  1074cb:	85 c0                	test   eax,eax
  1074cd:	0f 84 f4 00 00 00    	je     1075c7 <_svfprintf_r+0x1957>
  1074d3:	e9 90 08 00 00       	jmp    107d68 <_svfprintf_r+0x20f8>
  1074d8:	49 83 c6 10          	add    r14,0x10
  1074dc:	66 0f 2e 15 d4 93 ff 	ucomisd xmm2,QWORD PTR [rip+0xffffffffffff93d4]        # 1008b8 <_svfprintf_r.blanks-0x228>
  1074e3:	ff 
  1074e4:	75 02                	jne    1074e8 <_svfprintf_r+0x1878>
  1074e6:	7b 5a                	jnp    107542 <_svfprintf_r+0x18d2>
  1074e8:	49 ff c5             	inc    r13
  1074eb:	4d 89 2e             	mov    QWORD PTR [r14],r13
  1074ee:	48 63 84 24 90 00 00 	movsxd rax,DWORD PTR [rsp+0x90]
  1074f5:	00 
  1074f6:	48 ff c8             	dec    rax
  1074f9:	49 89 46 08          	mov    QWORD PTR [r14+0x8],rax
  1074fd:	48 01 44 24 20       	add    QWORD PTR [rsp+0x20],rax
  107502:	8b 44 24 18          	mov    eax,DWORD PTR [rsp+0x18]
  107506:	8d 48 01             	lea    ecx,[rax+0x1]
  107509:	89 4c 24 18          	mov    DWORD PTR [rsp+0x18],ecx
  10750d:	83 f8 07             	cmp    eax,0x7
  107510:	0f 8c 37 01 00 00    	jl     10764d <_svfprintf_r+0x19dd>
  107516:	48 8b 7c 24 38       	mov    rdi,QWORD PTR [rsp+0x38]
  10751b:	48 89 de             	mov    rsi,rbx
  10751e:	48 8d 54 24 10       	lea    rdx,[rsp+0x10]
  107523:	e8 78 18 00 00       	call   108da0 <__ssprint_r>
  107528:	4c 8b 5c 24 30       	mov    r11,QWORD PTR [rsp+0x30]
  10752d:	4d 89 fe             	mov    r14,r15
  107530:	85 c0                	test   eax,eax
  107532:	44 8b 6c 24 0c       	mov    r13d,DWORD PTR [rsp+0xc]
  107537:	0f 84 dc 05 00 00    	je     107b19 <_svfprintf_r+0x1ea9>
  10753d:	e9 26 08 00 00       	jmp    107d68 <_svfprintf_r+0x20f8>
  107542:	48 8b 84 24 90 00 00 	mov    rax,QWORD PTR [rsp+0x90]
  107549:	00 
  10754a:	83 f8 02             	cmp    eax,0x2
  10754d:	0f 8c 63 01 00 00    	jl     1076b6 <_svfprintf_r+0x1a46>
  107553:	83 f8 12             	cmp    eax,0x12
  107556:	0f 82 0f 05 00 00    	jb     107a6b <_svfprintf_r+0x1dfb>
  10755c:	8d 58 0f             	lea    ebx,[rax+0xf]
  10755f:	44 8b 6c 24 0c       	mov    r13d,DWORD PTR [rsp+0xc]
  107564:	eb 10                	jmp    107576 <_svfprintf_r+0x1906>
  107566:	49 83 c6 10          	add    r14,0x10
  10756a:	83 c3 f0             	add    ebx,0xfffffff0
  10756d:	83 fb 20             	cmp    ebx,0x20
  107570:	0f 8e 63 05 00 00    	jle    107ad9 <_svfprintf_r+0x1e69>
  107576:	48 8d 05 73 95 ff ff 	lea    rax,[rip+0xffffffffffff9573]        # 100af0 <_svfprintf_r.zeroes>
  10757d:	49 89 06             	mov    QWORD PTR [r14],rax
  107580:	49 c7 46 08 10 00 00 	mov    QWORD PTR [r14+0x8],0x10
  107587:	00 
  107588:	48 83 44 24 20 10    	add    QWORD PTR [rsp+0x20],0x10
  10758e:	8b 44 24 18          	mov    eax,DWORD PTR [rsp+0x18]
  107592:	8d 48 01             	lea    ecx,[rax+0x1]
  107595:	89 4c 24 18          	mov    DWORD PTR [rsp+0x18],ecx
  107599:	83 f8 07             	cmp    eax,0x7
  10759c:	7c c8                	jl     107566 <_svfprintf_r+0x18f6>
  10759e:	48 8b 7c 24 38       	mov    rdi,QWORD PTR [rsp+0x38]
  1075a3:	48 8b 74 24 28       	mov    rsi,QWORD PTR [rsp+0x28]
  1075a8:	48 8d 54 24 10       	lea    rdx,[rsp+0x10]
  1075ad:	e8 ee 17 00 00       	call   108da0 <__ssprint_r>
  1075b2:	4c 8b 5c 24 30       	mov    r11,QWORD PTR [rsp+0x30]
  1075b7:	4d 89 fe             	mov    r14,r15
  1075ba:	85 c0                	test   eax,eax
  1075bc:	74 ac                	je     10756a <_svfprintf_r+0x18fa>
  1075be:	e9 f2 07 00 00       	jmp    107db5 <_svfprintf_r+0x2145>
  1075c3:	49 83 c6 10          	add    r14,0x10
  1075c7:	48 8b 84 24 90 00 00 	mov    rax,QWORD PTR [rsp+0x90]
  1075ce:	00 
  1075cf:	83 f8 02             	cmp    eax,0x2
  1075d2:	0f 8c 65 06 00 00    	jl     107c3d <_svfprintf_r+0x1fcd>
  1075d8:	83 f8 12             	cmp    eax,0x12
  1075db:	0f 82 df 00 00 00    	jb     1076c0 <_svfprintf_r+0x1a50>
  1075e1:	8d 58 0f             	lea    ebx,[rax+0xf]
  1075e4:	eb 1a                	jmp    107600 <_svfprintf_r+0x1990>
  1075e6:	66 2e 0f 1f 84 00 00 	cs nop WORD PTR [rax+rax*1+0x0]
  1075ed:	00 00 00 
  1075f0:	49 83 c6 10          	add    r14,0x10
  1075f4:	83 c3 f0             	add    ebx,0xfffffff0
  1075f7:	83 fb 20             	cmp    ebx,0x20
  1075fa:	0f 8e 26 04 00 00    	jle    107a26 <_svfprintf_r+0x1db6>
  107600:	48 8d 05 e9 94 ff ff 	lea    rax,[rip+0xffffffffffff94e9]        # 100af0 <_svfprintf_r.zeroes>
  107607:	49 89 06             	mov    QWORD PTR [r14],rax
  10760a:	49 c7 46 08 10 00 00 	mov    QWORD PTR [r14+0x8],0x10
  107611:	00 
  107612:	48 83 44 24 20 10    	add    QWORD PTR [rsp+0x20],0x10
  107618:	8b 44 24 18          	mov    eax,DWORD PTR [rsp+0x18]
  10761c:	8d 48 01             	lea    ecx,[rax+0x1]
  10761f:	89 4c 24 18          	mov    DWORD PTR [rsp+0x18],ecx
  107623:	83 f8 07             	cmp    eax,0x7
  107626:	7c c8                	jl     1075f0 <_svfprintf_r+0x1980>
  107628:	48 8b 7c 24 38       	mov    rdi,QWORD PTR [rsp+0x38]
  10762d:	48 8b 74 24 28       	mov    rsi,QWORD PTR [rsp+0x28]
  107632:	48 8d 54 24 10       	lea    rdx,[rsp+0x10]
  107637:	e8 64 17 00 00       	call   108da0 <__ssprint_r>
  10763c:	4c 8b 5c 24 30       	mov    r11,QWORD PTR [rsp+0x30]
  107641:	4d 89 fe             	mov    r14,r15
  107644:	85 c0                	test   eax,eax
  107646:	74 ac                	je     1075f4 <_svfprintf_r+0x1984>
  107648:	e9 68 07 00 00       	jmp    107db5 <_svfprintf_r+0x2145>
  10764d:	49 83 c6 10          	add    r14,0x10
  107651:	44 8b 6c 24 0c       	mov    r13d,DWORD PTR [rsp+0xc]
  107656:	e9 be 04 00 00       	jmp    107b19 <_svfprintf_r+0x1ea9>
  10765b:	48 8d 0d 2c 8b ff ff 	lea    rcx,[rip+0xffffffffffff8b2c]        # 10018e <_svfprintf_r.blanks-0x952>
  107662:	49 89 0e             	mov    QWORD PTR [r14],rcx
  107665:	49 c7 46 08 01 00 00 	mov    QWORD PTR [r14+0x8],0x1
  10766c:	00 
  10766d:	48 ff 44 24 20       	inc    QWORD PTR [rsp+0x20]
  107672:	8b 4c 24 18          	mov    ecx,DWORD PTR [rsp+0x18]
  107676:	8d 51 01             	lea    edx,[rcx+0x1]
  107679:	89 54 24 18          	mov    DWORD PTR [rsp+0x18],edx
  10767d:	83 f9 07             	cmp    ecx,0x7
  107680:	0f 8c 37 01 00 00    	jl     1077bd <_svfprintf_r+0x1b4d>
  107686:	48 8b 7c 24 38       	mov    rdi,QWORD PTR [rsp+0x38]
  10768b:	48 89 de             	mov    rsi,rbx
  10768e:	48 8d 54 24 10       	lea    rdx,[rsp+0x10]
  107693:	e8 08 17 00 00       	call   108da0 <__ssprint_r>
  107698:	85 c0                	test   eax,eax
  10769a:	48 8b 6c 24 58       	mov    rbp,QWORD PTR [rsp+0x58]
  10769f:	0f 85 be 06 00 00    	jne    107d63 <_svfprintf_r+0x20f3>
  1076a5:	8b 44 24 44          	mov    eax,DWORD PTR [rsp+0x44]
  1076a9:	4d 89 fe             	mov    r14,r15
  1076ac:	4c 8b 5c 24 30       	mov    r11,QWORD PTR [rsp+0x30]
  1076b1:	e9 10 01 00 00       	jmp    1077c6 <_svfprintf_r+0x1b56>
  1076b6:	44 8b 6c 24 0c       	mov    r13d,DWORD PTR [rsp+0xc]
  1076bb:	e9 59 04 00 00       	jmp    107b19 <_svfprintf_r+0x1ea9>
  1076c0:	8d 58 ff             	lea    ebx,[rax-0x1]
  1076c3:	e9 61 03 00 00       	jmp    107a29 <_svfprintf_r+0x1db9>
  1076c8:	49 83 c6 10          	add    r14,0x10
  1076cc:	85 ed                	test   ebp,ebp
  1076ce:	b8 00 00 00 00       	mov    eax,0x0
  1076d3:	0f 4e e8             	cmovle ebp,eax
  1076d6:	44 89 fb             	mov    ebx,r15d
  1076d9:	29 eb                	sub    ebx,ebp
  1076db:	0f 8e ca 00 00 00    	jle    1077ab <_svfprintf_r+0x1b3b>
  1076e1:	83 fb 11             	cmp    ebx,0x11
  1076e4:	48 8d ac 24 20 01 00 	lea    rbp,[rsp+0x120]
  1076eb:	00 
  1076ec:	73 70                	jae    10775e <_svfprintf_r+0x1aee>
  1076ee:	89 d8                	mov    eax,ebx
  1076f0:	48 8d 0d f9 93 ff ff 	lea    rcx,[rip+0xffffffffffff93f9]        # 100af0 <_svfprintf_r.zeroes>
  1076f7:	49 89 0e             	mov    QWORD PTR [r14],rcx
  1076fa:	89 c0                	mov    eax,eax
  1076fc:	49 89 46 08          	mov    QWORD PTR [r14+0x8],rax
  107700:	48 01 44 24 20       	add    QWORD PTR [rsp+0x20],rax
  107705:	8b 44 24 18          	mov    eax,DWORD PTR [rsp+0x18]
  107709:	8d 48 01             	lea    ecx,[rax+0x1]
  10770c:	89 4c 24 18          	mov    DWORD PTR [rsp+0x18],ecx
  107710:	83 f8 07             	cmp    eax,0x7
  107713:	0f 8c 23 01 00 00    	jl     10783c <_svfprintf_r+0x1bcc>
  107719:	48 8b 7c 24 38       	mov    rdi,QWORD PTR [rsp+0x38]
  10771e:	48 8b 5c 24 28       	mov    rbx,QWORD PTR [rsp+0x28]
  107723:	48 89 de             	mov    rsi,rbx
  107726:	48 8d 54 24 10       	lea    rdx,[rsp+0x10]
  10772b:	e8 70 16 00 00       	call   108da0 <__ssprint_r>
  107730:	4c 8b 5c 24 30       	mov    r11,QWORD PTR [rsp+0x30]
  107735:	49 89 ee             	mov    r14,rbp
  107738:	85 c0                	test   eax,eax
  10773a:	0f 84 05 01 00 00    	je     107845 <_svfprintf_r+0x1bd5>
  107740:	e9 1e 06 00 00       	jmp    107d63 <_svfprintf_r+0x20f3>
  107745:	66 66 2e 0f 1f 84 00 	data16 cs nop WORD PTR [rax+rax*1+0x0]
  10774c:	00 00 00 00 
  107750:	49 83 c6 10          	add    r14,0x10
  107754:	8d 43 f0             	lea    eax,[rbx-0x10]
  107757:	83 fb 20             	cmp    ebx,0x20
  10775a:	89 c3                	mov    ebx,eax
  10775c:	7e 92                	jle    1076f0 <_svfprintf_r+0x1a80>
  10775e:	48 8d 05 8b 93 ff ff 	lea    rax,[rip+0xffffffffffff938b]        # 100af0 <_svfprintf_r.zeroes>
  107765:	49 89 06             	mov    QWORD PTR [r14],rax
  107768:	49 c7 46 08 10 00 00 	mov    QWORD PTR [r14+0x8],0x10
  10776f:	00 
  107770:	48 83 44 24 20 10    	add    QWORD PTR [rsp+0x20],0x10
  107776:	8b 44 24 18          	mov    eax,DWORD PTR [rsp+0x18]
  10777a:	8d 48 01             	lea    ecx,[rax+0x1]
  10777d:	89 4c 24 18          	mov    DWORD PTR [rsp+0x18],ecx
  107781:	83 f8 07             	cmp    eax,0x7
  107784:	7c ca                	jl     107750 <_svfprintf_r+0x1ae0>
  107786:	48 8b 7c 24 38       	mov    rdi,QWORD PTR [rsp+0x38]
  10778b:	48 8b 74 24 28       	mov    rsi,QWORD PTR [rsp+0x28]
  107790:	48 8d 54 24 10       	lea    rdx,[rsp+0x10]
  107795:	e8 06 16 00 00       	call   108da0 <__ssprint_r>
  10779a:	4c 8b 5c 24 30       	mov    r11,QWORD PTR [rsp+0x30]
  10779f:	49 89 ee             	mov    r14,rbp
  1077a2:	85 c0                	test   eax,eax
  1077a4:	74 ae                	je     107754 <_svfprintf_r+0x1ae4>
  1077a6:	e9 b3 05 00 00       	jmp    107d5e <_svfprintf_r+0x20ee>
  1077ab:	48 8b 5c 24 28       	mov    rbx,QWORD PTR [rsp+0x28]
  1077b0:	48 8d ac 24 20 01 00 	lea    rbp,[rsp+0x120]
  1077b7:	00 
  1077b8:	e9 88 00 00 00       	jmp    107845 <_svfprintf_r+0x1bd5>
  1077bd:	49 83 c6 10          	add    r14,0x10
  1077c1:	48 8b 6c 24 58       	mov    rbp,QWORD PTR [rsp+0x58]
  1077c6:	85 c0                	test   eax,eax
  1077c8:	75 17                	jne    1077e1 <_svfprintf_r+0x1b71>
  1077ca:	83 bc 24 90 00 00 00 	cmp    DWORD PTR [rsp+0x90],0x0
  1077d1:	00 
  1077d2:	75 0d                	jne    1077e1 <_svfprintf_r+0x1b71>
  1077d4:	8b 4c 24 04          	mov    ecx,DWORD PTR [rsp+0x4]
  1077d8:	83 e1 01             	and    ecx,0x1
  1077db:	0f 84 ee 02 00 00    	je     107acf <_svfprintf_r+0x1e5f>
  1077e1:	48 8b 8c 24 b0 00 00 	mov    rcx,QWORD PTR [rsp+0xb0]
  1077e8:	00 
  1077e9:	49 89 0e             	mov    QWORD PTR [r14],rcx
  1077ec:	48 8b 8c 24 a0 00 00 	mov    rcx,QWORD PTR [rsp+0xa0]
  1077f3:	00 
  1077f4:	49 89 4e 08          	mov    QWORD PTR [r14+0x8],rcx
  1077f8:	48 01 4c 24 20       	add    QWORD PTR [rsp+0x20],rcx
  1077fd:	8b 4c 24 18          	mov    ecx,DWORD PTR [rsp+0x18]
  107801:	8d 51 01             	lea    edx,[rcx+0x1]
  107804:	89 54 24 18          	mov    DWORD PTR [rsp+0x18],edx
  107808:	83 f9 07             	cmp    ecx,0x7
  10780b:	0f 8c 64 02 00 00    	jl     107a75 <_svfprintf_r+0x1e05>
  107811:	48 8b 7c 24 38       	mov    rdi,QWORD PTR [rsp+0x38]
  107816:	48 89 de             	mov    rsi,rbx
  107819:	48 8d 54 24 10       	lea    rdx,[rsp+0x10]
  10781e:	e8 7d 15 00 00       	call   108da0 <__ssprint_r>
  107823:	85 c0                	test   eax,eax
  107825:	0f 85 38 05 00 00    	jne    107d63 <_svfprintf_r+0x20f3>
  10782b:	8b 44 24 44          	mov    eax,DWORD PTR [rsp+0x44]
  10782f:	4d 89 fe             	mov    r14,r15
  107832:	4c 8b 5c 24 30       	mov    r11,QWORD PTR [rsp+0x30]
  107837:	e9 3d 02 00 00       	jmp    107a79 <_svfprintf_r+0x1e09>
  10783c:	49 83 c6 10          	add    r14,0x10
  107840:	48 8b 5c 24 28       	mov    rbx,QWORD PTR [rsp+0x28]
  107845:	8b 44 24 44          	mov    eax,DWORD PTR [rsp+0x44]
  107849:	3b 84 24 90 00 00 00 	cmp    eax,DWORD PTR [rsp+0x90]
  107850:	7c 09                	jl     10785b <_svfprintf_r+0x1beb>
  107852:	8b 4c 24 04          	mov    ecx,DWORD PTR [rsp+0x4]
  107856:	83 e1 01             	and    ecx,0x1
  107859:	74 58                	je     1078b3 <_svfprintf_r+0x1c43>
  10785b:	48 8b 8c 24 b0 00 00 	mov    rcx,QWORD PTR [rsp+0xb0]
  107862:	00 
  107863:	49 89 0e             	mov    QWORD PTR [r14],rcx
  107866:	48 8b 8c 24 a0 00 00 	mov    rcx,QWORD PTR [rsp+0xa0]
  10786d:	00 
  10786e:	49 89 4e 08          	mov    QWORD PTR [r14+0x8],rcx
  107872:	48 01 4c 24 20       	add    QWORD PTR [rsp+0x20],rcx
  107877:	8b 4c 24 18          	mov    ecx,DWORD PTR [rsp+0x18]
  10787b:	8d 51 01             	lea    edx,[rcx+0x1]
  10787e:	89 54 24 18          	mov    DWORD PTR [rsp+0x18],edx
  107882:	83 f9 07             	cmp    ecx,0x7
  107885:	7c 28                	jl     1078af <_svfprintf_r+0x1c3f>
  107887:	48 8b 7c 24 38       	mov    rdi,QWORD PTR [rsp+0x38]
  10788c:	48 89 de             	mov    rsi,rbx
  10788f:	48 8d 54 24 10       	lea    rdx,[rsp+0x10]
  107894:	e8 07 15 00 00       	call   108da0 <__ssprint_r>
  107899:	85 c0                	test   eax,eax
  10789b:	0f 85 c2 04 00 00    	jne    107d63 <_svfprintf_r+0x20f3>
  1078a1:	8b 44 24 44          	mov    eax,DWORD PTR [rsp+0x44]
  1078a5:	49 89 ee             	mov    r14,rbp
  1078a8:	4c 8b 5c 24 30       	mov    r11,QWORD PTR [rsp+0x30]
  1078ad:	eb 04                	jmp    1078b3 <_svfprintf_r+0x1c43>
  1078af:	49 83 c6 10          	add    r14,0x10
  1078b3:	49 63 cf             	movsxd rcx,r15d
  1078b6:	4c 01 e9             	add    rcx,r13
  1078b9:	48 8b 94 24 90 00 00 	mov    rdx,QWORD PTR [rsp+0x90]
  1078c0:	00 
  1078c1:	41 01 d5             	add    r13d,edx
  1078c4:	41 29 cd             	sub    r13d,ecx
  1078c7:	89 d3                	mov    ebx,edx
  1078c9:	29 c3                	sub    ebx,eax
  1078cb:	44 39 eb             	cmp    ebx,r13d
  1078ce:	41 0f 4d dd          	cmovge ebx,r13d
  1078d2:	85 db                	test   ebx,ebx
  1078d4:	7e 4d                	jle    107923 <_svfprintf_r+0x1cb3>
  1078d6:	49 89 0e             	mov    QWORD PTR [r14],rcx
  1078d9:	89 d9                	mov    ecx,ebx
  1078db:	49 89 4e 08          	mov    QWORD PTR [r14+0x8],rcx
  1078df:	48 01 4c 24 20       	add    QWORD PTR [rsp+0x20],rcx
  1078e4:	8b 4c 24 18          	mov    ecx,DWORD PTR [rsp+0x18]
  1078e8:	8d 51 01             	lea    edx,[rcx+0x1]
  1078eb:	89 54 24 18          	mov    DWORD PTR [rsp+0x18],edx
  1078ef:	83 f9 07             	cmp    ecx,0x7
  1078f2:	44 8b 6c 24 0c       	mov    r13d,DWORD PTR [rsp+0xc]
  1078f7:	7c 31                	jl     10792a <_svfprintf_r+0x1cba>
  1078f9:	48 8b 7c 24 38       	mov    rdi,QWORD PTR [rsp+0x38]
  1078fe:	48 8b 74 24 28       	mov    rsi,QWORD PTR [rsp+0x28]
  107903:	48 8d 54 24 10       	lea    rdx,[rsp+0x10]
  107908:	e8 93 14 00 00       	call   108da0 <__ssprint_r>
  10790d:	85 c0                	test   eax,eax
  10790f:	0f 85 a0 04 00 00    	jne    107db5 <_svfprintf_r+0x2145>
  107915:	8b 44 24 44          	mov    eax,DWORD PTR [rsp+0x44]
  107919:	49 89 ee             	mov    r14,rbp
  10791c:	4c 8b 5c 24 30       	mov    r11,QWORD PTR [rsp+0x30]
  107921:	eb 0b                	jmp    10792e <_svfprintf_r+0x1cbe>
  107923:	44 8b 6c 24 0c       	mov    r13d,DWORD PTR [rsp+0xc]
  107928:	eb 04                	jmp    10792e <_svfprintf_r+0x1cbe>
  10792a:	49 83 c6 10          	add    r14,0x10
  10792e:	85 db                	test   ebx,ebx
  107930:	b9 00 00 00 00       	mov    ecx,0x0
  107935:	0f 4e d9             	cmovle ebx,ecx
  107938:	01 c3                	add    ebx,eax
  10793a:	48 8b ac 24 90 00 00 	mov    rbp,QWORD PTR [rsp+0x90]
  107941:	00 
  107942:	29 dd                	sub    ebp,ebx
  107944:	85 ed                	test   ebp,ebp
  107946:	7e 76                	jle    1079be <_svfprintf_r+0x1d4e>
  107948:	83 fd 11             	cmp    ebp,0x11
  10794b:	72 7b                	jb     1079c8 <_svfprintf_r+0x1d58>
  10794d:	48 8b 5c 24 28       	mov    rbx,QWORD PTR [rsp+0x28]
  107952:	eb 1a                	jmp    10796e <_svfprintf_r+0x1cfe>
  107954:	66 66 66 2e 0f 1f 84 	data16 data16 cs nop WORD PTR [rax+rax*1+0x0]
  10795b:	00 00 00 00 00 
  107960:	49 83 c6 10          	add    r14,0x10
  107964:	8d 45 f0             	lea    eax,[rbp-0x10]
  107967:	83 fd 20             	cmp    ebp,0x20
  10796a:	89 c5                	mov    ebp,eax
  10796c:	7e 61                	jle    1079cf <_svfprintf_r+0x1d5f>
  10796e:	48 8d 05 7b 91 ff ff 	lea    rax,[rip+0xffffffffffff917b]        # 100af0 <_svfprintf_r.zeroes>
  107975:	49 89 06             	mov    QWORD PTR [r14],rax
  107978:	49 c7 46 08 10 00 00 	mov    QWORD PTR [r14+0x8],0x10
  10797f:	00 
  107980:	48 83 44 24 20 10    	add    QWORD PTR [rsp+0x20],0x10
  107986:	8b 44 24 18          	mov    eax,DWORD PTR [rsp+0x18]
  10798a:	8d 48 01             	lea    ecx,[rax+0x1]
  10798d:	89 4c 24 18          	mov    DWORD PTR [rsp+0x18],ecx
  107991:	83 f8 07             	cmp    eax,0x7
  107994:	7c ca                	jl     107960 <_svfprintf_r+0x1cf0>
  107996:	48 8b 7c 24 38       	mov    rdi,QWORD PTR [rsp+0x38]
  10799b:	48 89 de             	mov    rsi,rbx
  10799e:	48 8d 54 24 10       	lea    rdx,[rsp+0x10]
  1079a3:	e8 f8 13 00 00       	call   108da0 <__ssprint_r>
  1079a8:	4c 8b 5c 24 30       	mov    r11,QWORD PTR [rsp+0x30]
  1079ad:	4c 8d b4 24 20 01 00 	lea    r14,[rsp+0x120]
  1079b4:	00 
  1079b5:	85 c0                	test   eax,eax
  1079b7:	74 ab                	je     107964 <_svfprintf_r+0x1cf4>
  1079b9:	e9 aa 03 00 00       	jmp    107d68 <_svfprintf_r+0x20f8>
  1079be:	48 8b 5c 24 28       	mov    rbx,QWORD PTR [rsp+0x28]
  1079c3:	e9 e6 f8 ff ff       	jmp    1072ae <_svfprintf_r+0x163e>
  1079c8:	89 e8                	mov    eax,ebp
  1079ca:	48 8b 5c 24 28       	mov    rbx,QWORD PTR [rsp+0x28]
  1079cf:	48 8d 0d 1a 91 ff ff 	lea    rcx,[rip+0xffffffffffff911a]        # 100af0 <_svfprintf_r.zeroes>
  1079d6:	49 89 0e             	mov    QWORD PTR [r14],rcx
  1079d9:	89 c0                	mov    eax,eax
  1079db:	49 89 46 08          	mov    QWORD PTR [r14+0x8],rax
  1079df:	48 01 44 24 20       	add    QWORD PTR [rsp+0x20],rax
  1079e4:	8b 44 24 18          	mov    eax,DWORD PTR [rsp+0x18]
  1079e8:	8d 48 01             	lea    ecx,[rax+0x1]
  1079eb:	89 4c 24 18          	mov    DWORD PTR [rsp+0x18],ecx
  1079ef:	83 f8 07             	cmp    eax,0x7
  1079f2:	7c 29                	jl     107a1d <_svfprintf_r+0x1dad>
  1079f4:	48 8b 7c 24 38       	mov    rdi,QWORD PTR [rsp+0x38]
  1079f9:	48 89 de             	mov    rsi,rbx
  1079fc:	48 8d 54 24 10       	lea    rdx,[rsp+0x10]
  107a01:	e8 9a 13 00 00       	call   108da0 <__ssprint_r>
  107a06:	4c 8b 5c 24 30       	mov    r11,QWORD PTR [rsp+0x30]
  107a0b:	4c 8d bc 24 20 01 00 	lea    r15,[rsp+0x120]
  107a12:	00 
  107a13:	4d 89 fe             	mov    r14,r15
  107a16:	85 c0                	test   eax,eax
  107a18:	e9 ec f7 ff ff       	jmp    107209 <_svfprintf_r+0x1599>
  107a1d:	49 83 c6 10          	add    r14,0x10
  107a21:	e9 88 f8 ff ff       	jmp    1072ae <_svfprintf_r+0x163e>
  107a26:	83 c3 f0             	add    ebx,0xfffffff0
  107a29:	48 8d 05 c0 90 ff ff 	lea    rax,[rip+0xffffffffffff90c0]        # 100af0 <_svfprintf_r.zeroes>
  107a30:	49 89 06             	mov    QWORD PTR [r14],rax
  107a33:	89 d8                	mov    eax,ebx
  107a35:	49 89 46 08          	mov    QWORD PTR [r14+0x8],rax
  107a39:	48 01 44 24 20       	add    QWORD PTR [rsp+0x20],rax
  107a3e:	8b 44 24 18          	mov    eax,DWORD PTR [rsp+0x18]
  107a42:	8d 48 01             	lea    ecx,[rax+0x1]
  107a45:	89 4c 24 18          	mov    DWORD PTR [rsp+0x18],ecx
  107a49:	83 f8 07             	cmp    eax,0x7
  107a4c:	7c 0f                	jl     107a5d <_svfprintf_r+0x1ded>
  107a4e:	48 8b 7c 24 38       	mov    rdi,QWORD PTR [rsp+0x38]
  107a53:	48 8b 5c 24 28       	mov    rbx,QWORD PTR [rsp+0x28]
  107a58:	e9 ee 00 00 00       	jmp    107b4b <_svfprintf_r+0x1edb>
  107a5d:	49 83 c6 10          	add    r14,0x10
  107a61:	48 8b 5c 24 28       	mov    rbx,QWORD PTR [rsp+0x28]
  107a66:	e9 d2 01 00 00       	jmp    107c3d <_svfprintf_r+0x1fcd>
  107a6b:	8d 58 ff             	lea    ebx,[rax-0x1]
  107a6e:	44 8b 6c 24 0c       	mov    r13d,DWORD PTR [rsp+0xc]
  107a73:	eb 67                	jmp    107adc <_svfprintf_r+0x1e6c>
  107a75:	49 83 c6 10          	add    r14,0x10
  107a79:	85 c0                	test   eax,eax
  107a7b:	0f 88 1a 02 00 00    	js     107c9b <_svfprintf_r+0x202b>
  107a81:	4d 89 2e             	mov    QWORD PTR [r14],r13
  107a84:	48 63 84 24 90 00 00 	movsxd rax,DWORD PTR [rsp+0x90]
  107a8b:	00 
  107a8c:	49 89 46 08          	mov    QWORD PTR [r14+0x8],rax
  107a90:	48 01 44 24 20       	add    QWORD PTR [rsp+0x20],rax
  107a95:	8b 44 24 18          	mov    eax,DWORD PTR [rsp+0x18]
  107a99:	8d 48 01             	lea    ecx,[rax+0x1]
  107a9c:	89 4c 24 18          	mov    DWORD PTR [rsp+0x18],ecx
  107aa0:	83 f8 07             	cmp    eax,0x7
  107aa3:	7c 26                	jl     107acb <_svfprintf_r+0x1e5b>
  107aa5:	48 8b 7c 24 38       	mov    rdi,QWORD PTR [rsp+0x38]
  107aaa:	48 89 de             	mov    rsi,rbx
  107aad:	48 8d 54 24 10       	lea    rdx,[rsp+0x10]
  107ab2:	e8 e9 12 00 00       	call   108da0 <__ssprint_r>
  107ab7:	4c 8b 5c 24 30       	mov    r11,QWORD PTR [rsp+0x30]
  107abc:	4d 89 fe             	mov    r14,r15
  107abf:	85 c0                	test   eax,eax
  107ac1:	44 8b 6c 24 0c       	mov    r13d,DWORD PTR [rsp+0xc]
  107ac6:	e9 97 00 00 00       	jmp    107b62 <_svfprintf_r+0x1ef2>
  107acb:	49 83 c6 10          	add    r14,0x10
  107acf:	44 8b 6c 24 0c       	mov    r13d,DWORD PTR [rsp+0xc]
  107ad4:	e9 64 01 00 00       	jmp    107c3d <_svfprintf_r+0x1fcd>
  107ad9:	83 c3 f0             	add    ebx,0xfffffff0
  107adc:	48 8d 05 0d 90 ff ff 	lea    rax,[rip+0xffffffffffff900d]        # 100af0 <_svfprintf_r.zeroes>
  107ae3:	49 89 06             	mov    QWORD PTR [r14],rax
  107ae6:	89 d8                	mov    eax,ebx
  107ae8:	49 89 46 08          	mov    QWORD PTR [r14+0x8],rax
  107aec:	48 01 44 24 20       	add    QWORD PTR [rsp+0x20],rax
  107af1:	8b 44 24 18          	mov    eax,DWORD PTR [rsp+0x18]
  107af5:	8d 48 01             	lea    ecx,[rax+0x1]
  107af8:	89 4c 24 18          	mov    DWORD PTR [rsp+0x18],ecx
  107afc:	83 f8 07             	cmp    eax,0x7
  107aff:	7c 0f                	jl     107b10 <_svfprintf_r+0x1ea0>
  107b01:	48 8b 7c 24 38       	mov    rdi,QWORD PTR [rsp+0x38]
  107b06:	48 8b 5c 24 28       	mov    rbx,QWORD PTR [rsp+0x28]
  107b0b:	e9 17 f8 ff ff       	jmp    107327 <_svfprintf_r+0x16b7>
  107b10:	49 83 c6 10          	add    r14,0x10
  107b14:	48 8b 5c 24 28       	mov    rbx,QWORD PTR [rsp+0x28]
  107b19:	48 8d 44 24 67       	lea    rax,[rsp+0x67]
  107b1e:	49 89 06             	mov    QWORD PTR [r14],rax
  107b21:	48 63 84 24 c8 00 00 	movsxd rax,DWORD PTR [rsp+0xc8]
  107b28:	00 
  107b29:	49 89 46 08          	mov    QWORD PTR [r14+0x8],rax
  107b2d:	48 01 44 24 20       	add    QWORD PTR [rsp+0x20],rax
  107b32:	8b 44 24 18          	mov    eax,DWORD PTR [rsp+0x18]
  107b36:	8d 48 01             	lea    ecx,[rax+0x1]
  107b39:	89 4c 24 18          	mov    DWORD PTR [rsp+0x18],ecx
  107b3d:	83 f8 07             	cmp    eax,0x7
  107b40:	0f 8c f3 00 00 00    	jl     107c39 <_svfprintf_r+0x1fc9>
  107b46:	48 8b 7c 24 38       	mov    rdi,QWORD PTR [rsp+0x38]
  107b4b:	48 89 de             	mov    rsi,rbx
  107b4e:	48 8d 54 24 10       	lea    rdx,[rsp+0x10]
  107b53:	e8 48 12 00 00       	call   108da0 <__ssprint_r>
  107b58:	4c 8b 5c 24 30       	mov    r11,QWORD PTR [rsp+0x30]
  107b5d:	4d 89 fe             	mov    r14,r15
  107b60:	85 c0                	test   eax,eax
  107b62:	8b 4c 24 04          	mov    ecx,DWORD PTR [rsp+0x4]
  107b66:	0f 85 fc 01 00 00    	jne    107d68 <_svfprintf_r+0x20f8>
  107b6c:	0f 1f 40 00          	nop    DWORD PTR [rax+0x0]
  107b70:	f6 c1 04             	test   cl,0x4
  107b73:	0f 84 d7 00 00 00    	je     107c50 <_svfprintf_r+0x1fe0>
  107b79:	85 ed                	test   ebp,ebp
  107b7b:	0f 8e cf 00 00 00    	jle    107c50 <_svfprintf_r+0x1fe0>
  107b81:	83 fd 11             	cmp    ebp,0x11
  107b84:	73 68                	jae    107bee <_svfprintf_r+0x1f7e>
  107b86:	89 e8                	mov    eax,ebp
  107b88:	48 8d 0d 51 8f ff ff 	lea    rcx,[rip+0xffffffffffff8f51]        # 100ae0 <_svfprintf_r.blanks>
  107b8f:	49 89 0e             	mov    QWORD PTR [r14],rcx
  107b92:	89 c0                	mov    eax,eax
  107b94:	49 89 46 08          	mov    QWORD PTR [r14+0x8],rax
  107b98:	48 03 44 24 20       	add    rax,QWORD PTR [rsp+0x20]
  107b9d:	48 89 44 24 20       	mov    QWORD PTR [rsp+0x20],rax
  107ba2:	8b 4c 24 18          	mov    ecx,DWORD PTR [rsp+0x18]
  107ba6:	8d 51 01             	lea    edx,[rcx+0x1]
  107ba9:	89 54 24 18          	mov    DWORD PTR [rsp+0x18],edx
  107bad:	83 f9 07             	cmp    ecx,0x7
  107bb0:	0f 8c 9f 00 00 00    	jl     107c55 <_svfprintf_r+0x1fe5>
  107bb6:	48 8b 7c 24 38       	mov    rdi,QWORD PTR [rsp+0x38]
  107bbb:	48 89 de             	mov    rsi,rbx
  107bbe:	48 8d 54 24 10       	lea    rdx,[rsp+0x10]
  107bc3:	e8 d8 11 00 00       	call   108da0 <__ssprint_r>
  107bc8:	4c 8b 5c 24 30       	mov    r11,QWORD PTR [rsp+0x30]
  107bcd:	85 c0                	test   eax,eax
  107bcf:	74 7f                	je     107c50 <_svfprintf_r+0x1fe0>
  107bd1:	e9 92 01 00 00       	jmp    107d68 <_svfprintf_r+0x20f8>
  107bd6:	66 2e 0f 1f 84 00 00 	cs nop WORD PTR [rax+rax*1+0x0]
  107bdd:	00 00 00 
  107be0:	49 83 c6 10          	add    r14,0x10
  107be4:	8d 45 f0             	lea    eax,[rbp-0x10]
  107be7:	83 fd 20             	cmp    ebp,0x20
  107bea:	89 c5                	mov    ebp,eax
  107bec:	7e 9a                	jle    107b88 <_svfprintf_r+0x1f18>
  107bee:	48 8d 05 eb 8e ff ff 	lea    rax,[rip+0xffffffffffff8eeb]        # 100ae0 <_svfprintf_r.blanks>
  107bf5:	49 89 06             	mov    QWORD PTR [r14],rax
  107bf8:	49 c7 46 08 10 00 00 	mov    QWORD PTR [r14+0x8],0x10
  107bff:	00 
  107c00:	48 83 44 24 20 10    	add    QWORD PTR [rsp+0x20],0x10
  107c06:	8b 44 24 18          	mov    eax,DWORD PTR [rsp+0x18]
  107c0a:	8d 48 01             	lea    ecx,[rax+0x1]
  107c0d:	89 4c 24 18          	mov    DWORD PTR [rsp+0x18],ecx
  107c11:	83 f8 07             	cmp    eax,0x7
  107c14:	7c ca                	jl     107be0 <_svfprintf_r+0x1f70>
  107c16:	48 8b 7c 24 38       	mov    rdi,QWORD PTR [rsp+0x38]
  107c1b:	48 89 de             	mov    rsi,rbx
  107c1e:	48 8d 54 24 10       	lea    rdx,[rsp+0x10]
  107c23:	e8 78 11 00 00       	call   108da0 <__ssprint_r>
  107c28:	4c 8b 5c 24 30       	mov    r11,QWORD PTR [rsp+0x30]
  107c2d:	4d 89 fe             	mov    r14,r15
  107c30:	85 c0                	test   eax,eax
  107c32:	74 b0                	je     107be4 <_svfprintf_r+0x1f74>
  107c34:	e9 2f 01 00 00       	jmp    107d68 <_svfprintf_r+0x20f8>
  107c39:	49 83 c6 10          	add    r14,0x10
  107c3d:	8b 4c 24 04          	mov    ecx,DWORD PTR [rsp+0x4]
  107c41:	f6 c1 04             	test   cl,0x4
  107c44:	0f 85 2f ff ff ff    	jne    107b79 <_svfprintf_r+0x1f09>
  107c4a:	66 0f 1f 44 00 00    	nop    WORD PTR [rax+rax*1+0x0]
  107c50:	48 8b 44 24 20       	mov    rax,QWORD PTR [rsp+0x20]
  107c55:	48 89 dd             	mov    rbp,rbx
  107c58:	8b 9c 24 c4 00 00 00 	mov    ebx,DWORD PTR [rsp+0xc4]
  107c5f:	41 39 db             	cmp    r11d,ebx
  107c62:	41 0f 4f db          	cmovg  ebx,r11d
  107c66:	44 01 eb             	add    ebx,r13d
  107c69:	48 85 c0             	test   rax,rax
  107c6c:	48 8b 7c 24 38       	mov    rdi,QWORD PTR [rsp+0x38]
  107c71:	74 15                	je     107c88 <_svfprintf_r+0x2018>
  107c73:	48 89 ee             	mov    rsi,rbp
  107c76:	48 8d 54 24 10       	lea    rdx,[rsp+0x10]
  107c7b:	e8 20 11 00 00       	call   108da0 <__ssprint_r>
  107c80:	85 c0                	test   eax,eax
  107c82:	0f 85 34 01 00 00    	jne    107dbc <_svfprintf_r+0x214c>
  107c88:	c7 44 24 18 00 00 00 	mov    DWORD PTR [rsp+0x18],0x0
  107c8f:	00 
  107c90:	66 0f 28 54 24 70    	movapd xmm2,XMMWORD PTR [rsp+0x70]
  107c96:	e9 aa e0 ff ff       	jmp    105d45 <_svfprintf_r+0xd5>
  107c9b:	89 c3                	mov    ebx,eax
  107c9d:	f7 db                	neg    ebx
  107c9f:	83 f8 ef             	cmp    eax,0xffffffef
  107ca2:	76 62                	jbe    107d06 <_svfprintf_r+0x2096>
  107ca4:	89 d8                	mov    eax,ebx
  107ca6:	48 8d 0d 43 8e ff ff 	lea    rcx,[rip+0xffffffffffff8e43]        # 100af0 <_svfprintf_r.zeroes>
  107cad:	49 89 0e             	mov    QWORD PTR [r14],rcx
  107cb0:	89 c0                	mov    eax,eax
  107cb2:	49 89 46 08          	mov    QWORD PTR [r14+0x8],rax
  107cb6:	48 01 44 24 20       	add    QWORD PTR [rsp+0x20],rax
  107cbb:	8b 44 24 18          	mov    eax,DWORD PTR [rsp+0x18]
  107cbf:	8d 48 01             	lea    ecx,[rax+0x1]
  107cc2:	89 4c 24 18          	mov    DWORD PTR [rsp+0x18],ecx
  107cc6:	83 f8 07             	cmp    eax,0x7
  107cc9:	0f 8c 81 00 00 00    	jl     107d50 <_svfprintf_r+0x20e0>
  107ccf:	48 8b 7c 24 38       	mov    rdi,QWORD PTR [rsp+0x38]
  107cd4:	48 8b 5c 24 28       	mov    rbx,QWORD PTR [rsp+0x28]
  107cd9:	48 89 de             	mov    rsi,rbx
  107cdc:	48 8d 54 24 10       	lea    rdx,[rsp+0x10]
  107ce1:	e8 ba 10 00 00       	call   108da0 <__ssprint_r>
  107ce6:	4c 8b 5c 24 30       	mov    r11,QWORD PTR [rsp+0x30]
  107ceb:	4d 89 fe             	mov    r14,r15
  107cee:	85 c0                	test   eax,eax
  107cf0:	0f 84 8b fd ff ff    	je     107a81 <_svfprintf_r+0x1e11>
  107cf6:	eb 6b                	jmp    107d63 <_svfprintf_r+0x20f3>
  107cf8:	49 83 c6 10          	add    r14,0x10
  107cfc:	8d 43 f0             	lea    eax,[rbx-0x10]
  107cff:	83 fb 20             	cmp    ebx,0x20
  107d02:	89 c3                	mov    ebx,eax
  107d04:	7e a0                	jle    107ca6 <_svfprintf_r+0x2036>
  107d06:	48 8d 05 e3 8d ff ff 	lea    rax,[rip+0xffffffffffff8de3]        # 100af0 <_svfprintf_r.zeroes>
  107d0d:	49 89 06             	mov    QWORD PTR [r14],rax
  107d10:	49 c7 46 08 10 00 00 	mov    QWORD PTR [r14+0x8],0x10
  107d17:	00 
  107d18:	48 83 44 24 20 10    	add    QWORD PTR [rsp+0x20],0x10
  107d1e:	8b 44 24 18          	mov    eax,DWORD PTR [rsp+0x18]
  107d22:	8d 48 01             	lea    ecx,[rax+0x1]
  107d25:	89 4c 24 18          	mov    DWORD PTR [rsp+0x18],ecx
  107d29:	83 f8 07             	cmp    eax,0x7
  107d2c:	7c ca                	jl     107cf8 <_svfprintf_r+0x2088>
  107d2e:	48 8b 7c 24 38       	mov    rdi,QWORD PTR [rsp+0x38]
  107d33:	48 8b 74 24 28       	mov    rsi,QWORD PTR [rsp+0x28]
  107d38:	48 8d 54 24 10       	lea    rdx,[rsp+0x10]
  107d3d:	e8 5e 10 00 00       	call   108da0 <__ssprint_r>
  107d42:	4c 8b 5c 24 30       	mov    r11,QWORD PTR [rsp+0x30]
  107d47:	4d 89 fe             	mov    r14,r15
  107d4a:	85 c0                	test   eax,eax
  107d4c:	74 ae                	je     107cfc <_svfprintf_r+0x208c>
  107d4e:	eb 0e                	jmp    107d5e <_svfprintf_r+0x20ee>
  107d50:	49 83 c6 10          	add    r14,0x10
  107d54:	48 8b 5c 24 28       	mov    rbx,QWORD PTR [rsp+0x28]
  107d59:	e9 23 fd ff ff       	jmp    107a81 <_svfprintf_r+0x1e11>
  107d5e:	48 8b 5c 24 28       	mov    rbx,QWORD PTR [rsp+0x28]
  107d63:	44 8b 6c 24 0c       	mov    r13d,DWORD PTR [rsp+0xc]
  107d68:	0f b6 4b 10          	movzx  ecx,BYTE PTR [rbx+0x10]
  107d6c:	80 e1 40             	and    cl,0x40
  107d6f:	31 c0                	xor    eax,eax
  107d71:	f6 d9                	neg    cl
  107d73:	19 c0                	sbb    eax,eax
  107d75:	44 09 e8             	or     eax,r13d
  107d78:	48 81 c4 a8 01 00 00 	add    rsp,0x1a8
  107d7f:	5b                   	pop    rbx
  107d80:	41 5c                	pop    r12
  107d82:	41 5d                	pop    r13
  107d84:	41 5e                	pop    r14
  107d86:	41 5f                	pop    r15
  107d88:	5d                   	pop    rbp
  107d89:	c3                   	ret
  107d8a:	48 83 7c 24 20 00    	cmp    QWORD PTR [rsp+0x20],0x0
  107d90:	74 d6                	je     107d68 <_svfprintf_r+0x20f8>
  107d92:	48 8d 54 24 10       	lea    rdx,[rsp+0x10]
  107d97:	48 8b 7c 24 38       	mov    rdi,QWORD PTR [rsp+0x38]
  107d9c:	48 89 de             	mov    rsi,rbx
  107d9f:	e8 fc 0f 00 00       	call   108da0 <__ssprint_r>
  107da4:	eb c2                	jmp    107d68 <_svfprintf_r+0x20f8>
  107da6:	41 c7 45 00 0c 00 00 	mov    DWORD PTR [r13+0x0],0xc
  107dad:	00 
  107dae:	b8 ff ff ff ff       	mov    eax,0xffffffff
  107db3:	eb c3                	jmp    107d78 <_svfprintf_r+0x2108>
  107db5:	48 8b 5c 24 28       	mov    rbx,QWORD PTR [rsp+0x28]
  107dba:	eb ac                	jmp    107d68 <_svfprintf_r+0x20f8>
  107dbc:	41 89 dd             	mov    r13d,ebx
  107dbf:	48 89 eb             	mov    rbx,rbp
  107dc2:	eb a4                	jmp    107d68 <_svfprintf_r+0x20f8>
  107dc4:	cc                   	int3
  107dc5:	cc                   	int3
  107dc6:	cc                   	int3
  107dc7:	cc                   	int3
  107dc8:	cc                   	int3
  107dc9:	cc                   	int3
  107dca:	cc                   	int3
  107dcb:	cc                   	int3
  107dcc:	cc                   	int3
  107dcd:	cc                   	int3
  107dce:	cc                   	int3
  107dcf:	cc                   	int3

0000000000107dd0 <__localeconv_l>:
  107dd0:	48 8d 87 00 01 00 00 	lea    rax,[rdi+0x100]
  107dd7:	c3                   	ret
  107dd8:	0f 1f 84 00 00 00 00 	nop    DWORD PTR [rax+rax*1+0x0]
  107ddf:	00 

0000000000107de0 <_localeconv_r>:
  107de0:	48 8d 05 b1 de 00 00 	lea    rax,[rip+0xdeb1]        # 115c98 <_impure_ptr>
  107de7:	48 8b 00             	mov    rax,QWORD PTR [rax]
  107dea:	48 8b 40 48          	mov    rax,QWORD PTR [rax+0x48]
  107dee:	48 85 c0             	test   rax,rax
  107df1:	75 07                	jne    107dfa <_localeconv_r+0x1a>
  107df3:	48 8d 05 ee e5 00 00 	lea    rax,[rip+0xe5ee]        # 1163e8 <__global_locale>
  107dfa:	48 05 00 01 00 00    	add    rax,0x100
  107e00:	c3                   	ret
  107e01:	66 66 66 66 66 66 2e 	data16 data16 data16 data16 data16 cs nop WORD PTR [rax+rax*1+0x0]
  107e08:	0f 1f 84 00 00 00 00 
  107e0f:	00 

0000000000107e10 <localeconv>:
  107e10:	48 8d 05 81 de 00 00 	lea    rax,[rip+0xde81]        # 115c98 <_impure_ptr>
  107e17:	48 8b 00             	mov    rax,QWORD PTR [rax]
  107e1a:	48 8b 40 48          	mov    rax,QWORD PTR [rax+0x48]
  107e1e:	48 85 c0             	test   rax,rax
  107e21:	75 07                	jne    107e2a <localeconv+0x1a>
  107e23:	48 8d 05 be e5 00 00 	lea    rax,[rip+0xe5be]        # 1163e8 <__global_locale>
  107e2a:	48 05 00 01 00 00    	add    rax,0x100
  107e30:	c3                   	ret
  107e31:	cc                   	int3
  107e32:	cc                   	int3
  107e33:	cc                   	int3
  107e34:	cc                   	int3
  107e35:	cc                   	int3
  107e36:	cc                   	int3
  107e37:	cc                   	int3
  107e38:	cc                   	int3
  107e39:	cc                   	int3
  107e3a:	cc                   	int3
  107e3b:	cc                   	int3
  107e3c:	cc                   	int3
  107e3d:	cc                   	int3
  107e3e:	cc                   	int3
  107e3f:	cc                   	int3

0000000000107e40 <_setlocale_r>:
  107e40:	53                   	push   rbx
  107e41:	48 85 d2             	test   rdx,rdx
  107e44:	74 40                	je     107e86 <_setlocale_r+0x46>
  107e46:	48 89 d3             	mov    rbx,rdx
  107e49:	48 8d 35 c0 86 ff ff 	lea    rsi,[rip+0xffffffffffff86c0]        # 100510 <_svfprintf_r.blanks-0x5d0>
  107e50:	48 89 d7             	mov    rdi,rdx
  107e53:	e8 f8 00 00 00       	call   107f50 <strcmp>
  107e58:	85 c0                	test   eax,eax
  107e5a:	74 2a                	je     107e86 <_setlocale_r+0x46>
  107e5c:	48 8d 35 77 89 ff ff 	lea    rsi,[rip+0xffffffffffff8977]        # 1007da <_svfprintf_r.blanks-0x306>
  107e63:	48 89 df             	mov    rdi,rbx
  107e66:	e8 e5 00 00 00       	call   107f50 <strcmp>
  107e6b:	85 c0                	test   eax,eax
  107e6d:	74 17                	je     107e86 <_setlocale_r+0x46>
  107e6f:	48 8d 35 3f 85 ff ff 	lea    rsi,[rip+0xffffffffffff853f]        # 1003b5 <_svfprintf_r.blanks-0x72b>
  107e76:	48 89 df             	mov    rdi,rbx
  107e79:	e8 d2 00 00 00       	call   107f50 <strcmp>
  107e7e:	85 c0                	test   eax,eax
  107e80:	74 04                	je     107e86 <_setlocale_r+0x46>
  107e82:	31 c0                	xor    eax,eax
  107e84:	5b                   	pop    rbx
  107e85:	c3                   	ret
  107e86:	48 8d 05 4d 89 ff ff 	lea    rax,[rip+0xffffffffffff894d]        # 1007da <_svfprintf_r.blanks-0x306>
  107e8d:	5b                   	pop    rbx
  107e8e:	c3                   	ret
  107e8f:	90                   	nop

0000000000107e90 <__locale_mb_cur_max>:
  107e90:	48 8d 05 01 de 00 00 	lea    rax,[rip+0xde01]        # 115c98 <_impure_ptr>
  107e97:	48 8b 00             	mov    rax,QWORD PTR [rax]
  107e9a:	48 8b 40 48          	mov    rax,QWORD PTR [rax+0x48]
  107e9e:	48 85 c0             	test   rax,rax
  107ea1:	48 8d 0d 40 e5 00 00 	lea    rcx,[rip+0xe540]        # 1163e8 <__global_locale>
  107ea8:	48 0f 45 c8          	cmovne rcx,rax
  107eac:	0f be 81 60 01 00 00 	movsx  eax,BYTE PTR [rcx+0x160]
  107eb3:	c3                   	ret
  107eb4:	66 66 66 2e 0f 1f 84 	data16 data16 cs nop WORD PTR [rax+rax*1+0x0]
  107ebb:	00 00 00 00 00 

0000000000107ec0 <__locale_ctype_ptr_l>:
  107ec0:	48 8b 87 f8 00 00 00 	mov    rax,QWORD PTR [rdi+0xf8]
  107ec7:	c3                   	ret
  107ec8:	0f 1f 84 00 00 00 00 	nop    DWORD PTR [rax+rax*1+0x0]
  107ecf:	00 

0000000000107ed0 <__locale_ctype_ptr>:
  107ed0:	48 8d 05 c1 dd 00 00 	lea    rax,[rip+0xddc1]        # 115c98 <_impure_ptr>
  107ed7:	48 8b 00             	mov    rax,QWORD PTR [rax]
  107eda:	48 8b 40 48          	mov    rax,QWORD PTR [rax+0x48]
  107ede:	48 85 c0             	test   rax,rax
  107ee1:	48 8d 0d 00 e5 00 00 	lea    rcx,[rip+0xe500]        # 1163e8 <__global_locale>
  107ee8:	48 0f 45 c8          	cmovne rcx,rax
  107eec:	48 8b 81 f8 00 00 00 	mov    rax,QWORD PTR [rcx+0xf8]
  107ef3:	c3                   	ret
  107ef4:	66 66 66 2e 0f 1f 84 	data16 data16 cs nop WORD PTR [rax+rax*1+0x0]
  107efb:	00 00 00 00 00 

0000000000107f00 <setlocale>:
  107f00:	53                   	push   rbx
  107f01:	48 85 f6             	test   rsi,rsi
  107f04:	74 40                	je     107f46 <setlocale+0x46>
  107f06:	48 89 f3             	mov    rbx,rsi
  107f09:	48 8d 35 00 86 ff ff 	lea    rsi,[rip+0xffffffffffff8600]        # 100510 <_svfprintf_r.blanks-0x5d0>
  107f10:	48 89 df             	mov    rdi,rbx
  107f13:	e8 38 00 00 00       	call   107f50 <strcmp>
  107f18:	85 c0                	test   eax,eax
  107f1a:	74 2a                	je     107f46 <setlocale+0x46>
  107f1c:	48 8d 35 b7 88 ff ff 	lea    rsi,[rip+0xffffffffffff88b7]        # 1007da <_svfprintf_r.blanks-0x306>
  107f23:	48 89 df             	mov    rdi,rbx
  107f26:	e8 25 00 00 00       	call   107f50 <strcmp>
  107f2b:	85 c0                	test   eax,eax
  107f2d:	74 17                	je     107f46 <setlocale+0x46>
  107f2f:	48 8d 35 7f 84 ff ff 	lea    rsi,[rip+0xffffffffffff847f]        # 1003b5 <_svfprintf_r.blanks-0x72b>
  107f36:	48 89 df             	mov    rdi,rbx
  107f39:	e8 12 00 00 00       	call   107f50 <strcmp>
  107f3e:	85 c0                	test   eax,eax
  107f40:	74 04                	je     107f46 <setlocale+0x46>
  107f42:	31 c0                	xor    eax,eax
  107f44:	5b                   	pop    rbx
  107f45:	c3                   	ret
  107f46:	48 8d 05 8d 88 ff ff 	lea    rax,[rip+0xffffffffffff888d]        # 1007da <_svfprintf_r.blanks-0x306>
  107f4d:	5b                   	pop    rbx
  107f4e:	c3                   	ret
  107f4f:	cc                   	int3

0000000000107f50 <strcmp>:
  107f50:	89 f0                	mov    eax,esi
  107f52:	09 f8                	or     eax,edi
  107f54:	a8 07                	test   al,0x7
  107f56:	74 05                	je     107f5d <strcmp+0xd>
  107f58:	0f b6 07             	movzx  eax,BYTE PTR [rdi]
  107f5b:	eb 4a                	jmp    107fa7 <strcmp+0x57>
  107f5d:	48 8b 07             	mov    rax,QWORD PTR [rdi]
  107f60:	48 3b 06             	cmp    rax,QWORD PTR [rsi]
  107f63:	75 42                	jne    107fa7 <strcmp+0x57>
  107f65:	49 b8 80 80 80 80 80 	movabs r8,0x8080808080808080
  107f6c:	80 80 80 
  107f6f:	48 ba ff fe fe fe fe 	movabs rdx,0xfefefefefefefeff
  107f76:	fe fe fe 
  107f79:	0f 1f 80 00 00 00 00 	nop    DWORD PTR [rax+0x0]
  107f80:	48 8d 0c 10          	lea    rcx,[rax+rdx*1]
  107f84:	48 f7 d0             	not    rax
  107f87:	4c 21 c0             	and    rax,r8
  107f8a:	48 85 c8             	test   rax,rcx
  107f8d:	75 3d                	jne    107fcc <strcmp+0x7c>
  107f8f:	48 8d 4e 08          	lea    rcx,[rsi+0x8]
  107f93:	48 8b 47 08          	mov    rax,QWORD PTR [rdi+0x8]
  107f97:	48 83 c7 08          	add    rdi,0x8
  107f9b:	48 3b 46 08          	cmp    rax,QWORD PTR [rsi+0x8]
  107f9f:	48 89 ce             	mov    rsi,rcx
  107fa2:	74 dc                	je     107f80 <strcmp+0x30>
  107fa4:	48 89 ce             	mov    rsi,rcx
  107fa7:	84 c0                	test   al,al
  107fa9:	74 16                	je     107fc1 <strcmp+0x71>
  107fab:	48 ff c7             	inc    rdi
  107fae:	66 90                	xchg   ax,ax
  107fb0:	3a 06                	cmp    al,BYTE PTR [rsi]
  107fb2:	75 0f                	jne    107fc3 <strcmp+0x73>
  107fb4:	48 ff c6             	inc    rsi
  107fb7:	0f b6 07             	movzx  eax,BYTE PTR [rdi]
  107fba:	48 ff c7             	inc    rdi
  107fbd:	84 c0                	test   al,al
  107fbf:	75 ef                	jne    107fb0 <strcmp+0x60>
  107fc1:	31 c0                	xor    eax,eax
  107fc3:	0f b6 c0             	movzx  eax,al
  107fc6:	0f b6 0e             	movzx  ecx,BYTE PTR [rsi]
  107fc9:	29 c8                	sub    eax,ecx
  107fcb:	c3                   	ret
  107fcc:	31 c0                	xor    eax,eax
  107fce:	c3                   	ret
  107fcf:	cc                   	int3

0000000000107fd0 <_wctomb_r>:
  107fd0:	48 8d 05 c1 dc 00 00 	lea    rax,[rip+0xdcc1]        # 115c98 <_impure_ptr>
  107fd7:	48 8b 00             	mov    rax,QWORD PTR [rax]
  107fda:	48 8b 40 48          	mov    rax,QWORD PTR [rax+0x48]
  107fde:	48 85 c0             	test   rax,rax
  107fe1:	75 07                	jne    107fea <_wctomb_r+0x1a>
  107fe3:	48 8d 05 fe e3 00 00 	lea    rax,[rip+0xe3fe]        # 1163e8 <__global_locale>
  107fea:	48 8b 80 e0 00 00 00 	mov    rax,QWORD PTR [rax+0xe0]
  107ff1:	ff e0                	jmp    rax
  107ff3:	66 66 66 66 2e 0f 1f 	data16 data16 data16 cs nop WORD PTR [rax+rax*1+0x0]
  107ffa:	84 00 00 00 00 00 

0000000000108000 <__ascii_wctomb>:
  108000:	48 85 f6             	test   rsi,rsi
  108003:	74 14                	je     108019 <__ascii_wctomb+0x19>
  108005:	81 fa 00 01 00 00    	cmp    edx,0x100
  10800b:	72 0f                	jb     10801c <__ascii_wctomb+0x1c>
  10800d:	c7 07 8a 00 00 00    	mov    DWORD PTR [rdi],0x8a
  108013:	b8 ff ff ff ff       	mov    eax,0xffffffff
  108018:	c3                   	ret
  108019:	31 c0                	xor    eax,eax
  10801b:	c3                   	ret
  10801c:	88 16                	mov    BYTE PTR [rsi],dl
  10801e:	b8 01 00 00 00       	mov    eax,0x1
  108023:	c3                   	ret
  108024:	cc                   	int3
  108025:	cc                   	int3
  108026:	cc                   	int3
  108027:	cc                   	int3
  108028:	cc                   	int3
  108029:	cc                   	int3
  10802a:	cc                   	int3
  10802b:	cc                   	int3
  10802c:	cc                   	int3
  10802d:	cc                   	int3
  10802e:	cc                   	int3
  10802f:	cc                   	int3

0000000000108030 <_mbtowc_r>:
  108030:	48 8d 05 61 dc 00 00 	lea    rax,[rip+0xdc61]        # 115c98 <_impure_ptr>
  108037:	48 8b 00             	mov    rax,QWORD PTR [rax]
  10803a:	48 8b 40 48          	mov    rax,QWORD PTR [rax+0x48]
  10803e:	48 85 c0             	test   rax,rax
  108041:	75 07                	jne    10804a <_mbtowc_r+0x1a>
  108043:	48 8d 05 9e e3 00 00 	lea    rax,[rip+0xe39e]        # 1163e8 <__global_locale>
  10804a:	48 8b 80 e8 00 00 00 	mov    rax,QWORD PTR [rax+0xe8]
  108051:	ff e0                	jmp    rax
  108053:	66 66 66 66 2e 0f 1f 	data16 data16 data16 cs nop WORD PTR [rax+rax*1+0x0]
  10805a:	84 00 00 00 00 00 

0000000000108060 <__ascii_mbtowc>:
  108060:	48 85 f6             	test   rsi,rsi
  108063:	48 8d 44 24 fc       	lea    rax,[rsp-0x4]
  108068:	48 0f 45 c6          	cmovne rax,rsi
  10806c:	48 85 d2             	test   rdx,rdx
  10806f:	74 13                	je     108084 <__ascii_mbtowc+0x24>
  108071:	48 85 c9             	test   rcx,rcx
  108074:	74 11                	je     108087 <__ascii_mbtowc+0x27>
  108076:	0f b6 0a             	movzx  ecx,BYTE PTR [rdx]
  108079:	89 08                	mov    DWORD PTR [rax],ecx
  10807b:	31 c0                	xor    eax,eax
  10807d:	80 3a 00             	cmp    BYTE PTR [rdx],0x0
  108080:	0f 95 c0             	setne  al
  108083:	c3                   	ret
  108084:	31 c0                	xor    eax,eax
  108086:	c3                   	ret
  108087:	b8 fe ff ff ff       	mov    eax,0xfffffffe
  10808c:	c3                   	ret
  10808d:	cc                   	int3
  10808e:	cc                   	int3
  10808f:	cc                   	int3

0000000000108090 <_malloc_r>:
  108090:	55                   	push   rbp
  108091:	41 57                	push   r15
  108093:	41 56                	push   r14
  108095:	41 55                	push   r13
  108097:	41 54                	push   r12
  108099:	53                   	push   rbx
  10809a:	48 83 ec 18          	sub    rsp,0x18
  10809e:	49 89 fe             	mov    r14,rdi
  1080a1:	48 8d 46 17          	lea    rax,[rsi+0x17]
  1080a5:	48 89 c1             	mov    rcx,rax
  1080a8:	48 83 e1 f0          	and    rcx,0xfffffffffffffff0
  1080ac:	48 83 f8 2f          	cmp    rax,0x2f
  1080b0:	41 bd 20 00 00 00    	mov    r13d,0x20
  1080b6:	4c 0f 43 e9          	cmovae r13,rcx
  1080ba:	49 81 fd ff ff ff 7f 	cmp    r13,0x7fffffff
  1080c1:	77 64                	ja     108127 <_malloc_r+0x97>
  1080c3:	49 39 f5             	cmp    r13,rsi
  1080c6:	72 5f                	jb     108127 <_malloc_r+0x97>
  1080c8:	4c 89 f7             	mov    rdi,r14
  1080cb:	e8 d0 07 00 00       	call   1088a0 <__malloc_lock>
  1080d0:	49 81 fd f7 01 00 00 	cmp    r13,0x1f7
  1080d7:	77 5d                	ja     108136 <_malloc_r+0xa6>
  1080d9:	48 b9 f0 ff ff ff 03 	movabs rcx,0x3fffffff0
  1080e0:	00 00 00 
  1080e3:	4c 21 e9             	and    rcx,r13
  1080e6:	48 8d 15 a3 e4 00 00 	lea    rdx,[rip+0xe4a3]        # 116590 <__malloc_av_>
  1080ed:	48 8d 04 4a          	lea    rax,[rdx+rcx*2]
  1080f1:	4c 8b 7c 4a 18       	mov    r15,QWORD PTR [rdx+rcx*2+0x18]
  1080f6:	49 39 c7             	cmp    r15,rax
  1080f9:	74 63                	je     10815e <_malloc_r+0xce>
  1080fb:	49 39 c7             	cmp    r15,rax
  1080fe:	74 6f                	je     10816f <_malloc_r+0xdf>
  108100:	49 8b 47 08          	mov    rax,QWORD PTR [r15+0x8]
  108104:	49 8b 4f 10          	mov    rcx,QWORD PTR [r15+0x10]
  108108:	48 83 e0 fc          	and    rax,0xfffffffffffffffc
  10810c:	49 8b 57 18          	mov    rdx,QWORD PTR [r15+0x18]
  108110:	48 89 51 18          	mov    QWORD PTR [rcx+0x18],rdx
  108114:	48 89 4a 10          	mov    QWORD PTR [rdx+0x10],rcx
  108118:	41 80 4c 07 08 01    	or     BYTE PTR [r15+rax*1+0x8],0x1
  10811e:	49 83 c7 10          	add    r15,0x10
  108122:	e9 7e 05 00 00       	jmp    1086a5 <_malloc_r+0x615>
  108127:	41 c7 06 0c 00 00 00 	mov    DWORD PTR [r14],0xc
  10812e:	45 31 ff             	xor    r15d,r15d
  108131:	e9 3e 07 00 00       	jmp    108874 <_malloc_r+0x7e4>
  108136:	ba 3f 00 00 00       	mov    edx,0x3f
  10813b:	49 81 fd 00 02 00 00 	cmp    r13,0x200
  108142:	0f 82 93 00 00 00    	jb     1081db <_malloc_r+0x14b>
  108148:	49 81 fd ff 09 00 00 	cmp    r13,0x9ff
  10814f:	77 2d                	ja     10817e <_malloc_r+0xee>
  108151:	4c 89 ea             	mov    rdx,r13
  108154:	48 c1 ea 06          	shr    rdx,0x6
  108158:	48 83 c2 38          	add    rdx,0x38
  10815c:	eb 7d                	jmp    1081db <_malloc_r+0x14b>
  10815e:	48 8d 04 4a          	lea    rax,[rdx+rcx*2]
  108162:	48 83 c0 10          	add    rax,0x10
  108166:	4c 8b 78 18          	mov    r15,QWORD PTR [rax+0x18]
  10816a:	49 39 c7             	cmp    r15,rax
  10816d:	75 91                	jne    108100 <_malloc_r+0x70>
  10816f:	4c 89 ea             	mov    rdx,r13
  108172:	48 c1 ea 03          	shr    rdx,0x3
  108176:	83 c2 02             	add    edx,0x2
  108179:	e9 b1 00 00 00       	jmp    10822f <_malloc_r+0x19f>
  10817e:	49 81 fd ff 29 00 00 	cmp    r13,0x29ff
  108185:	77 0d                	ja     108194 <_malloc_r+0x104>
  108187:	4c 89 ea             	mov    rdx,r13
  10818a:	48 c1 ea 09          	shr    rdx,0x9
  10818e:	48 83 c2 5b          	add    rdx,0x5b
  108192:	eb 47                	jmp    1081db <_malloc_r+0x14b>
  108194:	49 81 fd ff a9 00 00 	cmp    r13,0xa9ff
  10819b:	77 0d                	ja     1081aa <_malloc_r+0x11a>
  10819d:	4c 89 ea             	mov    rdx,r13
  1081a0:	48 c1 ea 0c          	shr    rdx,0xc
  1081a4:	48 83 c2 6e          	add    rdx,0x6e
  1081a8:	eb 31                	jmp    1081db <_malloc_r+0x14b>
  1081aa:	49 81 fd ff a9 02 00 	cmp    r13,0x2a9ff
  1081b1:	77 0d                	ja     1081c0 <_malloc_r+0x130>
  1081b3:	4c 89 ea             	mov    rdx,r13
  1081b6:	48 c1 ea 0f          	shr    rdx,0xf
  1081ba:	48 83 c2 77          	add    rdx,0x77
  1081be:	eb 1b                	jmp    1081db <_malloc_r+0x14b>
  1081c0:	4c 89 e8             	mov    rax,r13
  1081c3:	48 c1 e8 12          	shr    rax,0x12
  1081c7:	48 83 c0 7c          	add    rax,0x7c
  1081cb:	49 81 fd 00 aa 0a 00 	cmp    r13,0xaaa00
  1081d2:	ba 7e 00 00 00       	mov    edx,0x7e
  1081d7:	48 0f 42 d0          	cmovb  rdx,rax
  1081db:	8d 04 12             	lea    eax,[rdx+rdx*1]
  1081de:	83 c0 02             	add    eax,0x2
  1081e1:	48 8d 35 a8 e3 00 00 	lea    rsi,[rip+0xe3a8]        # 116590 <__malloc_av_>
  1081e8:	48 8d 0c c6          	lea    rcx,[rsi+rax*8]
  1081ec:	48 83 c1 f0          	add    rcx,0xfffffffffffffff0
  1081f0:	48 8b 44 c6 08       	mov    rax,QWORD PTR [rsi+rax*8+0x8]
  1081f5:	48 39 c8             	cmp    rax,rcx
  1081f8:	74 33                	je     10822d <_malloc_r+0x19d>
  1081fa:	66 0f 1f 44 00 00    	nop    WORD PTR [rax+rax*1+0x0]
  108200:	48 8b 68 08          	mov    rbp,QWORD PTR [rax+0x8]
  108204:	48 83 e5 fc          	and    rbp,0xfffffffffffffffc
  108208:	48 89 ee             	mov    rsi,rbp
  10820b:	4c 29 ee             	sub    rsi,r13
  10820e:	48 83 fe 20          	cmp    rsi,0x20
  108212:	7d 17                	jge    10822b <_malloc_r+0x19b>
  108214:	48 8b 78 18          	mov    rdi,QWORD PTR [rax+0x18]
  108218:	48 85 f6             	test   rsi,rsi
  10821b:	0f 89 96 00 00 00    	jns    1082b7 <_malloc_r+0x227>
  108221:	48 89 f8             	mov    rax,rdi
  108224:	48 39 cf             	cmp    rdi,rcx
  108227:	75 d7                	jne    108200 <_malloc_r+0x170>
  108229:	eb 02                	jmp    10822d <_malloc_r+0x19d>
  10822b:	ff ca                	dec    edx
  10822d:	ff c2                	inc    edx
  10822f:	4c 8b 3d 7a e3 00 00 	mov    r15,QWORD PTR [rip+0xe37a]        # 1165b0 <__malloc_av_+0x20>
  108236:	4c 8d 0d 63 e3 00 00 	lea    r9,[rip+0xe363]        # 1165a0 <__malloc_av_+0x10>
  10823d:	4d 39 cf             	cmp    r15,r9
  108240:	0f 84 b2 01 00 00    	je     1083f8 <_malloc_r+0x368>
  108246:	49 8b 77 08          	mov    rsi,QWORD PTR [r15+0x8]
  10824a:	48 89 f1             	mov    rcx,rsi
  10824d:	48 83 e1 fc          	and    rcx,0xfffffffffffffffc
  108251:	48 89 c8             	mov    rax,rcx
  108254:	4c 29 e8             	sub    rax,r13
  108257:	48 83 f8 20          	cmp    rax,0x20
  10825b:	7c 3c                	jl     108299 <_malloc_r+0x209>
  10825d:	4b 8d 14 2f          	lea    rdx,[r15+r13*1]
  108261:	4c 89 ee             	mov    rsi,r13
  108264:	48 83 ce 01          	or     rsi,0x1
  108268:	49 89 77 08          	mov    QWORD PTR [r15+0x8],rsi
  10826c:	48 89 15 45 e3 00 00 	mov    QWORD PTR [rip+0xe345],rdx        # 1165b8 <__malloc_av_+0x28>
  108273:	48 89 15 36 e3 00 00 	mov    QWORD PTR [rip+0xe336],rdx        # 1165b0 <__malloc_av_+0x20>
  10827a:	4f 89 4c 2f 18       	mov    QWORD PTR [r15+r13*1+0x18],r9
  10827f:	4f 89 4c 2f 10       	mov    QWORD PTR [r15+r13*1+0x10],r9
  108284:	48 89 c2             	mov    rdx,rax
  108287:	48 83 ca 01          	or     rdx,0x1
  10828b:	4b 89 54 2f 08       	mov    QWORD PTR [r15+r13*1+0x8],rdx
  108290:	49 89 04 0f          	mov    QWORD PTR [r15+rcx*1],rax
  108294:	e9 cf 05 00 00       	jmp    108868 <_malloc_r+0x7d8>
  108299:	4c 89 0d 18 e3 00 00 	mov    QWORD PTR [rip+0xe318],r9        # 1165b8 <__malloc_av_+0x28>
  1082a0:	4c 89 0d 09 e3 00 00 	mov    QWORD PTR [rip+0xe309],r9        # 1165b0 <__malloc_av_+0x20>
  1082a7:	48 85 c0             	test   rax,rax
  1082aa:	78 25                	js     1082d1 <_malloc_r+0x241>
  1082ac:	41 80 4c 0f 08 01    	or     BYTE PTR [r15+rcx*1+0x8],0x1
  1082b2:	e9 b1 05 00 00       	jmp    108868 <_malloc_r+0x7d8>
  1082b7:	4c 8d 78 10          	lea    r15,[rax+0x10]
  1082bb:	48 8b 48 10          	mov    rcx,QWORD PTR [rax+0x10]
  1082bf:	48 89 79 18          	mov    QWORD PTR [rcx+0x18],rdi
  1082c3:	48 89 4f 10          	mov    QWORD PTR [rdi+0x10],rcx
  1082c7:	80 4c 28 08 01       	or     BYTE PTR [rax+rbp*1+0x8],0x1
  1082cc:	e9 d4 03 00 00       	jmp    1086a5 <_malloc_r+0x615>
  1082d1:	48 81 f9 ff 01 00 00 	cmp    rcx,0x1ff
  1082d8:	77 45                	ja     10831f <_malloc_r+0x28f>
  1082da:	48 c1 ee 03          	shr    rsi,0x3
  1082de:	8d 4e 03             	lea    ecx,[rsi+0x3]
  1082e1:	85 f6                	test   esi,esi
  1082e3:	0f 49 ce             	cmovns ecx,esi
  1082e6:	c1 e9 02             	shr    ecx,0x2
  1082e9:	b8 01 00 00 00       	mov    eax,0x1
  1082ee:	48 d3 e0             	shl    rax,cl
  1082f1:	48 09 05 a0 e2 00 00 	or     QWORD PTR [rip+0xe2a0],rax        # 116598 <__malloc_av_+0x8>
  1082f8:	48 8d 05 91 e2 00 00 	lea    rax,[rip+0xe291]        # 116590 <__malloc_av_>
  1082ff:	8d 0c 36             	lea    ecx,[rsi+rsi*1]
  108302:	83 c1 02             	add    ecx,0x2
  108305:	48 8d 74 c8 f0       	lea    rsi,[rax+rcx*8-0x10]
  10830a:	48 8b 3c c8          	mov    rdi,QWORD PTR [rax+rcx*8]
  10830e:	49 89 77 18          	mov    QWORD PTR [r15+0x18],rsi
  108312:	49 89 7f 10          	mov    QWORD PTR [r15+0x10],rdi
  108316:	4c 89 3c c8          	mov    QWORD PTR [rax+rcx*8],r15
  10831a:	e9 d5 00 00 00       	jmp    1083f4 <_malloc_r+0x364>
  10831f:	48 81 fe ff 09 00 00 	cmp    rsi,0x9ff
  108326:	77 0a                	ja     108332 <_malloc_r+0x2a2>
  108328:	48 c1 ee 06          	shr    rsi,0x6
  10832c:	48 83 c6 38          	add    rsi,0x38
  108330:	eb 54                	jmp    108386 <_malloc_r+0x2f6>
  108332:	48 81 fe ff 29 00 00 	cmp    rsi,0x29ff
  108339:	77 0a                	ja     108345 <_malloc_r+0x2b5>
  10833b:	48 c1 ee 09          	shr    rsi,0x9
  10833f:	48 83 c6 5b          	add    rsi,0x5b
  108343:	eb 41                	jmp    108386 <_malloc_r+0x2f6>
  108345:	48 81 fe ff a9 00 00 	cmp    rsi,0xa9ff
  10834c:	77 0a                	ja     108358 <_malloc_r+0x2c8>
  10834e:	48 c1 ee 0c          	shr    rsi,0xc
  108352:	48 83 c6 6e          	add    rsi,0x6e
  108356:	eb 2e                	jmp    108386 <_malloc_r+0x2f6>
  108358:	48 81 fe ff a9 02 00 	cmp    rsi,0x2a9ff
  10835f:	77 0a                	ja     10836b <_malloc_r+0x2db>
  108361:	48 c1 ee 0f          	shr    rsi,0xf
  108365:	48 83 c6 77          	add    rsi,0x77
  108369:	eb 1b                	jmp    108386 <_malloc_r+0x2f6>
  10836b:	48 89 f0             	mov    rax,rsi
  10836e:	48 c1 e8 12          	shr    rax,0x12
  108372:	48 83 c0 7c          	add    rax,0x7c
  108376:	48 81 fe 00 aa 0a 00 	cmp    rsi,0xaaa00
  10837d:	be 7e 00 00 00       	mov    esi,0x7e
  108382:	48 0f 42 f0          	cmovb  rsi,rax
  108386:	8d 04 36             	lea    eax,[rsi+rsi*1]
  108389:	48 98                	cdqe
  10838b:	48 8d 2d fe e1 00 00 	lea    rbp,[rip+0xe1fe]        # 116590 <__malloc_av_>
  108392:	48 8d 3c c5 00 00 00 	lea    rdi,[rax*8+0x0]
  108399:	00 
  10839a:	48 01 ef             	add    rdi,rbp
  10839d:	48 8b 44 c5 10       	mov    rax,QWORD PTR [rbp+rax*8+0x10]
  1083a2:	48 39 f8             	cmp    rax,rdi
  1083a5:	74 1b                	je     1083c2 <_malloc_r+0x332>
  1083a7:	48 8b 70 08          	mov    rsi,QWORD PTR [rax+0x8]
  1083ab:	48 83 e6 fc          	and    rsi,0xfffffffffffffffc
  1083af:	48 39 f1             	cmp    rcx,rsi
  1083b2:	73 2d                	jae    1083e1 <_malloc_r+0x351>
  1083b4:	48 8b 40 10          	mov    rax,QWORD PTR [rax+0x10]
  1083b8:	48 39 f8             	cmp    rax,rdi
  1083bb:	75 ea                	jne    1083a7 <_malloc_r+0x317>
  1083bd:	48 89 f8             	mov    rax,rdi
  1083c0:	eb 22                	jmp    1083e4 <_malloc_r+0x354>
  1083c2:	8d 4e 03             	lea    ecx,[rsi+0x3]
  1083c5:	85 f6                	test   esi,esi
  1083c7:	0f 49 ce             	cmovns ecx,esi
  1083ca:	c1 e9 02             	shr    ecx,0x2
  1083cd:	b8 01 00 00 00       	mov    eax,0x1
  1083d2:	48 d3 e0             	shl    rax,cl
  1083d5:	48 09 05 bc e1 00 00 	or     QWORD PTR [rip+0xe1bc],rax        # 116598 <__malloc_av_+0x8>
  1083dc:	48 89 f8             	mov    rax,rdi
  1083df:	eb 07                	jmp    1083e8 <_malloc_r+0x358>
  1083e1:	48 89 c7             	mov    rdi,rax
  1083e4:	48 8b 40 18          	mov    rax,QWORD PTR [rax+0x18]
  1083e8:	49 89 47 18          	mov    QWORD PTR [r15+0x18],rax
  1083ec:	49 89 7f 10          	mov    QWORD PTR [r15+0x10],rdi
  1083f0:	4c 89 78 10          	mov    QWORD PTR [rax+0x10],r15
  1083f4:	4c 89 7f 18          	mov    QWORD PTR [rdi+0x18],r15
  1083f8:	8d 4a 03             	lea    ecx,[rdx+0x3]
  1083fb:	85 d2                	test   edx,edx
  1083fd:	0f 49 ca             	cmovns ecx,edx
  108400:	c1 f9 02             	sar    ecx,0x2
  108403:	bf 01 00 00 00       	mov    edi,0x1
  108408:	48 d3 e7             	shl    rdi,cl
  10840b:	48 8b 35 86 e1 00 00 	mov    rsi,QWORD PTR [rip+0xe186]        # 116598 <__malloc_av_+0x8>
  108412:	48 39 f7             	cmp    rdi,rsi
  108415:	0f 86 bc 00 00 00    	jbe    1084d7 <_malloc_r+0x447>
  10841b:	4c 8b 3d 7e e1 00 00 	mov    r15,QWORD PTR [rip+0xe17e]        # 1165a0 <__malloc_av_+0x10>
  108422:	49 8b 6f 08          	mov    rbp,QWORD PTR [r15+0x8]
  108426:	48 83 e5 fc          	and    rbp,0xfffffffffffffffc
  10842a:	48 89 e8             	mov    rax,rbp
  10842d:	4c 29 e8             	sub    rax,r13
  108430:	72 0a                	jb     10843c <_malloc_r+0x3ac>
  108432:	48 83 f8 1f          	cmp    rax,0x1f
  108436:	0f 8f 0d 04 00 00    	jg     108849 <_malloc_r+0x7b9>
  10843c:	48 8b 05 1d 46 51 00 	mov    rax,QWORD PTR [rip+0x51461d]        # 61ca60 <__malloc_top_pad>
  108443:	4a 8d 0c 28          	lea    rcx,[rax+r13*1]
  108447:	48 83 c1 20          	add    rcx,0x20
  10844b:	4e 8d 24 28          	lea    r12,[rax+r13*1]
  10844f:	49 81 c4 1f 10 00 00 	add    r12,0x101f
  108456:	49 81 e4 00 f0 ff ff 	and    r12,0xfffffffffffff000
  10845d:	48 83 3d 43 e9 00 00 	cmp    QWORD PTR [rip+0xe943],0xffffffffffffffff        # 116da8 <__malloc_sbrk_base>
  108464:	ff 
  108465:	4c 0f 44 e1          	cmove  r12,rcx
  108469:	4c 89 f7             	mov    rdi,r14
  10846c:	4c 89 e6             	mov    rsi,r12
  10846f:	e8 4c 04 00 00       	call   1088c0 <_sbrk_r>
  108474:	48 83 f8 ff          	cmp    rax,0xffffffffffffffff
  108478:	0f 84 b1 03 00 00    	je     10882f <_malloc_r+0x79f>
  10847e:	48 89 c3             	mov    rbx,rax
  108481:	49 8d 04 2f          	lea    rax,[r15+rbp*1]
  108485:	48 8d 0d 04 e1 00 00 	lea    rcx,[rip+0xe104]        # 116590 <__malloc_av_>
  10848c:	49 39 cf             	cmp    r15,rcx
  10848f:	74 09                	je     10849a <_malloc_r+0x40a>
  108491:	48 39 c3             	cmp    rbx,rax
  108494:	0f 82 95 03 00 00    	jb     10882f <_malloc_r+0x79f>
  10849a:	8b 0d d8 45 51 00    	mov    ecx,DWORD PTR [rip+0x5145d8]        # 61ca78 <__malloc_current_mallinfo>
  1084a0:	44 01 e1             	add    ecx,r12d
  1084a3:	89 0d cf 45 51 00    	mov    DWORD PTR [rip+0x5145cf],ecx        # 61ca78 <__malloc_current_mallinfo>
  1084a9:	48 39 c3             	cmp    rbx,rax
  1084ac:	0f 85 5e 02 00 00    	jne    108710 <_malloc_r+0x680>
  1084b2:	89 c2                	mov    edx,eax
  1084b4:	81 e2 ff 0f 00 00    	and    edx,0xfff
  1084ba:	0f 85 50 02 00 00    	jne    108710 <_malloc_r+0x680>
  1084c0:	49 01 ec             	add    r12,rbp
  1084c3:	49 83 cc 01          	or     r12,0x1
  1084c7:	48 8b 05 d2 e0 00 00 	mov    rax,QWORD PTR [rip+0xe0d2]        # 1165a0 <__malloc_av_+0x10>
  1084ce:	4c 89 60 08          	mov    QWORD PTR [rax+0x8],r12
  1084d2:	e9 35 03 00 00       	jmp    10880c <_malloc_r+0x77c>
  1084d7:	48 85 fe             	test   rsi,rdi
  1084da:	0f 84 fb 01 00 00    	je     1086db <_malloc_r+0x64b>
  1084e0:	4c 8d 05 a9 e0 00 00 	lea    r8,[rip+0xe0a9]        # 116590 <__malloc_av_>
  1084e7:	8d 04 12             	lea    eax,[rdx+rdx*1]
  1084ea:	48 98                	cdqe
  1084ec:	4d 8d 14 c0          	lea    r10,[r8+rax*8]
  1084f0:	49 83 c2 10          	add    r10,0x10
  1084f4:	49 8d 2c c0          	lea    rbp,[r8+rax*8]
  1084f8:	48 89 eb             	mov    rbx,rbp
  1084fb:	0f 1f 44 00 00       	nop    DWORD PTR [rax+rax*1+0x0]
  108500:	48 8b 5b 18          	mov    rbx,QWORD PTR [rbx+0x18]
  108504:	48 39 eb             	cmp    rbx,rbp
  108507:	74 22                	je     10852b <_malloc_r+0x49b>
  108509:	48 8b 43 08          	mov    rax,QWORD PTR [rbx+0x8]
  10850d:	48 83 e0 fc          	and    rax,0xfffffffffffffffc
  108511:	48 89 c1             	mov    rcx,rax
  108514:	4c 29 e9             	sub    rcx,r13
  108517:	48 83 f9 20          	cmp    rcx,0x20
  10851b:	0f 8d 39 01 00 00    	jge    10865a <_malloc_r+0x5ca>
  108521:	48 85 c9             	test   rcx,rcx
  108524:	78 da                	js     108500 <_malloc_r+0x470>
  108526:	e9 87 01 00 00       	jmp    1086b2 <_malloc_r+0x622>
  10852b:	8d 5a 01             	lea    ebx,[rdx+0x1]
  10852e:	f6 c3 03             	test   bl,0x3
  108531:	0f 84 ab 00 00 00    	je     1085e2 <_malloc_r+0x552>
  108537:	4c 89 d3             	mov    rbx,r10
  10853a:	66 0f 1f 44 00 00    	nop    WORD PTR [rax+rax*1+0x0]
  108540:	48 8b 5b 18          	mov    rbx,QWORD PTR [rbx+0x18]
  108544:	4c 39 d3             	cmp    rbx,r10
  108547:	74 22                	je     10856b <_malloc_r+0x4db>
  108549:	48 8b 43 08          	mov    rax,QWORD PTR [rbx+0x8]
  10854d:	48 83 e0 fc          	and    rax,0xfffffffffffffffc
  108551:	48 89 c1             	mov    rcx,rax
  108554:	4c 29 e9             	sub    rcx,r13
  108557:	48 83 f9 1f          	cmp    rcx,0x1f
  10855b:	0f 8f f9 00 00 00    	jg     10865a <_malloc_r+0x5ca>
  108561:	48 85 c9             	test   rcx,rcx
  108564:	78 da                	js     108540 <_malloc_r+0x4b0>
  108566:	e9 47 01 00 00       	jmp    1086b2 <_malloc_r+0x622>
  10856b:	8d 5a 02             	lea    ebx,[rdx+0x2]
  10856e:	f6 c3 03             	test   bl,0x3
  108571:	74 6f                	je     1085e2 <_malloc_r+0x552>
  108573:	49 8d 6a 10          	lea    rbp,[r10+0x10]
  108577:	48 89 eb             	mov    rbx,rbp
  10857a:	48 8b 5b 18          	mov    rbx,QWORD PTR [rbx+0x18]
  10857e:	48 39 eb             	cmp    rbx,rbp
  108581:	74 22                	je     1085a5 <_malloc_r+0x515>
  108583:	48 8b 43 08          	mov    rax,QWORD PTR [rbx+0x8]
  108587:	48 83 e0 fc          	and    rax,0xfffffffffffffffc
  10858b:	48 89 c1             	mov    rcx,rax
  10858e:	4c 29 e9             	sub    rcx,r13
  108591:	48 83 f9 1f          	cmp    rcx,0x1f
  108595:	0f 8f bf 00 00 00    	jg     10865a <_malloc_r+0x5ca>
  10859b:	48 85 c9             	test   rcx,rcx
  10859e:	78 da                	js     10857a <_malloc_r+0x4ea>
  1085a0:	e9 0d 01 00 00       	jmp    1086b2 <_malloc_r+0x622>
  1085a5:	8d 5a 03             	lea    ebx,[rdx+0x3]
  1085a8:	f6 c3 03             	test   bl,0x3
  1085ab:	74 35                	je     1085e2 <_malloc_r+0x552>
  1085ad:	49 8d 6a 20          	lea    rbp,[r10+0x20]
  1085b1:	48 89 eb             	mov    rbx,rbp
  1085b4:	48 8b 5b 18          	mov    rbx,QWORD PTR [rbx+0x18]
  1085b8:	48 39 eb             	cmp    rbx,rbp
  1085bb:	74 22                	je     1085df <_malloc_r+0x54f>
  1085bd:	48 8b 43 08          	mov    rax,QWORD PTR [rbx+0x8]
  1085c1:	48 83 e0 fc          	and    rax,0xfffffffffffffffc
  1085c5:	48 89 c1             	mov    rcx,rax
  1085c8:	4c 29 e9             	sub    rcx,r13
  1085cb:	48 83 f9 1f          	cmp    rcx,0x1f
  1085cf:	0f 8f 85 00 00 00    	jg     10865a <_malloc_r+0x5ca>
  1085d5:	48 85 c9             	test   rcx,rcx
  1085d8:	78 da                	js     1085b4 <_malloc_r+0x524>
  1085da:	e9 d3 00 00 00       	jmp    1086b2 <_malloc_r+0x622>
  1085df:	8d 5a 04             	lea    ebx,[rdx+0x4]
