
kernel.elf:     ファイル形式 elf64-x86-64


セクション .text の逆アセンブル:

0000000000013e90 <_Z4stopv>:
   13e90:	55                   	push   rbp
   13e91:	48 89 e5             	mov    rbp,rsp
   13e94:	e9 00 00 00 00       	jmp    13e99 <_Z4stopv+0x9>
   13e99:	f4                   	hlt    
   13e9a:	e9 fa ff ff ff       	jmp    13e99 <_Z4stopv+0x9>
   13e9f:	90                   	nop

0000000000013ea0 <_ZnwmPv>:
   13ea0:	55                   	push   rbp
   13ea1:	48 89 e5             	mov    rbp,rsp
   13ea4:	48 83 ec 10          	sub    rsp,0x10
   13ea8:	48 89 7d f8          	mov    QWORD PTR [rbp-0x8],rdi
   13eac:	48 89 75 f0          	mov    QWORD PTR [rbp-0x10],rsi
   13eb0:	48 8b 45 f0          	mov    rax,QWORD PTR [rbp-0x10]
   13eb4:	48 83 c4 10          	add    rsp,0x10
   13eb8:	5d                   	pop    rbp
   13eb9:	c3                   	ret    
   13eba:	66 0f 1f 44 00 00    	nop    WORD PTR [rax+rax*1+0x0]

0000000000013ec0 <_ZdlPv>:
   13ec0:	55                   	push   rbp
   13ec1:	48 89 e5             	mov    rbp,rsp
   13ec4:	50                   	push   rax
   13ec5:	48 89 7d f8          	mov    QWORD PTR [rbp-0x8],rdi
   13ec9:	48 83 c4 08          	add    rsp,0x8
   13ecd:	5d                   	pop    rbp
   13ece:	c3                   	ret    
   13ecf:	90                   	nop

0000000000013ed0 <entry_point>:
   13ed0:	55                   	push   rbp
   13ed1:	48 89 e5             	mov    rbp,rsp
   13ed4:	48 83 ec 10          	sub    rsp,0x10
   13ed8:	48 89 7d f8          	mov    QWORD PTR [rbp-0x8],rdi
   13edc:	48 8b 7d f8          	mov    rdi,QWORD PTR [rbp-0x8]
   13ee0:	48 8d 35 19 00 00 00 	lea    rsi,[rip+0x19]        # 13f00 <kernel_main>
   13ee7:	48 8d 15 12 11 01 00 	lea    rdx,[rip+0x11112]        # 25000 <kernel_main_stack>
   13eee:	e8 dc c9 00 00       	call   208cf <call_kernel_main>
   13ef3:	48 83 c4 10          	add    rsp,0x10
   13ef7:	5d                   	pop    rbp
   13ef8:	c3                   	ret    
   13ef9:	0f 1f 80 00 00 00 00 	nop    DWORD PTR [rax+0x0]

0000000000013f00 <kernel_main>:
   13f00:	55                   	push   rbp
   13f01:	48 89 e5             	mov    rbp,rsp
   13f04:	48 81 ec a0 00 00 00 	sub    rsp,0xa0
   13f0b:	48 89 7d f8          	mov    QWORD PTR [rbp-0x8],rdi
   13f0f:	e8 dc e5 00 00       	call   224f0 <_Z22SetupIdentityPageTablev>
   13f14:	e8 77 e7 00 00       	call   22690 <_Z17InitializeKeycodev>
   13f19:	48 8b 7d f8          	mov    rdi,QWORD PTR [rbp-0x8]
   13f1d:	e8 9e 01 00 00       	call   140c0 <_Z15InitializeFrameP10bootinfo_t>
   13f22:	48 8d 05 e7 12 11 00 	lea    rax,[rip+0x1112e7]        # 125210 <vinfo>
   13f29:	48 8b 08             	mov    rcx,QWORD PTR [rax]
   13f2c:	8b 49 10             	mov    ecx,DWORD PTR [rcx+0x10]
   13f2f:	89 4d f4             	mov    DWORD PTR [rbp-0xc],ecx
   13f32:	48 8b 00             	mov    rax,QWORD PTR [rax]
   13f35:	8b 40 14             	mov    eax,DWORD PTR [rax+0x14]
   13f38:	89 45 f0             	mov    DWORD PTR [rbp-0x10],eax
   13f3b:	48 8b 45 f8          	mov    rax,QWORD PTR [rbp-0x8]
   13f3f:	48 8b 48 28          	mov    rcx,QWORD PTR [rax+0x28]
   13f43:	48 8d 05 86 6a 11 00 	lea    rax,[rip+0x116a86]        # 12a9d0 <mmap>
   13f4a:	48 89 08             	mov    QWORD PTR [rax],rcx
   13f4d:	c7 45 e8 00 00 00 00 	mov    DWORD PTR [rbp-0x18],0x0
   13f54:	c7 45 ec 00 00 00 00 	mov    DWORD PTR [rbp-0x14],0x0
   13f5b:	8b 45 f4             	mov    eax,DWORD PTR [rbp-0xc]
   13f5e:	89 45 e0             	mov    DWORD PTR [rbp-0x20],eax
   13f61:	8b 45 f0             	mov    eax,DWORD PTR [rbp-0x10]
   13f64:	89 45 e4             	mov    DWORD PTR [rbp-0x1c],eax
   13f67:	c6 45 d8 00          	mov    BYTE PTR [rbp-0x28],0x0
   13f6b:	c6 45 d9 00          	mov    BYTE PTR [rbp-0x27],0x0
   13f6f:	c6 45 da 00          	mov    BYTE PTR [rbp-0x26],0x0
   13f73:	48 8b 7d e8          	mov    rdi,QWORD PTR [rbp-0x18]
   13f77:	48 8b 75 e0          	mov    rsi,QWORD PTR [rbp-0x20]
   13f7b:	8a 45 da             	mov    al,BYTE PTR [rbp-0x26]
   13f7e:	88 45 d6             	mov    BYTE PTR [rbp-0x2a],al
   13f81:	66 8b 45 d8          	mov    ax,WORD PTR [rbp-0x28]
   13f85:	66 89 45 d4          	mov    WORD PTR [rbp-0x2c],ax
   13f89:	0f b6 45 d6          	movzx  eax,BYTE PTR [rbp-0x2a]
   13f8d:	c1 e0 10             	shl    eax,0x10
   13f90:	0f b7 55 d4          	movzx  edx,WORD PTR [rbp-0x2c]
   13f94:	09 c2                	or     edx,eax
   13f96:	e8 45 05 00 00       	call   144e0 <_Z11WriteSquare6VectorS_5Color>
   13f9b:	e8 f0 d7 00 00       	call   21790 <_Z13SetupSegmentsv>
   13fa0:	48 89 45 c8          	mov    QWORD PTR [rbp-0x38],rax
   13fa4:	66 c7 45 c6 08 00    	mov    WORD PTR [rbp-0x3a],0x8
   13faa:	66 c7 45 c4 10 00    	mov    WORD PTR [rbp-0x3c],0x10
   13fb0:	31 ff                	xor    edi,edi
   13fb2:	e8 45 c9 00 00       	call   208fc <SetDSAll>
   13fb7:	bf 08 00 00 00       	mov    edi,0x8
   13fbc:	be 10 00 00 00       	mov    esi,0x10
   13fc1:	e8 3f c9 00 00       	call   20905 <SetCSSS>
   13fc6:	e8 55 e2 00 00       	call   22220 <_Z19InitializeInterruptv>
   13fcb:	e8 90 e1 00 00       	call   22160 <_Z13InitializePICv>
   13fd0:	e8 2b d2 00 00       	call   21200 <_Z15show_memory_mapv>
   13fd5:	48 8d 3d f4 69 11 00 	lea    rdi,[rip+0x1169f4]        # 12a9d0 <mmap>
   13fdc:	e8 cf d2 00 00       	call   212b0 <_Z15search_mem_typem>
   13fe1:	89 c6                	mov    esi,eax
   13fe3:	48 8d 3d bf c2 ff ff 	lea    rdi,[rip+0xffffffffffffc2bf]        # 102a9 <zeroes.0-0x397>
   13fea:	b0 00                	mov    al,0x0
   13fec:	e8 df 0b 00 00       	call   14bd0 <Printf>
   13ff1:	48 8d 3d a9 c3 ff ff 	lea    rdi,[rip+0xffffffffffffc3a9]        # 103a1 <zeroes.0-0x29f>
   13ff8:	48 8d 35 01 ff ff ff 	lea    rsi,[rip+0xffffffffffffff01]        # 13f00 <kernel_main>
   13fff:	b0 00                	mov    al,0x0
   14001:	e8 ca 0b 00 00       	call   14bd0 <Printf>
   14006:	48 8d 3d af c1 ff ff 	lea    rdi,[rip+0xffffffffffffc1af]        # 101bc <zeroes.0-0x484>
   1400d:	b0 00                	mov    al,0x0
   1400f:	e8 bc 0b 00 00       	call   14bd0 <Printf>
   14014:	48 8d bd 60 ff ff ff 	lea    rdi,[rbp-0xa0]
   1401b:	e8 70 e9 00 00       	call   22990 <_Z9GetStringPc>
   14020:	48 8d bd 60 ff ff ff 	lea    rdi,[rbp-0xa0]
   14027:	e8 24 ea 00 00       	call   22a50 <_Z7commandPc>
   1402c:	e9 d5 ff ff ff       	jmp    14006 <kernel_main+0x106>
   14031:	cc                   	int3   
   14032:	cc                   	int3   
   14033:	cc                   	int3   
   14034:	cc                   	int3   
   14035:	cc                   	int3   
   14036:	cc                   	int3   
   14037:	cc                   	int3   
   14038:	cc                   	int3   
   14039:	cc                   	int3   
   1403a:	cc                   	int3   
   1403b:	cc                   	int3   
   1403c:	cc                   	int3   
   1403d:	cc                   	int3   
   1403e:	cc                   	int3   
   1403f:	cc                   	int3   

0000000000014040 <__cxx_global_var_init>:
   14040:	55                   	push   rbp
   14041:	48 89 e5             	mov    rbp,rsp
   14044:	48 8d 3d b5 0f 11 00 	lea    rdi,[rip+0x110fb5]        # 125000 <Input_Buffer>
   1404b:	e8 20 00 00 00       	call   14070 <_ZN11InputBufferC2Ev>
   14050:	5d                   	pop    rbp
   14051:	c3                   	ret    
   14052:	66 2e 0f 1f 84 00 00 	cs nop WORD PTR [rax+rax*1+0x0]
   14059:	00 00 00 
   1405c:	0f 1f 40 00          	nop    DWORD PTR [rax+0x0]

0000000000014060 <_GLOBAL__sub_I_kernel.cpp>:
   14060:	55                   	push   rbp
   14061:	48 89 e5             	mov    rbp,rsp
   14064:	e8 d7 ff ff ff       	call   14040 <__cxx_global_var_init>
   14069:	5d                   	pop    rbp
   1406a:	c3                   	ret    
   1406b:	cc                   	int3   
   1406c:	cc                   	int3   
   1406d:	cc                   	int3   
   1406e:	cc                   	int3   
   1406f:	cc                   	int3   

0000000000014070 <_ZN11InputBufferC2Ev>:
   14070:	55                   	push   rbp
   14071:	48 89 e5             	mov    rbp,rsp
   14074:	50                   	push   rax
   14075:	48 89 7d f8          	mov    QWORD PTR [rbp-0x8],rdi
   14079:	48 8b 45 f8          	mov    rax,QWORD PTR [rbp-0x8]
   1407d:	c7 80 f8 01 00 00 00 	mov    DWORD PTR [rax+0x1f8],0x0
   14084:	00 00 00 
   14087:	c7 80 fc 01 00 00 00 	mov    DWORD PTR [rax+0x1fc],0x0
   1408e:	00 00 00 
   14091:	c7 80 00 02 00 00 00 	mov    DWORD PTR [rax+0x200],0x0
   14098:	00 00 00 
   1409b:	c7 80 04 02 00 00 00 	mov    DWORD PTR [rax+0x204],0x0
   140a2:	00 00 00 
   140a5:	c7 80 08 02 00 00 00 	mov    DWORD PTR [rax+0x208],0x0
   140ac:	00 00 00 
   140af:	c6 80 f4 01 00 00 00 	mov    BYTE PTR [rax+0x1f4],0x0
   140b6:	48 83 c4 08          	add    rsp,0x8
   140ba:	5d                   	pop    rbp
   140bb:	c3                   	ret    
   140bc:	cc                   	int3   
   140bd:	cc                   	int3   
   140be:	cc                   	int3   
   140bf:	cc                   	int3   

00000000000140c0 <_Z15InitializeFrameP10bootinfo_t>:
   140c0:	55                   	push   rbp
   140c1:	48 89 e5             	mov    rbp,rsp
   140c4:	50                   	push   rax
   140c5:	48 89 7d f8          	mov    QWORD PTR [rbp-0x8],rdi
   140c9:	48 8b 45 f8          	mov    rax,QWORD PTR [rbp-0x8]
   140cd:	48 89 05 3c 11 11 00 	mov    QWORD PTR [rip+0x11113c],rax        # 125210 <vinfo>
   140d4:	48 8b 45 f8          	mov    rax,QWORD PTR [rbp-0x8]
   140d8:	48 8b 40 20          	mov    rax,QWORD PTR [rax+0x20]
   140dc:	48 89 05 35 11 11 00 	mov    QWORD PTR [rip+0x111135],rax        # 125218 <ascii_font>
   140e3:	48 8b 05 26 11 11 00 	mov    rax,QWORD PTR [rip+0x111126]        # 125210 <vinfo>
   140ea:	8b 40 14             	mov    eax,DWORD PTR [rax+0x14]
   140ed:	b9 11 00 00 00       	mov    ecx,0x11
   140f2:	31 d2                	xor    edx,edx
   140f4:	f7 f1                	div    ecx
   140f6:	89 05 2c 11 11 00    	mov    DWORD PTR [rip+0x11112c],eax        # 125228 <max_line>
   140fc:	48 83 c4 08          	add    rsp,0x8
   14100:	5d                   	pop    rbp
   14101:	c3                   	ret    
   14102:	66 2e 0f 1f 84 00 00 	cs nop WORD PTR [rax+rax*1+0x0]
   14109:	00 00 00 
   1410c:	0f 1f 40 00          	nop    DWORD PTR [rax+0x0]

0000000000014110 <_Z11HashtoColorh>:
   14110:	55                   	push   rbp
   14111:	48 89 e5             	mov    rbp,rsp
   14114:	48 83 ec 10          	sub    rsp,0x10
   14118:	40 88 f8             	mov    al,dil
   1411b:	88 45 f7             	mov    BYTE PTR [rbp-0x9],al
   1411e:	c6 45 f8 00          	mov    BYTE PTR [rbp-0x8],0x0
   14122:	c6 45 f9 00          	mov    BYTE PTR [rbp-0x7],0x0
   14126:	8a 45 f7             	mov    al,BYTE PTR [rbp-0x9]
   14129:	88 45 fa             	mov    BYTE PTR [rbp-0x6],al
   1412c:	8a 45 fa             	mov    al,BYTE PTR [rbp-0x6]
   1412f:	88 45 f2             	mov    BYTE PTR [rbp-0xe],al
   14132:	66 8b 45 f8          	mov    ax,WORD PTR [rbp-0x8]
   14136:	66 89 45 f0          	mov    WORD PTR [rbp-0x10],ax
   1413a:	0f b6 4d f2          	movzx  ecx,BYTE PTR [rbp-0xe]
   1413e:	c1 e1 10             	shl    ecx,0x10
   14141:	0f b7 45 f0          	movzx  eax,WORD PTR [rbp-0x10]
   14145:	09 c8                	or     eax,ecx
   14147:	48 83 c4 10          	add    rsp,0x10
   1414b:	5d                   	pop    rbp
   1414c:	c3                   	ret    
   1414d:	0f 1f 00             	nop    DWORD PTR [rax]

0000000000014150 <_Z8HSVtoRGBi>:
   14150:	55                   	push   rbp
   14151:	48 89 e5             	mov    rbp,rsp
   14154:	48 83 ec 40          	sub    rsp,0x40
   14158:	89 7d f4             	mov    DWORD PTR [rbp-0xc],edi
   1415b:	8b 45 f4             	mov    eax,DWORD PTR [rbp-0xc]
   1415e:	b9 00 06 00 00       	mov    ecx,0x600
   14163:	99                   	cdq    
   14164:	f7 f9                	idiv   ecx
   14166:	89 55 f4             	mov    DWORD PTR [rbp-0xc],edx
   14169:	81 7d f4 00 01 00 00 	cmp    DWORD PTR [rbp-0xc],0x100
   14170:	0f 8d 21 00 00 00    	jge    14197 <_Z8HSVtoRGBi+0x47>
   14176:	c6 45 f0 ff          	mov    BYTE PTR [rbp-0x10],0xff
   1417a:	8b 45 f4             	mov    eax,DWORD PTR [rbp-0xc]
   1417d:	88 45 f1             	mov    BYTE PTR [rbp-0xf],al
   14180:	c6 45 f2 00          	mov    BYTE PTR [rbp-0xe],0x0
   14184:	66 8b 45 f0          	mov    ax,WORD PTR [rbp-0x10]
   14188:	66 89 45 f8          	mov    WORD PTR [rbp-0x8],ax
   1418c:	8a 45 f2             	mov    al,BYTE PTR [rbp-0xe]
   1418f:	88 45 fa             	mov    BYTE PTR [rbp-0x6],al
   14192:	e9 29 01 00 00       	jmp    142c0 <_Z8HSVtoRGBi+0x170>
   14197:	81 7d f4 00 02 00 00 	cmp    DWORD PTR [rbp-0xc],0x200
   1419e:	0f 8d 30 00 00 00    	jge    141d4 <_Z8HSVtoRGBi+0x84>
   141a4:	8b 45 f4             	mov    eax,DWORD PTR [rbp-0xc]
   141a7:	b9 00 01 00 00       	mov    ecx,0x100
   141ac:	99                   	cdq    
   141ad:	f7 f9                	idiv   ecx
   141af:	b8 ff 00 00 00       	mov    eax,0xff
   141b4:	29 d0                	sub    eax,edx
   141b6:	88 45 e8             	mov    BYTE PTR [rbp-0x18],al
   141b9:	c6 45 e9 ff          	mov    BYTE PTR [rbp-0x17],0xff
   141bd:	c6 45 ea 00          	mov    BYTE PTR [rbp-0x16],0x0
   141c1:	66 8b 45 e8          	mov    ax,WORD PTR [rbp-0x18]
   141c5:	66 89 45 f8          	mov    WORD PTR [rbp-0x8],ax
   141c9:	8a 45 ea             	mov    al,BYTE PTR [rbp-0x16]
   141cc:	88 45 fa             	mov    BYTE PTR [rbp-0x6],al
   141cf:	e9 e7 00 00 00       	jmp    142bb <_Z8HSVtoRGBi+0x16b>
   141d4:	81 7d f4 00 03 00 00 	cmp    DWORD PTR [rbp-0xc],0x300
   141db:	0f 8d 2b 00 00 00    	jge    1420c <_Z8HSVtoRGBi+0xbc>
   141e1:	c6 45 e0 00          	mov    BYTE PTR [rbp-0x20],0x0
   141e5:	c6 45 e1 ff          	mov    BYTE PTR [rbp-0x1f],0xff
   141e9:	8b 45 f4             	mov    eax,DWORD PTR [rbp-0xc]
   141ec:	b9 00 01 00 00       	mov    ecx,0x100
   141f1:	99                   	cdq    
   141f2:	f7 f9                	idiv   ecx
   141f4:	88 d0                	mov    al,dl
   141f6:	88 45 e2             	mov    BYTE PTR [rbp-0x1e],al
   141f9:	66 8b 45 e0          	mov    ax,WORD PTR [rbp-0x20]
   141fd:	66 89 45 f8          	mov    WORD PTR [rbp-0x8],ax
   14201:	8a 45 e2             	mov    al,BYTE PTR [rbp-0x1e]
   14204:	88 45 fa             	mov    BYTE PTR [rbp-0x6],al
   14207:	e9 aa 00 00 00       	jmp    142b6 <_Z8HSVtoRGBi+0x166>
   1420c:	81 7d f4 00 04 00 00 	cmp    DWORD PTR [rbp-0xc],0x400
   14213:	0f 8d 30 00 00 00    	jge    14249 <_Z8HSVtoRGBi+0xf9>
   14219:	c6 45 d8 00          	mov    BYTE PTR [rbp-0x28],0x0
   1421d:	8b 45 f4             	mov    eax,DWORD PTR [rbp-0xc]
   14220:	b9 00 01 00 00       	mov    ecx,0x100
   14225:	99                   	cdq    
   14226:	f7 f9                	idiv   ecx
   14228:	b8 ff 00 00 00       	mov    eax,0xff
   1422d:	29 d0                	sub    eax,edx
   1422f:	88 45 d9             	mov    BYTE PTR [rbp-0x27],al
   14232:	c6 45 da ff          	mov    BYTE PTR [rbp-0x26],0xff
   14236:	66 8b 45 d8          	mov    ax,WORD PTR [rbp-0x28]
   1423a:	66 89 45 f8          	mov    WORD PTR [rbp-0x8],ax
   1423e:	8a 45 da             	mov    al,BYTE PTR [rbp-0x26]
   14241:	88 45 fa             	mov    BYTE PTR [rbp-0x6],al
   14244:	e9 68 00 00 00       	jmp    142b1 <_Z8HSVtoRGBi+0x161>
   14249:	81 7d f4 00 05 00 00 	cmp    DWORD PTR [rbp-0xc],0x500
   14250:	0f 8d 2b 00 00 00    	jge    14281 <_Z8HSVtoRGBi+0x131>
   14256:	8b 45 f4             	mov    eax,DWORD PTR [rbp-0xc]
   14259:	b9 00 01 00 00       	mov    ecx,0x100
   1425e:	99                   	cdq    
   1425f:	f7 f9                	idiv   ecx
   14261:	88 d0                	mov    al,dl
   14263:	88 45 d0             	mov    BYTE PTR [rbp-0x30],al
   14266:	c6 45 d1 00          	mov    BYTE PTR [rbp-0x2f],0x0
   1426a:	c6 45 d2 ff          	mov    BYTE PTR [rbp-0x2e],0xff
   1426e:	66 8b 45 d0          	mov    ax,WORD PTR [rbp-0x30]
   14272:	66 89 45 f8          	mov    WORD PTR [rbp-0x8],ax
   14276:	8a 45 d2             	mov    al,BYTE PTR [rbp-0x2e]
   14279:	88 45 fa             	mov    BYTE PTR [rbp-0x6],al
   1427c:	e9 2b 00 00 00       	jmp    142ac <_Z8HSVtoRGBi+0x15c>
   14281:	c6 45 c8 ff          	mov    BYTE PTR [rbp-0x38],0xff
   14285:	c6 45 c9 00          	mov    BYTE PTR [rbp-0x37],0x0
   14289:	8b 45 f4             	mov    eax,DWORD PTR [rbp-0xc]
   1428c:	b9 00 01 00 00       	mov    ecx,0x100
   14291:	99                   	cdq    
   14292:	f7 f9                	idiv   ecx
   14294:	b8 ff 00 00 00       	mov    eax,0xff
   14299:	29 d0                	sub    eax,edx
   1429b:	88 45 ca             	mov    BYTE PTR [rbp-0x36],al
   1429e:	66 8b 45 c8          	mov    ax,WORD PTR [rbp-0x38]
   142a2:	66 89 45 f8          	mov    WORD PTR [rbp-0x8],ax
   142a6:	8a 45 ca             	mov    al,BYTE PTR [rbp-0x36]
   142a9:	88 45 fa             	mov    BYTE PTR [rbp-0x6],al
   142ac:	e9 00 00 00 00       	jmp    142b1 <_Z8HSVtoRGBi+0x161>
   142b1:	e9 00 00 00 00       	jmp    142b6 <_Z8HSVtoRGBi+0x166>
   142b6:	e9 00 00 00 00       	jmp    142bb <_Z8HSVtoRGBi+0x16b>
   142bb:	e9 00 00 00 00       	jmp    142c0 <_Z8HSVtoRGBi+0x170>
   142c0:	8a 45 fa             	mov    al,BYTE PTR [rbp-0x6]
   142c3:	88 45 c6             	mov    BYTE PTR [rbp-0x3a],al
   142c6:	66 8b 45 f8          	mov    ax,WORD PTR [rbp-0x8]
   142ca:	66 89 45 c4          	mov    WORD PTR [rbp-0x3c],ax
   142ce:	0f b6 4d c6          	movzx  ecx,BYTE PTR [rbp-0x3a]
   142d2:	c1 e1 10             	shl    ecx,0x10
   142d5:	0f b7 45 c4          	movzx  eax,WORD PTR [rbp-0x3c]
   142d9:	09 c8                	or     eax,ecx
   142db:	48 83 c4 40          	add    rsp,0x40
   142df:	5d                   	pop    rbp
   142e0:	c3                   	ret    
   142e1:	66 2e 0f 1f 84 00 00 	cs nop WORD PTR [rax+rax*1+0x0]
   142e8:	00 00 00 
   142eb:	0f 1f 44 00 00       	nop    DWORD PTR [rax+rax*1+0x0]

00000000000142f0 <_Z10WritePixel5Colorii>:
   142f0:	55                   	push   rbp
   142f1:	48 89 e5             	mov    rbp,rsp
   142f4:	48 83 ec 28          	sub    rsp,0x28
   142f8:	66 89 f8             	mov    ax,di
   142fb:	66 89 45 f4          	mov    WORD PTR [rbp-0xc],ax
   142ff:	c1 ef 10             	shr    edi,0x10
   14302:	40 88 f8             	mov    al,dil
   14305:	88 45 f6             	mov    BYTE PTR [rbp-0xa],al
   14308:	8a 45 f6             	mov    al,BYTE PTR [rbp-0xa]
   1430b:	88 45 fa             	mov    BYTE PTR [rbp-0x6],al
   1430e:	66 8b 45 f4          	mov    ax,WORD PTR [rbp-0xc]
   14312:	66 89 45 f8          	mov    WORD PTR [rbp-0x8],ax
   14316:	89 75 f0             	mov    DWORD PTR [rbp-0x10],esi
   14319:	89 55 ec             	mov    DWORD PTR [rbp-0x14],edx
   1431c:	48 8b 05 ed 0e 11 00 	mov    rax,QWORD PTR [rip+0x110eed]        # 125210 <vinfo>
   14323:	8b 40 10             	mov    eax,DWORD PTR [rax+0x10]
   14326:	8b 4d ec             	mov    ecx,DWORD PTR [rbp-0x14]
   14329:	0f af c1             	imul   eax,ecx
   1432c:	8b 4d f0             	mov    ecx,DWORD PTR [rbp-0x10]
   1432f:	01 c8                	add    eax,ecx
   14331:	89 45 e8             	mov    DWORD PTR [rbp-0x18],eax
   14334:	48 8b 05 d5 0e 11 00 	mov    rax,QWORD PTR [rip+0x110ed5]        # 125210 <vinfo>
   1433b:	48 8b 00             	mov    rax,QWORD PTR [rax]
   1433e:	8b 4d e8             	mov    ecx,DWORD PTR [rbp-0x18]
   14341:	c1 e1 02             	shl    ecx,0x2
   14344:	48 63 c9             	movsxd rcx,ecx
   14347:	48 01 c8             	add    rax,rcx
   1434a:	48 89 45 e0          	mov    QWORD PTR [rbp-0x20],rax
   1434e:	48 8b 05 bb 0e 11 00 	mov    rax,QWORD PTR [rip+0x110ebb]        # 125210 <vinfo>
   14355:	8b 40 1c             	mov    eax,DWORD PTR [rax+0x1c]
   14358:	89 45 dc             	mov    DWORD PTR [rbp-0x24],eax
   1435b:	85 c0                	test   eax,eax
   1435d:	0f 84 16 00 00 00    	je     14379 <_Z10WritePixel5Colorii+0x89>
   14363:	e9 00 00 00 00       	jmp    14368 <_Z10WritePixel5Colorii+0x78>
   14368:	8b 45 dc             	mov    eax,DWORD PTR [rbp-0x24]
   1436b:	83 e8 01             	sub    eax,0x1
   1436e:	0f 84 27 00 00 00    	je     1439b <_Z10WritePixel5Colorii+0xab>
   14374:	e9 44 00 00 00       	jmp    143bd <_Z10WritePixel5Colorii+0xcd>
   14379:	8a 4d f8             	mov    cl,BYTE PTR [rbp-0x8]
   1437c:	48 8b 45 e0          	mov    rax,QWORD PTR [rbp-0x20]
   14380:	88 08                	mov    BYTE PTR [rax],cl
   14382:	8a 4d f9             	mov    cl,BYTE PTR [rbp-0x7]
   14385:	48 8b 45 e0          	mov    rax,QWORD PTR [rbp-0x20]
   14389:	88 48 01             	mov    BYTE PTR [rax+0x1],cl
   1438c:	8a 4d fa             	mov    cl,BYTE PTR [rbp-0x6]
   1438f:	48 8b 45 e0          	mov    rax,QWORD PTR [rbp-0x20]
   14393:	88 48 02             	mov    BYTE PTR [rax+0x2],cl
   14396:	e9 2e 00 00 00       	jmp    143c9 <_Z10WritePixel5Colorii+0xd9>
   1439b:	8a 4d fa             	mov    cl,BYTE PTR [rbp-0x6]
   1439e:	48 8b 45 e0          	mov    rax,QWORD PTR [rbp-0x20]
   143a2:	88 08                	mov    BYTE PTR [rax],cl
   143a4:	8a 4d f9             	mov    cl,BYTE PTR [rbp-0x7]
   143a7:	48 8b 45 e0          	mov    rax,QWORD PTR [rbp-0x20]
   143ab:	88 48 01             	mov    BYTE PTR [rax+0x1],cl
   143ae:	8a 4d f8             	mov    cl,BYTE PTR [rbp-0x8]
   143b1:	48 8b 45 e0          	mov    rax,QWORD PTR [rbp-0x20]
   143b5:	88 48 02             	mov    BYTE PTR [rax+0x2],cl
   143b8:	e9 0c 00 00 00       	jmp    143c9 <_Z10WritePixel5Colorii+0xd9>
   143bd:	c7 45 fc 01 00 00 00 	mov    DWORD PTR [rbp-0x4],0x1
   143c4:	e9 07 00 00 00       	jmp    143d0 <_Z10WritePixel5Colorii+0xe0>
   143c9:	c7 45 fc 00 00 00 00 	mov    DWORD PTR [rbp-0x4],0x0
   143d0:	8b 45 fc             	mov    eax,DWORD PTR [rbp-0x4]
   143d3:	48 83 c4 28          	add    rsp,0x28
   143d7:	5d                   	pop    rbp
   143d8:	c3                   	ret    
   143d9:	0f 1f 80 00 00 00 00 	nop    DWORD PTR [rax+0x0]

00000000000143e0 <_Z10WriteAsciic5Colorii>:
   143e0:	55                   	push   rbp
   143e1:	48 89 e5             	mov    rbp,rsp
   143e4:	48 83 ec 30          	sub    rsp,0x30
   143e8:	40 88 f8             	mov    al,dil
   143eb:	66 89 f7             	mov    di,si
   143ee:	66 89 7d f4          	mov    WORD PTR [rbp-0xc],di
   143f2:	c1 ee 10             	shr    esi,0x10
   143f5:	40 88 75 f6          	mov    BYTE PTR [rbp-0xa],sil
   143f9:	66 8b 75 f4          	mov    si,WORD PTR [rbp-0xc]
   143fd:	66 89 75 f8          	mov    WORD PTR [rbp-0x8],si
   14401:	40 8a 75 f6          	mov    sil,BYTE PTR [rbp-0xa]
   14405:	40 88 75 fa          	mov    BYTE PTR [rbp-0x6],sil
   14409:	88 45 f3             	mov    BYTE PTR [rbp-0xd],al
   1440c:	89 55 ec             	mov    DWORD PTR [rbp-0x14],edx
   1440f:	89 4d e8             	mov    DWORD PTR [rbp-0x18],ecx
   14412:	c7 45 e4 00 00 00 00 	mov    DWORD PTR [rbp-0x1c],0x0
   14419:	83 7d e4 10          	cmp    DWORD PTR [rbp-0x1c],0x10
   1441d:	0f 8d a6 00 00 00    	jge    144c9 <_Z10WriteAsciic5Colorii+0xe9>
   14423:	c7 45 e0 00 00 00 00 	mov    DWORD PTR [rbp-0x20],0x0
   1442a:	83 7d e0 08          	cmp    DWORD PTR [rbp-0x20],0x8
   1442e:	0f 8d 82 00 00 00    	jge    144b6 <_Z10WriteAsciic5Colorii+0xd6>
   14434:	48 8b 05 dd 0d 11 00 	mov    rax,QWORD PTR [rip+0x110ddd]        # 125218 <ascii_font>
   1443b:	48 0f be 4d f3       	movsx  rcx,BYTE PTR [rbp-0xd]
   14440:	48 c1 e1 04          	shl    rcx,0x4
   14444:	48 01 c8             	add    rax,rcx
   14447:	48 63 4d e4          	movsxd rcx,DWORD PTR [rbp-0x1c]
   1444b:	0f be 04 08          	movsx  eax,BYTE PTR [rax+rcx*1]
   1444f:	b9 07 00 00 00       	mov    ecx,0x7
   14454:	2b 4d e0             	sub    ecx,DWORD PTR [rbp-0x20]
   14457:	d3 f8                	sar    eax,cl
   14459:	83 e0 01             	and    eax,0x1
   1445c:	83 f8 00             	cmp    eax,0x0
   1445f:	0f 84 3e 00 00 00    	je     144a3 <_Z10WriteAsciic5Colorii+0xc3>
   14465:	8a 45 fa             	mov    al,BYTE PTR [rbp-0x6]
   14468:	88 45 da             	mov    BYTE PTR [rbp-0x26],al
   1446b:	66 8b 45 f8          	mov    ax,WORD PTR [rbp-0x8]
   1446f:	66 89 45 d8          	mov    WORD PTR [rbp-0x28],ax
   14473:	8b 75 ec             	mov    esi,DWORD PTR [rbp-0x14]
   14476:	8b 45 e0             	mov    eax,DWORD PTR [rbp-0x20]
   14479:	01 c6                	add    esi,eax
   1447b:	8b 55 e8             	mov    edx,DWORD PTR [rbp-0x18]
   1447e:	8b 45 e4             	mov    eax,DWORD PTR [rbp-0x1c]
   14481:	01 c2                	add    edx,eax
   14483:	8a 45 da             	mov    al,BYTE PTR [rbp-0x26]
   14486:	88 45 d6             	mov    BYTE PTR [rbp-0x2a],al
   14489:	66 8b 45 d8          	mov    ax,WORD PTR [rbp-0x28]
   1448d:	66 89 45 d4          	mov    WORD PTR [rbp-0x2c],ax
   14491:	0f b6 45 d6          	movzx  eax,BYTE PTR [rbp-0x2a]
   14495:	c1 e0 10             	shl    eax,0x10
   14498:	0f b7 7d d4          	movzx  edi,WORD PTR [rbp-0x2c]
   1449c:	09 c7                	or     edi,eax
   1449e:	e8 4d fe ff ff       	call   142f0 <_Z10WritePixel5Colorii>
   144a3:	e9 00 00 00 00       	jmp    144a8 <_Z10WriteAsciic5Colorii+0xc8>
   144a8:	8b 45 e0             	mov    eax,DWORD PTR [rbp-0x20]
   144ab:	83 c0 01             	add    eax,0x1
   144ae:	89 45 e0             	mov    DWORD PTR [rbp-0x20],eax
   144b1:	e9 74 ff ff ff       	jmp    1442a <_Z10WriteAsciic5Colorii+0x4a>
   144b6:	e9 00 00 00 00       	jmp    144bb <_Z10WriteAsciic5Colorii+0xdb>
   144bb:	8b 45 e4             	mov    eax,DWORD PTR [rbp-0x1c]
   144be:	83 c0 01             	add    eax,0x1
   144c1:	89 45 e4             	mov    DWORD PTR [rbp-0x1c],eax
   144c4:	e9 50 ff ff ff       	jmp    14419 <_Z10WriteAsciic5Colorii+0x39>
   144c9:	31 c0                	xor    eax,eax
   144cb:	48 83 c4 30          	add    rsp,0x30
   144cf:	5d                   	pop    rbp
   144d0:	c3                   	ret    
   144d1:	66 2e 0f 1f 84 00 00 	cs nop WORD PTR [rax+rax*1+0x0]
   144d8:	00 00 00 
   144db:	0f 1f 44 00 00       	nop    DWORD PTR [rax+rax*1+0x0]

00000000000144e0 <_Z11WriteSquare6VectorS_5Color>:
   144e0:	55                   	push   rbp
   144e1:	48 89 e5             	mov    rbp,rsp
   144e4:	48 83 ec 50          	sub    rsp,0x50
   144e8:	48 89 7d f8          	mov    QWORD PTR [rbp-0x8],rdi
   144ec:	48 89 75 f0          	mov    QWORD PTR [rbp-0x10],rsi
   144f0:	89 d0                	mov    eax,edx
   144f2:	c1 e8 10             	shr    eax,0x10
   144f5:	88 45 e6             	mov    BYTE PTR [rbp-0x1a],al
   144f8:	66 89 d0             	mov    ax,dx
   144fb:	66 89 45 e4          	mov    WORD PTR [rbp-0x1c],ax
   144ff:	66 8b 45 e4          	mov    ax,WORD PTR [rbp-0x1c]
   14503:	66 89 45 e8          	mov    WORD PTR [rbp-0x18],ax
   14507:	8a 45 e6             	mov    al,BYTE PTR [rbp-0x1a]
   1450a:	88 45 ea             	mov    BYTE PTR [rbp-0x16],al
   1450d:	8b 45 f8             	mov    eax,DWORD PTR [rbp-0x8]
   14510:	3b 45 f0             	cmp    eax,DWORD PTR [rbp-0x10]
   14513:	0f 8e 0b 00 00 00    	jle    14524 <_Z11WriteSquare6VectorS_5Color+0x44>
   14519:	8b 45 f0             	mov    eax,DWORD PTR [rbp-0x10]
   1451c:	89 45 d0             	mov    DWORD PTR [rbp-0x30],eax
   1451f:	e9 06 00 00 00       	jmp    1452a <_Z11WriteSquare6VectorS_5Color+0x4a>
   14524:	8b 45 f8             	mov    eax,DWORD PTR [rbp-0x8]
   14527:	89 45 d0             	mov    DWORD PTR [rbp-0x30],eax
   1452a:	8b 45 d0             	mov    eax,DWORD PTR [rbp-0x30]
   1452d:	89 45 e0             	mov    DWORD PTR [rbp-0x20],eax
   14530:	8b 45 e0             	mov    eax,DWORD PTR [rbp-0x20]
   14533:	89 45 cc             	mov    DWORD PTR [rbp-0x34],eax
   14536:	8b 45 f8             	mov    eax,DWORD PTR [rbp-0x8]
   14539:	3b 45 f0             	cmp    eax,DWORD PTR [rbp-0x10]
   1453c:	0f 8d 0b 00 00 00    	jge    1454d <_Z11WriteSquare6VectorS_5Color+0x6d>
   14542:	8b 45 f0             	mov    eax,DWORD PTR [rbp-0x10]
   14545:	89 45 c8             	mov    DWORD PTR [rbp-0x38],eax
   14548:	e9 06 00 00 00       	jmp    14553 <_Z11WriteSquare6VectorS_5Color+0x73>
   1454d:	8b 45 f8             	mov    eax,DWORD PTR [rbp-0x8]
   14550:	89 45 c8             	mov    DWORD PTR [rbp-0x38],eax
   14553:	8b 45 cc             	mov    eax,DWORD PTR [rbp-0x34]
   14556:	8b 4d c8             	mov    ecx,DWORD PTR [rbp-0x38]
   14559:	39 c8                	cmp    eax,ecx
   1455b:	0f 8d a9 00 00 00    	jge    1460a <_Z11WriteSquare6VectorS_5Color+0x12a>
   14561:	8b 45 fc             	mov    eax,DWORD PTR [rbp-0x4]
   14564:	3b 45 f4             	cmp    eax,DWORD PTR [rbp-0xc]
   14567:	0f 8e 0b 00 00 00    	jle    14578 <_Z11WriteSquare6VectorS_5Color+0x98>
   1456d:	8b 45 f4             	mov    eax,DWORD PTR [rbp-0xc]
   14570:	89 45 c4             	mov    DWORD PTR [rbp-0x3c],eax
   14573:	e9 06 00 00 00       	jmp    1457e <_Z11WriteSquare6VectorS_5Color+0x9e>
   14578:	8b 45 fc             	mov    eax,DWORD PTR [rbp-0x4]
   1457b:	89 45 c4             	mov    DWORD PTR [rbp-0x3c],eax
   1457e:	8b 45 c4             	mov    eax,DWORD PTR [rbp-0x3c]
   14581:	89 45 dc             	mov    DWORD PTR [rbp-0x24],eax
   14584:	8b 45 dc             	mov    eax,DWORD PTR [rbp-0x24]
   14587:	89 45 c0             	mov    DWORD PTR [rbp-0x40],eax
   1458a:	8b 45 fc             	mov    eax,DWORD PTR [rbp-0x4]
   1458d:	3b 45 f4             	cmp    eax,DWORD PTR [rbp-0xc]
   14590:	0f 8d 0b 00 00 00    	jge    145a1 <_Z11WriteSquare6VectorS_5Color+0xc1>
   14596:	8b 45 f4             	mov    eax,DWORD PTR [rbp-0xc]
   14599:	89 45 bc             	mov    DWORD PTR [rbp-0x44],eax
   1459c:	e9 06 00 00 00       	jmp    145a7 <_Z11WriteSquare6VectorS_5Color+0xc7>
   145a1:	8b 45 fc             	mov    eax,DWORD PTR [rbp-0x4]
   145a4:	89 45 bc             	mov    DWORD PTR [rbp-0x44],eax
   145a7:	8b 45 c0             	mov    eax,DWORD PTR [rbp-0x40]
   145aa:	8b 4d bc             	mov    ecx,DWORD PTR [rbp-0x44]
   145ad:	39 c8                	cmp    eax,ecx
   145af:	0f 8d 42 00 00 00    	jge    145f7 <_Z11WriteSquare6VectorS_5Color+0x117>
   145b5:	8a 45 ea             	mov    al,BYTE PTR [rbp-0x16]
   145b8:	88 45 da             	mov    BYTE PTR [rbp-0x26],al
   145bb:	66 8b 45 e8          	mov    ax,WORD PTR [rbp-0x18]
   145bf:	66 89 45 d8          	mov    WORD PTR [rbp-0x28],ax
   145c3:	8b 75 e0             	mov    esi,DWORD PTR [rbp-0x20]
   145c6:	8b 55 dc             	mov    edx,DWORD PTR [rbp-0x24]
   145c9:	8a 45 da             	mov    al,BYTE PTR [rbp-0x26]
   145cc:	88 45 d6             	mov    BYTE PTR [rbp-0x2a],al
   145cf:	66 8b 45 d8          	mov    ax,WORD PTR [rbp-0x28]
   145d3:	66 89 45 d4          	mov    WORD PTR [rbp-0x2c],ax
   145d7:	0f b6 45 d6          	movzx  eax,BYTE PTR [rbp-0x2a]
   145db:	c1 e0 10             	shl    eax,0x10
   145de:	0f b7 7d d4          	movzx  edi,WORD PTR [rbp-0x2c]
   145e2:	09 c7                	or     edi,eax
   145e4:	e8 07 fd ff ff       	call   142f0 <_Z10WritePixel5Colorii>
   145e9:	8b 45 dc             	mov    eax,DWORD PTR [rbp-0x24]
   145ec:	83 c0 01             	add    eax,0x1
   145ef:	89 45 dc             	mov    DWORD PTR [rbp-0x24],eax
   145f2:	e9 8d ff ff ff       	jmp    14584 <_Z11WriteSquare6VectorS_5Color+0xa4>
   145f7:	e9 00 00 00 00       	jmp    145fc <_Z11WriteSquare6VectorS_5Color+0x11c>
   145fc:	8b 45 e0             	mov    eax,DWORD PTR [rbp-0x20]
   145ff:	83 c0 01             	add    eax,0x1
   14602:	89 45 e0             	mov    DWORD PTR [rbp-0x20],eax
   14605:	e9 26 ff ff ff       	jmp    14530 <_Z11WriteSquare6VectorS_5Color+0x50>
   1460a:	31 c0                	xor    eax,eax
   1460c:	48 83 c4 50          	add    rsp,0x50
   14610:	5d                   	pop    rbp
   14611:	c3                   	ret    
   14612:	66 2e 0f 1f 84 00 00 	cs nop WORD PTR [rax+rax*1+0x0]
   14619:	00 00 00 
   1461c:	0f 1f 40 00          	nop    DWORD PTR [rax+0x0]

0000000000014620 <_Z9PrintLinePKc6Vector5Color>:
   14620:	55                   	push   rbp
   14621:	48 89 e5             	mov    rbp,rsp
   14624:	48 83 ec 40          	sub    rsp,0x40
   14628:	48 89 75 f8          	mov    QWORD PTR [rbp-0x8],rsi
   1462c:	66 89 d0             	mov    ax,dx
   1462f:	66 89 45 ec          	mov    WORD PTR [rbp-0x14],ax
   14633:	c1 ea 10             	shr    edx,0x10
   14636:	88 d0                	mov    al,dl
   14638:	88 45 ee             	mov    BYTE PTR [rbp-0x12],al
   1463b:	66 8b 45 ec          	mov    ax,WORD PTR [rbp-0x14]
   1463f:	66 89 45 f0          	mov    WORD PTR [rbp-0x10],ax
   14643:	8a 45 ee             	mov    al,BYTE PTR [rbp-0x12]
   14646:	88 45 f2             	mov    BYTE PTR [rbp-0xe],al
   14649:	48 89 7d e0          	mov    QWORD PTR [rbp-0x20],rdi
   1464d:	48 8b 45 e0          	mov    rax,QWORD PTR [rbp-0x20]
   14651:	48 89 45 d8          	mov    QWORD PTR [rbp-0x28],rax
   14655:	c7 45 d4 00 00 00 00 	mov    DWORD PTR [rbp-0x2c],0x0
   1465c:	48 8b 45 d8          	mov    rax,QWORD PTR [rbp-0x28]
   14660:	48 63 4d d4          	movsxd rcx,DWORD PTR [rbp-0x2c]
   14664:	0f be 04 08          	movsx  eax,BYTE PTR [rax+rcx*1]
   14668:	83 f8 00             	cmp    eax,0x0
   1466b:	0f 84 c2 00 00 00    	je     14733 <_Z9PrintLinePKc6Vector5Color+0x113>
   14671:	48 8b 45 d8          	mov    rax,QWORD PTR [rbp-0x28]
   14675:	48 63 4d d4          	movsxd rcx,DWORD PTR [rbp-0x2c]
   14679:	0f be 04 08          	movsx  eax,BYTE PTR [rax+rcx*1]
   1467d:	83 f8 0a             	cmp    eax,0xa
   14680:	0f 84 9f 00 00 00    	je     14725 <_Z9PrintLinePKc6Vector5Color+0x105>
   14686:	48 8b 45 d8          	mov    rax,QWORD PTR [rbp-0x28]
   1468a:	48 63 4d d4          	movsxd rcx,DWORD PTR [rbp-0x2c]
   1468e:	0f be 3c 08          	movsx  edi,BYTE PTR [rax+rcx*1]
   14692:	c6 45 d0 64          	mov    BYTE PTR [rbp-0x30],0x64
   14696:	c6 45 d1 64          	mov    BYTE PTR [rbp-0x2f],0x64
   1469a:	c6 45 d2 64          	mov    BYTE PTR [rbp-0x2e],0x64
   1469e:	8b 4d d4             	mov    ecx,DWORD PTR [rbp-0x2c]
   146a1:	89 c8                	mov    eax,ecx
   146a3:	8d 34 c0             	lea    esi,[rax+rax*8]
   146a6:	8b 55 f8             	mov    edx,DWORD PTR [rbp-0x8]
   146a9:	8b 4d fc             	mov    ecx,DWORD PTR [rbp-0x4]
   146ac:	89 d0                	mov    eax,edx
   146ae:	89 f2                	mov    edx,esi
   146b0:	8d 54 10 01          	lea    edx,[rax+rdx*1+0x1]
   146b4:	83 c1 01             	add    ecx,0x1
   146b7:	8a 45 d2             	mov    al,BYTE PTR [rbp-0x2e]
   146ba:	88 45 ce             	mov    BYTE PTR [rbp-0x32],al
   146bd:	66 8b 45 d0          	mov    ax,WORD PTR [rbp-0x30]
   146c1:	66 89 45 cc          	mov    WORD PTR [rbp-0x34],ax
   146c5:	0f b6 45 ce          	movzx  eax,BYTE PTR [rbp-0x32]
   146c9:	c1 e0 10             	shl    eax,0x10
   146cc:	0f b7 75 cc          	movzx  esi,WORD PTR [rbp-0x34]
   146d0:	09 c6                	or     esi,eax
   146d2:	e8 09 fd ff ff       	call   143e0 <_Z10WriteAsciic5Colorii>
   146d7:	48 8b 45 d8          	mov    rax,QWORD PTR [rbp-0x28]
   146db:	48 63 4d d4          	movsxd rcx,DWORD PTR [rbp-0x2c]
   146df:	8a 04 08             	mov    al,BYTE PTR [rax+rcx*1]
   146e2:	8a 4d f2             	mov    cl,BYTE PTR [rbp-0xe]
   146e5:	88 4d ca             	mov    BYTE PTR [rbp-0x36],cl
   146e8:	66 8b 4d f0          	mov    cx,WORD PTR [rbp-0x10]
   146ec:	66 89 4d c8          	mov    WORD PTR [rbp-0x38],cx
   146f0:	8b 55 d4             	mov    edx,DWORD PTR [rbp-0x2c]
   146f3:	89 d1                	mov    ecx,edx
   146f5:	8d 34 c9             	lea    esi,[rcx+rcx*8]
   146f8:	8b 55 f8             	mov    edx,DWORD PTR [rbp-0x8]
   146fb:	8b 4d fc             	mov    ecx,DWORD PTR [rbp-0x4]
   146fe:	01 f2                	add    edx,esi
   14700:	40 8a 75 ca          	mov    sil,BYTE PTR [rbp-0x36]
   14704:	40 88 75 c6          	mov    BYTE PTR [rbp-0x3a],sil
   14708:	66 8b 75 c8          	mov    si,WORD PTR [rbp-0x38]
   1470c:	66 89 75 c4          	mov    WORD PTR [rbp-0x3c],si
   14710:	0f b6 7d c6          	movzx  edi,BYTE PTR [rbp-0x3a]
   14714:	c1 e7 10             	shl    edi,0x10
   14717:	0f b7 75 c4          	movzx  esi,WORD PTR [rbp-0x3c]
   1471b:	09 fe                	or     esi,edi
   1471d:	0f be f8             	movsx  edi,al
   14720:	e8 bb fc ff ff       	call   143e0 <_Z10WriteAsciic5Colorii>
   14725:	8b 45 d4             	mov    eax,DWORD PTR [rbp-0x2c]
   14728:	83 c0 01             	add    eax,0x1
   1472b:	89 45 d4             	mov    DWORD PTR [rbp-0x2c],eax
   1472e:	e9 29 ff ff ff       	jmp    1465c <_Z9PrintLinePKc6Vector5Color+0x3c>
   14733:	31 c0                	xor    eax,eax
   14735:	48 83 c4 40          	add    rsp,0x40
   14739:	5d                   	pop    rbp
   1473a:	c3                   	ret    
   1473b:	0f 1f 44 00 00       	nop    DWORD PTR [rax+rax*1+0x0]

0000000000014740 <_Z12RegisterLinePKc>:
   14740:	55                   	push   rbp
   14741:	48 89 e5             	mov    rbp,rsp
   14744:	48 83 ec 10          	sub    rsp,0x10
   14748:	48 89 7d f8          	mov    QWORD PTR [rbp-0x8],rdi
   1474c:	48 c7 45 f0 00 00 00 	mov    QWORD PTR [rbp-0x10],0x0
   14753:	00 
   14754:	48 63 05 c9 0a 11 00 	movsxd rax,DWORD PTR [rip+0x110ac9]        # 125224 <line_queue_end>
   1475b:	48 8d 3d ce 0a 11 00 	lea    rdi,[rip+0x110ace]        # 125230 <line_queue>
   14762:	48 6b c0 64          	imul   rax,rax,0x64
   14766:	48 01 c7             	add    rdi,rax
   14769:	48 8b 75 f8          	mov    rsi,QWORD PTR [rbp-0x8]
   1476d:	e8 5e 09 00 00       	call   150d0 <strcpy>
   14772:	48 89 45 f0          	mov    QWORD PTR [rbp-0x10],rax
   14776:	8b 05 a8 0a 11 00    	mov    eax,DWORD PTR [rip+0x110aa8]        # 125224 <line_queue_end>
   1477c:	83 c0 01             	add    eax,0x1
   1477f:	99                   	cdq    
   14780:	f7 3d a2 0a 11 00    	idiv   DWORD PTR [rip+0x110aa2]        # 125228 <max_line>
   14786:	89 15 98 0a 11 00    	mov    DWORD PTR [rip+0x110a98],edx        # 125224 <line_queue_end>
   1478c:	8b 05 92 0a 11 00    	mov    eax,DWORD PTR [rip+0x110a92]        # 125224 <line_queue_end>
   14792:	3b 05 88 0a 11 00    	cmp    eax,DWORD PTR [rip+0x110a88]        # 125220 <line_queue_head>
   14798:	0f 85 16 00 00 00    	jne    147b4 <_Z12RegisterLinePKc+0x74>
   1479e:	8b 05 7c 0a 11 00    	mov    eax,DWORD PTR [rip+0x110a7c]        # 125220 <line_queue_head>
   147a4:	83 c0 01             	add    eax,0x1
   147a7:	99                   	cdq    
   147a8:	f7 3d 7a 0a 11 00    	idiv   DWORD PTR [rip+0x110a7a]        # 125228 <max_line>
   147ae:	89 15 6c 0a 11 00    	mov    DWORD PTR [rip+0x110a6c],edx        # 125220 <line_queue_head>
   147b4:	48 8b 45 f0          	mov    rax,QWORD PTR [rbp-0x10]
   147b8:	48 83 c4 10          	add    rsp,0x10
   147bc:	5d                   	pop    rbp
   147bd:	c3                   	ret    
   147be:	66 90                	xchg   ax,ax

00000000000147c0 <Print>:
   147c0:	55                   	push   rbp
   147c1:	48 89 e5             	mov    rbp,rsp
   147c4:	48 81 ec f0 00 00 00 	sub    rsp,0xf0
   147cb:	48 89 7d f0          	mov    QWORD PTR [rbp-0x10],rdi
   147cf:	48 8b 75 f0          	mov    rsi,QWORD PTR [rbp-0x10]
   147d3:	48 8d 3d 86 58 11 00 	lea    rdi,[rip+0x115886]        # 12a060 <_ZZ5PrintE4line>
   147da:	e8 81 09 00 00       	call   15160 <strcat>
   147df:	48 8d 3d 7a 58 11 00 	lea    rdi,[rip+0x11587a]        # 12a060 <_ZZ5PrintE4line>
   147e6:	e8 e5 09 00 00       	call   151d0 <strlen>
   147eb:	48 83 f8 28          	cmp    rax,0x28
   147ef:	0f 86 43 00 00 00    	jbe    14838 <Print+0x78>
   147f5:	48 8d 7d c0          	lea    rdi,[rbp-0x40]
   147f9:	48 8d 35 60 58 11 00 	lea    rsi,[rip+0x115860]        # 12a060 <_ZZ5PrintE4line>
   14800:	48 83 c6 28          	add    rsi,0x28
   14804:	e8 c7 08 00 00       	call   150d0 <strcpy>
   14809:	c6 05 78 58 11 00 00 	mov    BYTE PTR [rip+0x115878],0x0        # 12a088 <_ZZ5PrintE4line+0x28>
   14810:	48 8d 3d 49 58 11 00 	lea    rdi,[rip+0x115849]        # 12a060 <_ZZ5PrintE4line>
   14817:	e8 24 ff ff ff       	call   14740 <_Z12RegisterLinePKc>
   1481c:	c6 05 3d 58 11 00 00 	mov    BYTE PTR [rip+0x11583d],0x0        # 12a060 <_ZZ5PrintE4line>
   14823:	48 8d 7d c0          	lea    rdi,[rbp-0x40]
   14827:	e8 94 ff ff ff       	call   147c0 <Print>
   1482c:	c7 45 fc 00 00 00 00 	mov    DWORD PTR [rbp-0x4],0x0
   14833:	e9 7e 03 00 00       	jmp    14bb6 <Print+0x3f6>
   14838:	48 8d 3d 21 58 11 00 	lea    rdi,[rip+0x115821]        # 12a060 <_ZZ5PrintE4line>
   1483f:	e8 8c 09 00 00       	call   151d0 <strlen>
   14844:	48 89 85 10 ff ff ff 	mov    QWORD PTR [rbp-0xf0],rax
   1484b:	48 8b 7d f0          	mov    rdi,QWORD PTR [rbp-0x10]
   1484f:	e8 7c 09 00 00       	call   151d0 <strlen>
   14854:	48 89 c1             	mov    rcx,rax
   14857:	48 8b 85 10 ff ff ff 	mov    rax,QWORD PTR [rbp-0xf0]
   1485e:	48 29 c8             	sub    rax,rcx
   14861:	48 83 f8 00          	cmp    rax,0x0
   14865:	0f 84 e4 00 00 00    	je     1494f <Print+0x18f>
   1486b:	c7 45 b8 00 00 00 00 	mov    DWORD PTR [rbp-0x48],0x0
   14872:	8b 05 d8 57 11 00    	mov    eax,DWORD PTR [rip+0x1157d8]        # 12a050 <_ZZ5PrintE1y>
   14878:	89 45 bc             	mov    DWORD PTR [rbp-0x44],eax
   1487b:	c7 45 b0 68 01 00 00 	mov    DWORD PTR [rbp-0x50],0x168
   14882:	8b 05 c8 57 11 00    	mov    eax,DWORD PTR [rip+0x1157c8]        # 12a050 <_ZZ5PrintE1y>
   14888:	83 c0 11             	add    eax,0x11
   1488b:	89 45 b4             	mov    DWORD PTR [rbp-0x4c],eax
   1488e:	c6 45 a8 00          	mov    BYTE PTR [rbp-0x58],0x0
   14892:	c6 45 a9 00          	mov    BYTE PTR [rbp-0x57],0x0
   14896:	c6 45 aa 00          	mov    BYTE PTR [rbp-0x56],0x0
   1489a:	48 8b 7d b8          	mov    rdi,QWORD PTR [rbp-0x48]
   1489e:	48 8b 75 b0          	mov    rsi,QWORD PTR [rbp-0x50]
   148a2:	8a 45 aa             	mov    al,BYTE PTR [rbp-0x56]
   148a5:	88 45 a6             	mov    BYTE PTR [rbp-0x5a],al
   148a8:	66 8b 45 a8          	mov    ax,WORD PTR [rbp-0x58]
   148ac:	66 89 45 a4          	mov    WORD PTR [rbp-0x5c],ax
   148b0:	0f b6 45 a6          	movzx  eax,BYTE PTR [rbp-0x5a]
   148b4:	c1 e0 10             	shl    eax,0x10
   148b7:	0f b7 55 a4          	movzx  edx,WORD PTR [rbp-0x5c]
   148bb:	09 c2                	or     edx,eax
   148bd:	e8 1e fc ff ff       	call   144e0 <_Z11WriteSquare6VectorS_5Color>
   148c2:	c7 45 98 00 00 00 00 	mov    DWORD PTR [rbp-0x68],0x0
   148c9:	8b 05 81 57 11 00    	mov    eax,DWORD PTR [rip+0x115781]        # 12a050 <_ZZ5PrintE1y>
   148cf:	89 45 9c             	mov    DWORD PTR [rbp-0x64],eax
   148d2:	c6 45 90 ff          	mov    BYTE PTR [rbp-0x70],0xff
   148d6:	c6 45 91 ff          	mov    BYTE PTR [rbp-0x6f],0xff
   148da:	c6 45 92 ff          	mov    BYTE PTR [rbp-0x6e],0xff
   148de:	48 8b 75 98          	mov    rsi,QWORD PTR [rbp-0x68]
   148e2:	8a 45 92             	mov    al,BYTE PTR [rbp-0x6e]
   148e5:	88 45 8e             	mov    BYTE PTR [rbp-0x72],al
   148e8:	66 8b 45 90          	mov    ax,WORD PTR [rbp-0x70]
   148ec:	66 89 45 8c          	mov    WORD PTR [rbp-0x74],ax
   148f0:	0f b6 45 8e          	movzx  eax,BYTE PTR [rbp-0x72]
   148f4:	c1 e0 10             	shl    eax,0x10
   148f7:	0f b7 55 8c          	movzx  edx,WORD PTR [rbp-0x74]
   148fb:	09 c2                	or     edx,eax
   148fd:	48 8d 3d 5c 57 11 00 	lea    rdi,[rip+0x11575c]        # 12a060 <_ZZ5PrintE4line>
   14904:	e8 17 fd ff ff       	call   14620 <_Z9PrintLinePKc6Vector5Color>
   14909:	48 8d 3d 50 57 11 00 	lea    rdi,[rip+0x115750]        # 12a060 <_ZZ5PrintE4line>
   14910:	e8 bb 08 00 00       	call   151d0 <strlen>
   14915:	48 89 c1             	mov    rcx,rax
   14918:	48 83 e9 01          	sub    rcx,0x1
   1491c:	48 8d 05 3d 57 11 00 	lea    rax,[rip+0x11573d]        # 12a060 <_ZZ5PrintE4line>
   14923:	0f be 04 08          	movsx  eax,BYTE PTR [rax+rcx*1]
   14927:	83 f8 0a             	cmp    eax,0xa
   1492a:	0f 85 13 00 00 00    	jne    14943 <Print+0x183>
   14930:	48 8d 3d 29 57 11 00 	lea    rdi,[rip+0x115729]        # 12a060 <_ZZ5PrintE4line>
   14937:	e8 04 fe ff ff       	call   14740 <_Z12RegisterLinePKc>
   1493c:	c6 05 1d 57 11 00 00 	mov    BYTE PTR [rip+0x11571d],0x0        # 12a060 <_ZZ5PrintE4line>
   14943:	c7 45 fc 00 00 00 00 	mov    DWORD PTR [rbp-0x4],0x0
   1494a:	e9 67 02 00 00       	jmp    14bb6 <Print+0x3f6>
   1494f:	c7 05 f7 56 11 00 00 	mov    DWORD PTR [rip+0x1156f7],0x0        # 12a050 <_ZZ5PrintE1y>
   14956:	00 00 00 
   14959:	8b 05 c1 08 11 00    	mov    eax,DWORD PTR [rip+0x1108c1]        # 125220 <line_queue_head>
   1495f:	89 45 88             	mov    DWORD PTR [rbp-0x78],eax
   14962:	8b 45 88             	mov    eax,DWORD PTR [rbp-0x78]
   14965:	3b 05 b9 08 11 00    	cmp    eax,DWORD PTR [rip+0x1108b9]        # 125224 <line_queue_end>
   1496b:	0f 84 15 01 00 00    	je     14a86 <Print+0x2c6>
   14971:	c7 45 80 00 00 00 00 	mov    DWORD PTR [rbp-0x80],0x0
   14978:	8b 05 d2 56 11 00    	mov    eax,DWORD PTR [rip+0x1156d2]        # 12a050 <_ZZ5PrintE1y>
   1497e:	89 45 84             	mov    DWORD PTR [rbp-0x7c],eax
   14981:	c7 85 78 ff ff ff 68 	mov    DWORD PTR [rbp-0x88],0x168
   14988:	01 00 00 
   1498b:	8b 05 bf 56 11 00    	mov    eax,DWORD PTR [rip+0x1156bf]        # 12a050 <_ZZ5PrintE1y>
   14991:	83 c0 11             	add    eax,0x11
   14994:	89 85 7c ff ff ff    	mov    DWORD PTR [rbp-0x84],eax
   1499a:	c6 85 70 ff ff ff 00 	mov    BYTE PTR [rbp-0x90],0x0
   149a1:	c6 85 71 ff ff ff 00 	mov    BYTE PTR [rbp-0x8f],0x0
   149a8:	c6 85 72 ff ff ff 00 	mov    BYTE PTR [rbp-0x8e],0x0
   149af:	48 8b 7d 80          	mov    rdi,QWORD PTR [rbp-0x80]
   149b3:	48 8b b5 78 ff ff ff 	mov    rsi,QWORD PTR [rbp-0x88]
   149ba:	8a 85 72 ff ff ff    	mov    al,BYTE PTR [rbp-0x8e]
   149c0:	88 85 6e ff ff ff    	mov    BYTE PTR [rbp-0x92],al
   149c6:	66 8b 85 70 ff ff ff 	mov    ax,WORD PTR [rbp-0x90]
   149cd:	66 89 85 6c ff ff ff 	mov    WORD PTR [rbp-0x94],ax
   149d4:	0f b6 85 6e ff ff ff 	movzx  eax,BYTE PTR [rbp-0x92]
   149db:	c1 e0 10             	shl    eax,0x10
   149de:	0f b7 95 6c ff ff ff 	movzx  edx,WORD PTR [rbp-0x94]
   149e5:	09 c2                	or     edx,eax
   149e7:	e8 f4 fa ff ff       	call   144e0 <_Z11WriteSquare6VectorS_5Color>
   149ec:	48 63 45 88          	movsxd rax,DWORD PTR [rbp-0x78]
   149f0:	48 6b c0 64          	imul   rax,rax,0x64
   149f4:	48 8d 3d 35 08 11 00 	lea    rdi,[rip+0x110835]        # 125230 <line_queue>
   149fb:	48 01 c7             	add    rdi,rax
   149fe:	c7 85 60 ff ff ff 00 	mov    DWORD PTR [rbp-0xa0],0x0
   14a05:	00 00 00 
   14a08:	8b 05 42 56 11 00    	mov    eax,DWORD PTR [rip+0x115642]        # 12a050 <_ZZ5PrintE1y>
   14a0e:	89 85 64 ff ff ff    	mov    DWORD PTR [rbp-0x9c],eax
   14a14:	c6 85 58 ff ff ff ff 	mov    BYTE PTR [rbp-0xa8],0xff
   14a1b:	c6 85 59 ff ff ff ff 	mov    BYTE PTR [rbp-0xa7],0xff
   14a22:	c6 85 5a ff ff ff ff 	mov    BYTE PTR [rbp-0xa6],0xff
   14a29:	48 8b b5 60 ff ff ff 	mov    rsi,QWORD PTR [rbp-0xa0]
   14a30:	8a 85 5a ff ff ff    	mov    al,BYTE PTR [rbp-0xa6]
   14a36:	88 85 56 ff ff ff    	mov    BYTE PTR [rbp-0xaa],al
   14a3c:	66 8b 85 58 ff ff ff 	mov    ax,WORD PTR [rbp-0xa8]
   14a43:	66 89 85 54 ff ff ff 	mov    WORD PTR [rbp-0xac],ax
   14a4a:	0f b6 85 56 ff ff ff 	movzx  eax,BYTE PTR [rbp-0xaa]
   14a51:	c1 e0 10             	shl    eax,0x10
   14a54:	0f b7 95 54 ff ff ff 	movzx  edx,WORD PTR [rbp-0xac]
   14a5b:	09 c2                	or     edx,eax
   14a5d:	e8 be fb ff ff       	call   14620 <_Z9PrintLinePKc6Vector5Color>
   14a62:	8b 05 e8 55 11 00    	mov    eax,DWORD PTR [rip+0x1155e8]        # 12a050 <_ZZ5PrintE1y>
   14a68:	83 c0 11             	add    eax,0x11
   14a6b:	89 05 df 55 11 00    	mov    DWORD PTR [rip+0x1155df],eax        # 12a050 <_ZZ5PrintE1y>
   14a71:	8b 45 88             	mov    eax,DWORD PTR [rbp-0x78]
   14a74:	83 c0 01             	add    eax,0x1
   14a77:	99                   	cdq    
   14a78:	f7 3d aa 07 11 00    	idiv   DWORD PTR [rip+0x1107aa]        # 125228 <max_line>
   14a7e:	89 55 88             	mov    DWORD PTR [rbp-0x78],edx
   14a81:	e9 dc fe ff ff       	jmp    14962 <Print+0x1a2>
   14a86:	c7 85 48 ff ff ff 00 	mov    DWORD PTR [rbp-0xb8],0x0
   14a8d:	00 00 00 
   14a90:	8b 05 ba 55 11 00    	mov    eax,DWORD PTR [rip+0x1155ba]        # 12a050 <_ZZ5PrintE1y>
   14a96:	89 85 4c ff ff ff    	mov    DWORD PTR [rbp-0xb4],eax
   14a9c:	c7 85 40 ff ff ff 68 	mov    DWORD PTR [rbp-0xc0],0x168
   14aa3:	01 00 00 
   14aa6:	8b 05 a4 55 11 00    	mov    eax,DWORD PTR [rip+0x1155a4]        # 12a050 <_ZZ5PrintE1y>
   14aac:	83 c0 11             	add    eax,0x11
   14aaf:	89 85 44 ff ff ff    	mov    DWORD PTR [rbp-0xbc],eax
   14ab5:	c6 85 38 ff ff ff 00 	mov    BYTE PTR [rbp-0xc8],0x0
   14abc:	c6 85 39 ff ff ff 00 	mov    BYTE PTR [rbp-0xc7],0x0
   14ac3:	c6 85 3a ff ff ff 00 	mov    BYTE PTR [rbp-0xc6],0x0
   14aca:	48 8b bd 48 ff ff ff 	mov    rdi,QWORD PTR [rbp-0xb8]
   14ad1:	48 8b b5 40 ff ff ff 	mov    rsi,QWORD PTR [rbp-0xc0]
   14ad8:	8a 85 3a ff ff ff    	mov    al,BYTE PTR [rbp-0xc6]
   14ade:	88 85 36 ff ff ff    	mov    BYTE PTR [rbp-0xca],al
   14ae4:	66 8b 85 38 ff ff ff 	mov    ax,WORD PTR [rbp-0xc8]
   14aeb:	66 89 85 34 ff ff ff 	mov    WORD PTR [rbp-0xcc],ax
   14af2:	0f b6 85 36 ff ff ff 	movzx  eax,BYTE PTR [rbp-0xca]
   14af9:	c1 e0 10             	shl    eax,0x10
   14afc:	0f b7 95 34 ff ff ff 	movzx  edx,WORD PTR [rbp-0xcc]
   14b03:	09 c2                	or     edx,eax
   14b05:	e8 d6 f9 ff ff       	call   144e0 <_Z11WriteSquare6VectorS_5Color>
   14b0a:	c7 85 28 ff ff ff 00 	mov    DWORD PTR [rbp-0xd8],0x0
   14b11:	00 00 00 
   14b14:	8b 05 36 55 11 00    	mov    eax,DWORD PTR [rip+0x115536]        # 12a050 <_ZZ5PrintE1y>
   14b1a:	89 85 2c ff ff ff    	mov    DWORD PTR [rbp-0xd4],eax
   14b20:	c6 85 20 ff ff ff ff 	mov    BYTE PTR [rbp-0xe0],0xff
   14b27:	c6 85 21 ff ff ff ff 	mov    BYTE PTR [rbp-0xdf],0xff
   14b2e:	c6 85 22 ff ff ff ff 	mov    BYTE PTR [rbp-0xde],0xff
   14b35:	48 8b b5 28 ff ff ff 	mov    rsi,QWORD PTR [rbp-0xd8]
   14b3c:	8a 85 22 ff ff ff    	mov    al,BYTE PTR [rbp-0xde]
   14b42:	88 85 1e ff ff ff    	mov    BYTE PTR [rbp-0xe2],al
   14b48:	66 8b 85 20 ff ff ff 	mov    ax,WORD PTR [rbp-0xe0]
   14b4f:	66 89 85 1c ff ff ff 	mov    WORD PTR [rbp-0xe4],ax
   14b56:	0f b6 85 1e ff ff ff 	movzx  eax,BYTE PTR [rbp-0xe2]
   14b5d:	c1 e0 10             	shl    eax,0x10
   14b60:	0f b7 95 1c ff ff ff 	movzx  edx,WORD PTR [rbp-0xe4]
   14b67:	09 c2                	or     edx,eax
   14b69:	48 8d 3d f0 54 11 00 	lea    rdi,[rip+0x1154f0]        # 12a060 <_ZZ5PrintE4line>
   14b70:	e8 ab fa ff ff       	call   14620 <_Z9PrintLinePKc6Vector5Color>
   14b75:	48 8d 3d e4 54 11 00 	lea    rdi,[rip+0x1154e4]        # 12a060 <_ZZ5PrintE4line>
   14b7c:	e8 4f 06 00 00       	call   151d0 <strlen>
   14b81:	48 89 c1             	mov    rcx,rax
   14b84:	48 83 e9 01          	sub    rcx,0x1
   14b88:	48 8d 05 d1 54 11 00 	lea    rax,[rip+0x1154d1]        # 12a060 <_ZZ5PrintE4line>
   14b8f:	0f be 04 08          	movsx  eax,BYTE PTR [rax+rcx*1]
   14b93:	83 f8 0a             	cmp    eax,0xa
   14b96:	0f 85 13 00 00 00    	jne    14baf <Print+0x3ef>
   14b9c:	48 8d 3d bd 54 11 00 	lea    rdi,[rip+0x1154bd]        # 12a060 <_ZZ5PrintE4line>
   14ba3:	e8 98 fb ff ff       	call   14740 <_Z12RegisterLinePKc>
   14ba8:	c6 05 b1 54 11 00 00 	mov    BYTE PTR [rip+0x1154b1],0x0        # 12a060 <_ZZ5PrintE4line>
   14baf:	c7 45 fc 00 00 00 00 	mov    DWORD PTR [rbp-0x4],0x0
   14bb6:	8b 45 fc             	mov    eax,DWORD PTR [rbp-0x4]
   14bb9:	48 81 c4 f0 00 00 00 	add    rsp,0xf0
   14bc0:	5d                   	pop    rbp
   14bc1:	c3                   	ret    
   14bc2:	66 2e 0f 1f 84 00 00 	cs nop WORD PTR [rax+rax*1+0x0]
   14bc9:	00 00 00 
   14bcc:	0f 1f 40 00          	nop    DWORD PTR [rax+0x0]

0000000000014bd0 <Printf>:
   14bd0:	55                   	push   rbp
   14bd1:	48 89 e5             	mov    rbp,rsp
   14bd4:	48 81 ec e0 00 00 00 	sub    rsp,0xe0
   14bdb:	84 c0                	test   al,al
   14bdd:	0f 84 26 00 00 00    	je     14c09 <Printf+0x39>
   14be3:	0f 29 85 60 ff ff ff 	movaps XMMWORD PTR [rbp-0xa0],xmm0
   14bea:	0f 29 8d 70 ff ff ff 	movaps XMMWORD PTR [rbp-0x90],xmm1
   14bf1:	0f 29 55 80          	movaps XMMWORD PTR [rbp-0x80],xmm2
   14bf5:	0f 29 5d 90          	movaps XMMWORD PTR [rbp-0x70],xmm3
   14bf9:	0f 29 65 a0          	movaps XMMWORD PTR [rbp-0x60],xmm4
   14bfd:	0f 29 6d b0          	movaps XMMWORD PTR [rbp-0x50],xmm5
   14c01:	0f 29 75 c0          	movaps XMMWORD PTR [rbp-0x40],xmm6
   14c05:	0f 29 7d d0          	movaps XMMWORD PTR [rbp-0x30],xmm7
   14c09:	4c 89 8d 58 ff ff ff 	mov    QWORD PTR [rbp-0xa8],r9
   14c10:	4c 89 85 50 ff ff ff 	mov    QWORD PTR [rbp-0xb0],r8
   14c17:	48 89 8d 48 ff ff ff 	mov    QWORD PTR [rbp-0xb8],rcx
   14c1e:	48 89 95 40 ff ff ff 	mov    QWORD PTR [rbp-0xc0],rdx
   14c25:	48 89 b5 38 ff ff ff 	mov    QWORD PTR [rbp-0xc8],rsi
   14c2c:	48 89 7d f8          	mov    QWORD PTR [rbp-0x8],rdi
   14c30:	48 8d 85 30 ff ff ff 	lea    rax,[rbp-0xd0]
   14c37:	48 89 45 f0          	mov    QWORD PTR [rbp-0x10],rax
   14c3b:	48 8d 45 10          	lea    rax,[rbp+0x10]
   14c3f:	48 89 45 e8          	mov    QWORD PTR [rbp-0x18],rax
   14c43:	c7 45 e4 30 00 00 00 	mov    DWORD PTR [rbp-0x1c],0x30
   14c4a:	c7 45 e0 08 00 00 00 	mov    DWORD PTR [rbp-0x20],0x8
   14c51:	48 8b 75 f8          	mov    rsi,QWORD PTR [rbp-0x8]
   14c55:	48 8d 3d f4 57 11 00 	lea    rdi,[rip+0x1157f4]        # 12a450 <_ZZ6PrintfE14str_for_Printf>
   14c5c:	48 89 bd 28 ff ff ff 	mov    QWORD PTR [rbp-0xd8],rdi
   14c63:	48 8d 55 e0          	lea    rdx,[rbp-0x20]
   14c67:	e8 e4 05 00 00       	call   15250 <vsprintf>
   14c6c:	48 8b bd 28 ff ff ff 	mov    rdi,QWORD PTR [rbp-0xd8]
   14c73:	e8 48 fb ff ff       	call   147c0 <Print>
   14c78:	31 c0                	xor    eax,eax
   14c7a:	48 81 c4 e0 00 00 00 	add    rsp,0xe0
   14c81:	5d                   	pop    rbp
   14c82:	c3                   	ret    
   14c83:	66 2e 0f 1f 84 00 00 	cs nop WORD PTR [rax+rax*1+0x0]
   14c8a:	00 00 00 
   14c8d:	0f 1f 00             	nop    DWORD PTR [rax]

0000000000014c90 <_Z6dPrintPci>:
   14c90:	55                   	push   rbp
   14c91:	48 89 e5             	mov    rbp,rsp
   14c94:	48 83 ec 30          	sub    rsp,0x30
   14c98:	48 89 7d f8          	mov    QWORD PTR [rbp-0x8],rdi
   14c9c:	89 75 f4             	mov    DWORD PTR [rbp-0xc],esi
   14c9f:	48 8b 7d f8          	mov    rdi,QWORD PTR [rbp-0x8]
   14ca3:	e8 28 05 00 00       	call   151d0 <strlen>
   14ca8:	48 89 c1             	mov    rcx,rax
   14cab:	48 89 c8             	mov    rax,rcx
   14cae:	48 83 c0 32          	add    rax,0x32
   14cb2:	48 89 e2             	mov    rdx,rsp
   14cb5:	48 89 55 e8          	mov    QWORD PTR [rbp-0x18],rdx
   14cb9:	48 83 c1 41          	add    rcx,0x41
   14cbd:	48 83 e1 f0          	and    rcx,0xfffffffffffffff0
   14cc1:	48 89 e7             	mov    rdi,rsp
   14cc4:	48 29 cf             	sub    rdi,rcx
   14cc7:	48 89 7d d8          	mov    QWORD PTR [rbp-0x28],rdi
   14ccb:	48 89 fc             	mov    rsp,rdi
   14cce:	48 89 45 e0          	mov    QWORD PTR [rbp-0x20],rax
   14cd2:	48 8b 55 f8          	mov    rdx,QWORD PTR [rbp-0x8]
   14cd6:	8b 4d f4             	mov    ecx,DWORD PTR [rbp-0xc]
   14cd9:	48 8d 35 f2 b6 ff ff 	lea    rsi,[rip+0xffffffffffffb6f2]        # 103d2 <zeroes.0-0x26e>
   14ce0:	b0 00                	mov    al,0x0
   14ce2:	e8 a9 ba 00 00       	call   20790 <sprintf>
   14ce7:	48 8b 7d d8          	mov    rdi,QWORD PTR [rbp-0x28]
   14ceb:	e8 d0 fa ff ff       	call   147c0 <Print>
   14cf0:	48 8b 45 e8          	mov    rax,QWORD PTR [rbp-0x18]
   14cf4:	48 89 c4             	mov    rsp,rax
   14cf7:	48 89 ec             	mov    rsp,rbp
   14cfa:	5d                   	pop    rbp
   14cfb:	c3                   	ret    
   14cfc:	0f 1f 40 00          	nop    DWORD PTR [rax+0x0]

0000000000014d00 <_Z7udPrintPcj>:
   14d00:	55                   	push   rbp
   14d01:	48 89 e5             	mov    rbp,rsp
   14d04:	48 83 ec 30          	sub    rsp,0x30
   14d08:	48 89 7d f8          	mov    QWORD PTR [rbp-0x8],rdi
   14d0c:	89 75 f4             	mov    DWORD PTR [rbp-0xc],esi
   14d0f:	48 8b 7d f8          	mov    rdi,QWORD PTR [rbp-0x8]
   14d13:	e8 b8 04 00 00       	call   151d0 <strlen>
   14d18:	48 89 c1             	mov    rcx,rax
   14d1b:	48 89 c8             	mov    rax,rcx
   14d1e:	48 83 c0 32          	add    rax,0x32
   14d22:	48 89 e2             	mov    rdx,rsp
   14d25:	48 89 55 e8          	mov    QWORD PTR [rbp-0x18],rdx
   14d29:	48 83 c1 41          	add    rcx,0x41
   14d2d:	48 83 e1 f0          	and    rcx,0xfffffffffffffff0
   14d31:	48 89 e7             	mov    rdi,rsp
   14d34:	48 29 cf             	sub    rdi,rcx
   14d37:	48 89 7d d8          	mov    QWORD PTR [rbp-0x28],rdi
   14d3b:	48 89 fc             	mov    rsp,rdi
   14d3e:	48 89 45 e0          	mov    QWORD PTR [rbp-0x20],rax
   14d42:	48 8b 55 f8          	mov    rdx,QWORD PTR [rbp-0x8]
   14d46:	8b 4d f4             	mov    ecx,DWORD PTR [rbp-0xc]
   14d49:	48 8d 35 82 b6 ff ff 	lea    rsi,[rip+0xffffffffffffb682]        # 103d2 <zeroes.0-0x26e>
   14d50:	b0 00                	mov    al,0x0
   14d52:	e8 39 ba 00 00       	call   20790 <sprintf>
   14d57:	48 8b 7d d8          	mov    rdi,QWORD PTR [rbp-0x28]
   14d5b:	e8 60 fa ff ff       	call   147c0 <Print>
   14d60:	48 8b 45 e8          	mov    rax,QWORD PTR [rbp-0x18]
   14d64:	48 89 c4             	mov    rsp,rax
   14d67:	48 89 ec             	mov    rsp,rbp
   14d6a:	5d                   	pop    rbp
   14d6b:	c3                   	ret    
   14d6c:	0f 1f 40 00          	nop    DWORD PTR [rax+0x0]

0000000000014d70 <_Z8uxdPrintPcj>:
   14d70:	55                   	push   rbp
   14d71:	48 89 e5             	mov    rbp,rsp
   14d74:	48 83 ec 30          	sub    rsp,0x30
   14d78:	48 89 7d f8          	mov    QWORD PTR [rbp-0x8],rdi
   14d7c:	89 75 f4             	mov    DWORD PTR [rbp-0xc],esi
   14d7f:	48 8b 7d f8          	mov    rdi,QWORD PTR [rbp-0x8]
   14d83:	e8 48 04 00 00       	call   151d0 <strlen>
   14d88:	48 89 c1             	mov    rcx,rax
   14d8b:	48 89 c8             	mov    rax,rcx
   14d8e:	48 83 c0 32          	add    rax,0x32
   14d92:	48 89 e2             	mov    rdx,rsp
   14d95:	48 89 55 e8          	mov    QWORD PTR [rbp-0x18],rdx
   14d99:	48 83 c1 41          	add    rcx,0x41
   14d9d:	48 83 e1 f0          	and    rcx,0xfffffffffffffff0
   14da1:	48 89 e7             	mov    rdi,rsp
   14da4:	48 29 cf             	sub    rdi,rcx
   14da7:	48 89 7d d8          	mov    QWORD PTR [rbp-0x28],rdi
   14dab:	48 89 fc             	mov    rsp,rdi
   14dae:	48 89 45 e0          	mov    QWORD PTR [rbp-0x20],rax
   14db2:	48 8b 55 f8          	mov    rdx,QWORD PTR [rbp-0x8]
   14db6:	8b 4d f4             	mov    ecx,DWORD PTR [rbp-0xc]
   14db9:	48 8d 35 d8 b3 ff ff 	lea    rsi,[rip+0xffffffffffffb3d8]        # 10198 <zeroes.0-0x4a8>
   14dc0:	b0 00                	mov    al,0x0
   14dc2:	e8 c9 b9 00 00       	call   20790 <sprintf>
   14dc7:	48 8b 7d d8          	mov    rdi,QWORD PTR [rbp-0x28]
   14dcb:	e8 f0 f9 ff ff       	call   147c0 <Print>
   14dd0:	48 8b 45 e8          	mov    rax,QWORD PTR [rbp-0x18]
   14dd4:	48 89 c4             	mov    rsp,rax
   14dd7:	48 89 ec             	mov    rsp,rbp
   14dda:	5d                   	pop    rbp
   14ddb:	c3                   	ret    
   14ddc:	0f 1f 40 00          	nop    DWORD PTR [rax+0x0]

0000000000014de0 <_Z15WriteMandelbroti>:
   14de0:	55                   	push   rbp
   14de1:	48 89 e5             	mov    rbp,rsp
   14de4:	48 83 ec 20          	sub    rsp,0x20
   14de8:	89 7d fc             	mov    DWORD PTR [rbp-0x4],edi
   14deb:	c6 45 fb 00          	mov    BYTE PTR [rbp-0x5],0x0
   14def:	c7 45 f4 00 00 00 00 	mov    DWORD PTR [rbp-0xc],0x0
   14df6:	8b 45 f4             	mov    eax,DWORD PTR [rbp-0xc]
   14df9:	48 8b 0d 10 04 11 00 	mov    rcx,QWORD PTR [rip+0x110410]        # 125210 <vinfo>
   14e00:	3b 41 14             	cmp    eax,DWORD PTR [rcx+0x14]
   14e03:	0f 83 8f 00 00 00    	jae    14e98 <_Z15WriteMandelbroti+0xb8>
   14e09:	c7 45 f0 00 00 00 00 	mov    DWORD PTR [rbp-0x10],0x0
   14e10:	8b 45 f0             	mov    eax,DWORD PTR [rbp-0x10]
   14e13:	48 8b 0d f6 03 11 00 	mov    rcx,QWORD PTR [rip+0x1103f6]        # 125210 <vinfo>
   14e1a:	3b 41 10             	cmp    eax,DWORD PTR [rcx+0x10]
   14e1d:	0f 83 62 00 00 00    	jae    14e85 <_Z15WriteMandelbroti+0xa5>
   14e23:	8b 7d f0             	mov    edi,DWORD PTR [rbp-0x10]
   14e26:	8b 75 f4             	mov    esi,DWORD PTR [rbp-0xc]
   14e29:	8b 55 fc             	mov    edx,DWORD PTR [rbp-0x4]
   14e2c:	e8 ef 00 00 00       	call   14f20 <_Z14CalcMandelbrotiii>
   14e31:	88 45 fb             	mov    BYTE PTR [rbp-0x5],al
   14e34:	8a 45 fb             	mov    al,BYTE PTR [rbp-0x5]
   14e37:	c0 e0 02             	shl    al,0x2
   14e3a:	88 45 e8             	mov    BYTE PTR [rbp-0x18],al
   14e3d:	c6 45 e9 00          	mov    BYTE PTR [rbp-0x17],0x0
   14e41:	c6 45 ea 00          	mov    BYTE PTR [rbp-0x16],0x0
   14e45:	48 8b 05 c4 03 11 00 	mov    rax,QWORD PTR [rip+0x1103c4]        # 125210 <vinfo>
   14e4c:	8b 70 10             	mov    esi,DWORD PTR [rax+0x10]
   14e4f:	8b 45 f0             	mov    eax,DWORD PTR [rbp-0x10]
   14e52:	29 c6                	sub    esi,eax
   14e54:	8b 55 f4             	mov    edx,DWORD PTR [rbp-0xc]
   14e57:	8a 45 ea             	mov    al,BYTE PTR [rbp-0x16]
   14e5a:	88 45 e6             	mov    BYTE PTR [rbp-0x1a],al
   14e5d:	66 8b 45 e8          	mov    ax,WORD PTR [rbp-0x18]
   14e61:	66 89 45 e4          	mov    WORD PTR [rbp-0x1c],ax
   14e65:	0f b6 45 e6          	movzx  eax,BYTE PTR [rbp-0x1a]
   14e69:	c1 e0 10             	shl    eax,0x10
   14e6c:	0f b7 7d e4          	movzx  edi,WORD PTR [rbp-0x1c]
   14e70:	09 c7                	or     edi,eax
   14e72:	e8 79 f4 ff ff       	call   142f0 <_Z10WritePixel5Colorii>
   14e77:	8b 45 f0             	mov    eax,DWORD PTR [rbp-0x10]
   14e7a:	83 c0 01             	add    eax,0x1
   14e7d:	89 45 f0             	mov    DWORD PTR [rbp-0x10],eax
   14e80:	e9 8b ff ff ff       	jmp    14e10 <_Z15WriteMandelbroti+0x30>
   14e85:	e9 00 00 00 00       	jmp    14e8a <_Z15WriteMandelbroti+0xaa>
   14e8a:	8b 45 f4             	mov    eax,DWORD PTR [rbp-0xc]
   14e8d:	83 c0 01             	add    eax,0x1
   14e90:	89 45 f4             	mov    DWORD PTR [rbp-0xc],eax
   14e93:	e9 5e ff ff ff       	jmp    14df6 <_Z15WriteMandelbroti+0x16>
   14e98:	48 83 c4 20          	add    rsp,0x20
   14e9c:	5d                   	pop    rbp
   14e9d:	c3                   	ret    
   14e9e:	66 90                	xchg   ax,ax

0000000000014ea0 <_Z5clearv>:
   14ea0:	55                   	push   rbp
   14ea1:	48 89 e5             	mov    rbp,rsp
   14ea4:	48 83 ec 20          	sub    rsp,0x20
   14ea8:	c7 45 f8 00 00 00 00 	mov    DWORD PTR [rbp-0x8],0x0
   14eaf:	c7 45 fc 00 00 00 00 	mov    DWORD PTR [rbp-0x4],0x0
   14eb6:	48 8b 05 53 03 11 00 	mov    rax,QWORD PTR [rip+0x110353]        # 125210 <vinfo>
   14ebd:	8b 40 10             	mov    eax,DWORD PTR [rax+0x10]
   14ec0:	89 45 f0             	mov    DWORD PTR [rbp-0x10],eax
   14ec3:	48 8b 05 46 03 11 00 	mov    rax,QWORD PTR [rip+0x110346]        # 125210 <vinfo>
   14eca:	8b 40 14             	mov    eax,DWORD PTR [rax+0x14]
   14ecd:	89 45 f4             	mov    DWORD PTR [rbp-0xc],eax
   14ed0:	c6 45 e8 00          	mov    BYTE PTR [rbp-0x18],0x0
   14ed4:	c6 45 e9 00          	mov    BYTE PTR [rbp-0x17],0x0
   14ed8:	c6 45 ea 00          	mov    BYTE PTR [rbp-0x16],0x0
   14edc:	48 8b 7d f8          	mov    rdi,QWORD PTR [rbp-0x8]
   14ee0:	48 8b 75 f0          	mov    rsi,QWORD PTR [rbp-0x10]
   14ee4:	8a 45 ea             	mov    al,BYTE PTR [rbp-0x16]
   14ee7:	88 45 e6             	mov    BYTE PTR [rbp-0x1a],al
   14eea:	66 8b 45 e8          	mov    ax,WORD PTR [rbp-0x18]
   14eee:	66 89 45 e4          	mov    WORD PTR [rbp-0x1c],ax
   14ef2:	0f b6 45 e6          	movzx  eax,BYTE PTR [rbp-0x1a]
   14ef6:	c1 e0 10             	shl    eax,0x10
   14ef9:	0f b7 55 e4          	movzx  edx,WORD PTR [rbp-0x1c]
   14efd:	09 c2                	or     edx,eax
   14eff:	e8 dc f5 ff ff       	call   144e0 <_Z11WriteSquare6VectorS_5Color>
   14f04:	c7 05 12 03 11 00 00 	mov    DWORD PTR [rip+0x110312],0x0        # 125220 <line_queue_head>
   14f0b:	00 00 00 
   14f0e:	c7 05 0c 03 11 00 00 	mov    DWORD PTR [rip+0x11030c],0x0        # 125224 <line_queue_end>
   14f15:	00 00 00 
   14f18:	48 83 c4 20          	add    rsp,0x20
   14f1c:	5d                   	pop    rbp
   14f1d:	c3                   	ret    
   14f1e:	cc                   	int3   
   14f1f:	cc                   	int3   

0000000000014f20 <_Z14CalcMandelbrotiii>:
   14f20:	55                   	push   rbp
   14f21:	48 89 e5             	mov    rbp,rsp
   14f24:	48 83 ec 50          	sub    rsp,0x50
   14f28:	89 7d f8             	mov    DWORD PTR [rbp-0x8],edi
   14f2b:	89 75 f4             	mov    DWORD PTR [rbp-0xc],esi
   14f2e:	89 55 f0             	mov    DWORD PTR [rbp-0x10],edx
   14f31:	48 8b 05 d8 02 11 00 	mov    rax,QWORD PTR [rip+0x1102d8]        # 125210 <vinfo>
   14f38:	8b 40 10             	mov    eax,DWORD PTR [rax+0x10]
   14f3b:	89 45 ec             	mov    DWORD PTR [rbp-0x14],eax
   14f3e:	48 8b 05 cb 02 11 00 	mov    rax,QWORD PTR [rip+0x1102cb]        # 125210 <vinfo>
   14f45:	8b 40 14             	mov    eax,DWORD PTR [rax+0x14]
   14f48:	89 45 e8             	mov    DWORD PTR [rbp-0x18],eax
   14f4b:	8b 45 ec             	mov    eax,DWORD PTR [rbp-0x14]
   14f4e:	3b 45 e8             	cmp    eax,DWORD PTR [rbp-0x18]
   14f51:	0f 8e 0b 00 00 00    	jle    14f62 <_Z14CalcMandelbrotiii+0x42>
   14f57:	8b 45 e8             	mov    eax,DWORD PTR [rbp-0x18]
   14f5a:	89 45 b4             	mov    DWORD PTR [rbp-0x4c],eax
   14f5d:	e9 06 00 00 00       	jmp    14f68 <_Z14CalcMandelbrotiii+0x48>
   14f62:	8b 45 ec             	mov    eax,DWORD PTR [rbp-0x14]
   14f65:	89 45 b4             	mov    DWORD PTR [rbp-0x4c],eax
   14f68:	8b 45 b4             	mov    eax,DWORD PTR [rbp-0x4c]
   14f6b:	89 45 e4             	mov    DWORD PTR [rbp-0x1c],eax
   14f6e:	0f 57 c0             	xorps  xmm0,xmm0
   14f71:	f2 0f 11 45 d0       	movsd  QWORD PTR [rbp-0x30],xmm0
   14f76:	0f 57 c0             	xorps  xmm0,xmm0
   14f79:	f2 0f 11 45 d8       	movsd  QWORD PTR [rbp-0x28],xmm0
   14f7e:	f2 0f 2a 4d f8       	cvtsi2sd xmm1,DWORD PTR [rbp-0x8]
   14f83:	f2 0f 2a 45 ec       	cvtsi2sd xmm0,DWORD PTR [rbp-0x14]
   14f88:	f2 0f 10 15 d8 b4 ff 	movsd  xmm2,QWORD PTR [rip+0xffffffffffffb4d8]        # 10468 <zeroes.0-0x1d8>
   14f8f:	ff 
   14f90:	f2 0f 5e c2          	divsd  xmm0,xmm2
   14f94:	f2 0f 5c c8          	subsd  xmm1,xmm0
   14f98:	f2 0f 2a 45 e4       	cvtsi2sd xmm0,DWORD PTR [rbp-0x1c]
   14f9d:	f2 0f 5e c8          	divsd  xmm1,xmm0
   14fa1:	f2 0f 10 05 d7 b4 ff 	movsd  xmm0,QWORD PTR [rip+0xffffffffffffb4d7]        # 10480 <zeroes.0-0x1c0>
   14fa8:	ff 
   14fa9:	f2 0f 5e c8          	divsd  xmm1,xmm0
   14fad:	f2 0f 10 05 ab b4 ff 	movsd  xmm0,QWORD PTR [rip+0xffffffffffffb4ab]        # 10460 <zeroes.0-0x1e0>
   14fb4:	ff 
   14fb5:	f2 0f 58 c1          	addsd  xmm0,xmm1
   14fb9:	f2 0f 11 45 c0       	movsd  QWORD PTR [rbp-0x40],xmm0
   14fbe:	f2 0f 2a 4d f4       	cvtsi2sd xmm1,DWORD PTR [rbp-0xc]
   14fc3:	f2 0f 2a 45 e8       	cvtsi2sd xmm0,DWORD PTR [rbp-0x18]
   14fc8:	f2 0f 10 15 98 b4 ff 	movsd  xmm2,QWORD PTR [rip+0xffffffffffffb498]        # 10468 <zeroes.0-0x1d8>
   14fcf:	ff 
   14fd0:	f2 0f 5e c2          	divsd  xmm0,xmm2
   14fd4:	f2 0f 5c c8          	subsd  xmm1,xmm0
   14fd8:	f2 0f 2a 45 e4       	cvtsi2sd xmm0,DWORD PTR [rbp-0x1c]
   14fdd:	f2 0f 5e c8          	divsd  xmm1,xmm0
   14fe1:	f2 0f 10 05 97 b4 ff 	movsd  xmm0,QWORD PTR [rip+0xffffffffffffb497]        # 10480 <zeroes.0-0x1c0>
   14fe8:	ff 
   14fe9:	f2 0f 5e c8          	divsd  xmm1,xmm0
   14fed:	0f 57 c0             	xorps  xmm0,xmm0
   14ff0:	f2 0f 58 c1          	addsd  xmm0,xmm1
   14ff4:	f2 0f 11 45 b8       	movsd  QWORD PTR [rbp-0x48],xmm0
   14ff9:	c7 45 e0 00 00 00 00 	mov    DWORD PTR [rbp-0x20],0x0
   15000:	8b 45 e0             	mov    eax,DWORD PTR [rbp-0x20]
   15003:	3b 45 f0             	cmp    eax,DWORD PTR [rbp-0x10]
   15006:	0f 8f b2 00 00 00    	jg     150be <_Z14CalcMandelbrotiii+0x19e>
   1500c:	f2 0f 10 45 d8       	movsd  xmm0,QWORD PTR [rbp-0x28]
   15011:	f2 0f 10 55 d8       	movsd  xmm2,QWORD PTR [rbp-0x28]
   15016:	f2 0f 10 4d d0       	movsd  xmm1,QWORD PTR [rbp-0x30]
   1501b:	f2 0f 59 4d d0       	mulsd  xmm1,QWORD PTR [rbp-0x30]
   15020:	f2 0f 59 c2          	mulsd  xmm0,xmm2
   15024:	f2 0f 58 c1          	addsd  xmm0,xmm1
   15028:	f2 0f 10 0d 40 b4 ff 	movsd  xmm1,QWORD PTR [rip+0xffffffffffffb440]        # 10470 <zeroes.0-0x1d0>
   1502f:	ff 
   15030:	66 0f 2e c1          	ucomisd xmm0,xmm1
   15034:	0f 86 0b 00 00 00    	jbe    15045 <_Z14CalcMandelbrotiii+0x125>
   1503a:	8b 45 e0             	mov    eax,DWORD PTR [rbp-0x20]
   1503d:	89 45 fc             	mov    DWORD PTR [rbp-0x4],eax
   15040:	e9 7f 00 00 00       	jmp    150c4 <_Z14CalcMandelbrotiii+0x1a4>
   15045:	f2 0f 10 45 d8       	movsd  xmm0,QWORD PTR [rbp-0x28]
   1504a:	f2 0f 10 55 d8       	movsd  xmm2,QWORD PTR [rbp-0x28]
   1504f:	f2 0f 10 4d d0       	movsd  xmm1,QWORD PTR [rbp-0x30]
   15054:	f2 0f 59 4d d0       	mulsd  xmm1,QWORD PTR [rbp-0x30]
   15059:	66 48 0f 7e c8       	movq   rax,xmm1
   1505e:	48 b9 00 00 00 00 00 	movabs rcx,0x8000000000000000
   15065:	00 00 80 
   15068:	48 31 c8             	xor    rax,rcx
   1506b:	66 48 0f 6e c8       	movq   xmm1,rax
   15070:	f2 0f 59 c2          	mulsd  xmm0,xmm2
   15074:	f2 0f 58 c1          	addsd  xmm0,xmm1
   15078:	f2 0f 58 45 c0       	addsd  xmm0,QWORD PTR [rbp-0x40]
   1507d:	f2 0f 11 45 c8       	movsd  QWORD PTR [rbp-0x38],xmm0
   15082:	f2 0f 10 05 de b3 ff 	movsd  xmm0,QWORD PTR [rip+0xffffffffffffb3de]        # 10468 <zeroes.0-0x1d8>
   15089:	ff 
   1508a:	f2 0f 59 45 d8       	mulsd  xmm0,QWORD PTR [rbp-0x28]
   1508f:	f2 0f 10 55 d0       	movsd  xmm2,QWORD PTR [rbp-0x30]
   15094:	f2 0f 10 4d b8       	movsd  xmm1,QWORD PTR [rbp-0x48]
   15099:	f2 0f 59 c2          	mulsd  xmm0,xmm2
   1509d:	f2 0f 58 c1          	addsd  xmm0,xmm1
   150a1:	f2 0f 11 45 d0       	movsd  QWORD PTR [rbp-0x30],xmm0
   150a6:	f2 0f 10 45 c8       	movsd  xmm0,QWORD PTR [rbp-0x38]
   150ab:	f2 0f 11 45 d8       	movsd  QWORD PTR [rbp-0x28],xmm0
   150b0:	8b 45 e0             	mov    eax,DWORD PTR [rbp-0x20]
   150b3:	83 c0 01             	add    eax,0x1
   150b6:	89 45 e0             	mov    DWORD PTR [rbp-0x20],eax
   150b9:	e9 42 ff ff ff       	jmp    15000 <_Z14CalcMandelbrotiii+0xe0>
   150be:	8b 45 e0             	mov    eax,DWORD PTR [rbp-0x20]
   150c1:	89 45 fc             	mov    DWORD PTR [rbp-0x4],eax
   150c4:	8b 45 fc             	mov    eax,DWORD PTR [rbp-0x4]
   150c7:	48 83 c4 50          	add    rsp,0x50
   150cb:	5d                   	pop    rbp
   150cc:	c3                   	ret    
   150cd:	cc                   	int3   
   150ce:	cc                   	int3   
   150cf:	cc                   	int3   

00000000000150d0 <strcpy>:
   150d0:	f3 0f 1e fa          	endbr64 
   150d4:	48 89 f8             	mov    rax,rdi
   150d7:	49 89 f8             	mov    r8,rdi
   150da:	48 09 f0             	or     rax,rsi
   150dd:	a8 07                	test   al,0x7
   150df:	75 6f                	jne    15150 <strcpy+0x80>
   150e1:	49 b9 ff fe fe fe fe 	movabs r9,0xfefefefefefefeff
   150e8:	fe fe fe 
   150eb:	48 8b 06             	mov    rax,QWORD PTR [rsi]
   150ee:	49 ba 80 80 80 80 80 	movabs r10,0x8080808080808080
   150f5:	80 80 80 
   150f8:	48 89 c1             	mov    rcx,rax
   150fb:	4a 8d 14 08          	lea    rdx,[rax+r9*1]
   150ff:	48 f7 d1             	not    rcx
   15102:	48 21 ca             	and    rdx,rcx
   15105:	4c 85 d2             	test   rdx,r10
   15108:	75 46                	jne    15150 <strcpy+0x80>
   1510a:	48 89 f9             	mov    rcx,rdi
   1510d:	0f 1f 00             	nop    DWORD PTR [rax]
   15110:	48 83 c6 08          	add    rsi,0x8
   15114:	48 89 01             	mov    QWORD PTR [rcx],rax
   15117:	48 83 c1 08          	add    rcx,0x8
   1511b:	48 8b 06             	mov    rax,QWORD PTR [rsi]
   1511e:	48 89 c7             	mov    rdi,rax
   15121:	4a 8d 14 08          	lea    rdx,[rax+r9*1]
   15125:	48 f7 d7             	not    rdi
   15128:	48 21 fa             	and    rdx,rdi
   1512b:	4c 85 d2             	test   rdx,r10
   1512e:	74 e0                	je     15110 <strcpy+0x40>
   15130:	31 c0                	xor    eax,eax
   15132:	66 0f 1f 44 00 00    	nop    WORD PTR [rax+rax*1+0x0]
   15138:	0f b6 14 06          	movzx  edx,BYTE PTR [rsi+rax*1]
   1513c:	88 14 01             	mov    BYTE PTR [rcx+rax*1],dl
   1513f:	48 83 c0 01          	add    rax,0x1
   15143:	84 d2                	test   dl,dl
   15145:	75 f1                	jne    15138 <strcpy+0x68>
   15147:	4c 89 c0             	mov    rax,r8
   1514a:	c3                   	ret    
   1514b:	0f 1f 44 00 00       	nop    DWORD PTR [rax+rax*1+0x0]
   15150:	4c 89 c1             	mov    rcx,r8
   15153:	eb db                	jmp    15130 <strcpy+0x60>
   15155:	cc                   	int3   
   15156:	cc                   	int3   
   15157:	cc                   	int3   
   15158:	cc                   	int3   
   15159:	cc                   	int3   
   1515a:	cc                   	int3   
   1515b:	cc                   	int3   
   1515c:	cc                   	int3   
   1515d:	cc                   	int3   
   1515e:	cc                   	int3   
   1515f:	cc                   	int3   

0000000000015160 <strcat>:
   15160:	f3 0f 1e fa          	endbr64 
   15164:	41 54                	push   r12
   15166:	49 89 fc             	mov    r12,rdi
   15169:	40 f6 c7 07          	test   dil,0x7
   1516d:	75 4d                	jne    151bc <strcat+0x5c>
   1516f:	49 b8 ff fe fe fe fe 	movabs r8,0xfefefefefefefeff
   15176:	fe fe fe 
   15179:	48 8b 07             	mov    rax,QWORD PTR [rdi]
   1517c:	48 b9 80 80 80 80 80 	movabs rcx,0x8080808080808080
   15183:	80 80 80 
   15186:	4a 8d 14 00          	lea    rdx,[rax+r8*1]
   1518a:	48 f7 d0             	not    rax
   1518d:	48 21 d0             	and    rax,rdx
   15190:	48 85 c8             	test   rax,rcx
   15193:	75 27                	jne    151bc <strcat+0x5c>
   15195:	0f 1f 00             	nop    DWORD PTR [rax]
   15198:	48 8b 47 08          	mov    rax,QWORD PTR [rdi+0x8]
   1519c:	48 83 c7 08          	add    rdi,0x8
   151a0:	4a 8d 14 00          	lea    rdx,[rax+r8*1]
   151a4:	48 f7 d0             	not    rax
   151a7:	48 21 d0             	and    rax,rdx
   151aa:	48 85 c8             	test   rax,rcx
   151ad:	74 e9                	je     15198 <strcat+0x38>
   151af:	eb 0b                	jmp    151bc <strcat+0x5c>
   151b1:	0f 1f 80 00 00 00 00 	nop    DWORD PTR [rax+0x0]
   151b8:	48 83 c7 01          	add    rdi,0x1
   151bc:	80 3f 00             	cmp    BYTE PTR [rdi],0x0
   151bf:	75 f7                	jne    151b8 <strcat+0x58>
   151c1:	e8 0a ff ff ff       	call   150d0 <strcpy>
   151c6:	4c 89 e0             	mov    rax,r12
   151c9:	41 5c                	pop    r12
   151cb:	c3                   	ret    
   151cc:	cc                   	int3   
   151cd:	cc                   	int3   
   151ce:	cc                   	int3   
   151cf:	cc                   	int3   

00000000000151d0 <strlen>:
   151d0:	f3 0f 1e fa          	endbr64 
   151d4:	48 89 f8             	mov    rax,rdi
   151d7:	40 f6 c7 07          	test   dil,0x7
   151db:	75 0b                	jne    151e8 <strlen+0x18>
   151dd:	eb 19                	jmp    151f8 <strlen+0x28>
   151df:	90                   	nop
   151e0:	48 83 c0 01          	add    rax,0x1
   151e4:	a8 07                	test   al,0x7
   151e6:	74 10                	je     151f8 <strlen+0x28>
   151e8:	80 38 00             	cmp    BYTE PTR [rax],0x0
   151eb:	75 f3                	jne    151e0 <strlen+0x10>
   151ed:	48 29 f8             	sub    rax,rdi
   151f0:	c3                   	ret    
   151f1:	0f 1f 80 00 00 00 00 	nop    DWORD PTR [rax+0x0]
   151f8:	49 b8 ff fe fe fe fe 	movabs r8,0xfefefefefefefeff
   151ff:	fe fe fe 
   15202:	48 8b 10             	mov    rdx,QWORD PTR [rax]
   15205:	48 be 80 80 80 80 80 	movabs rsi,0x8080808080808080
   1520c:	80 80 80 
   1520f:	4a 8d 0c 02          	lea    rcx,[rdx+r8*1]
   15213:	48 f7 d2             	not    rdx
   15216:	48 21 ca             	and    rdx,rcx
   15219:	48 85 f2             	test   rdx,rsi
   1521c:	75 26                	jne    15244 <strlen+0x74>
   1521e:	66 90                	xchg   ax,ax
   15220:	48 8b 50 08          	mov    rdx,QWORD PTR [rax+0x8]
   15224:	48 83 c0 08          	add    rax,0x8
   15228:	4a 8d 0c 02          	lea    rcx,[rdx+r8*1]
   1522c:	48 f7 d2             	not    rdx
   1522f:	48 21 ca             	and    rdx,rcx
   15232:	48 85 f2             	test   rdx,rsi
   15235:	74 e9                	je     15220 <strlen+0x50>
   15237:	eb 0b                	jmp    15244 <strlen+0x74>
   15239:	0f 1f 80 00 00 00 00 	nop    DWORD PTR [rax+0x0]
   15240:	48 83 c0 01          	add    rax,0x1
   15244:	80 38 00             	cmp    BYTE PTR [rax],0x0
   15247:	75 f7                	jne    15240 <strlen+0x70>
   15249:	48 29 f8             	sub    rax,rdi
   1524c:	c3                   	ret    
   1524d:	cc                   	int3   
   1524e:	cc                   	int3   
   1524f:	cc                   	int3   

0000000000015250 <vsprintf>:
   15250:	f3 0f 1e fa          	endbr64 
   15254:	48 81 ec c8 00 00 00 	sub    rsp,0xc8
   1525b:	49 89 f0             	mov    r8,rsi
   1525e:	48 89 d1             	mov    rcx,rdx
   15261:	64 48 8b 04 25 28 00 	mov    rax,QWORD PTR fs:0x28
   15268:	00 00 
   1526a:	48 89 84 24 b8 00 00 	mov    QWORD PTR [rsp+0xb8],rax
   15271:	00 
   15272:	31 c0                	xor    eax,eax
   15274:	48 89 3c 24          	mov    QWORD PTR [rsp],rdi
   15278:	4c 89 c2             	mov    rdx,r8
   1527b:	48 89 e6             	mov    rsi,rsp
   1527e:	48 b8 ff ff ff 7f 08 	movabs rax,0xffff02087fffffff
   15285:	02 ff ff 
   15288:	48 89 7c 24 18       	mov    QWORD PTR [rsp+0x18],rdi
   1528d:	48 8b 3d 6c eb 00 00 	mov    rdi,QWORD PTR [rip+0xeb6c]        # 23e00 <_impure_ptr>
   15294:	c7 44 24 20 ff ff ff 	mov    DWORD PTR [rsp+0x20],0x7fffffff
   1529b:	7f 
   1529c:	48 89 44 24 0c       	mov    QWORD PTR [rsp+0xc],rax
   152a1:	e8 0a 1b 00 00       	call   16db0 <_svfprintf_r>
   152a6:	48 8b 14 24          	mov    rdx,QWORD PTR [rsp]
   152aa:	c6 02 00             	mov    BYTE PTR [rdx],0x0
   152ad:	48 8b 94 24 b8 00 00 	mov    rdx,QWORD PTR [rsp+0xb8]
   152b4:	00 
   152b5:	64 48 2b 14 25 28 00 	sub    rdx,QWORD PTR fs:0x28
   152bc:	00 00 
   152be:	75 08                	jne    152c8 <vsprintf+0x78>
   152c0:	48 81 c4 c8 00 00 00 	add    rsp,0xc8
   152c7:	c3                   	ret    
   152c8:	e8 b3 42 00 00       	call   19580 <__stack_chk_fail>
   152cd:	0f 1f 00             	nop    DWORD PTR [rax]

00000000000152d0 <_vsprintf_r>:
   152d0:	f3 0f 1e fa          	endbr64 
   152d4:	48 81 ec c8 00 00 00 	sub    rsp,0xc8
   152db:	64 48 8b 04 25 28 00 	mov    rax,QWORD PTR fs:0x28
   152e2:	00 00 
   152e4:	48 89 84 24 b8 00 00 	mov    QWORD PTR [rsp+0xb8],rax
   152eb:	00 
   152ec:	31 c0                	xor    eax,eax
   152ee:	48 89 34 24          	mov    QWORD PTR [rsp],rsi
   152f2:	48 b8 ff ff ff 7f 08 	movabs rax,0xffff02087fffffff
   152f9:	02 ff ff 
   152fc:	48 89 74 24 18       	mov    QWORD PTR [rsp+0x18],rsi
   15301:	48 89 e6             	mov    rsi,rsp
   15304:	c7 44 24 20 ff ff ff 	mov    DWORD PTR [rsp+0x20],0x7fffffff
   1530b:	7f 
   1530c:	48 89 44 24 0c       	mov    QWORD PTR [rsp+0xc],rax
   15311:	e8 9a 1a 00 00       	call   16db0 <_svfprintf_r>
   15316:	48 8b 14 24          	mov    rdx,QWORD PTR [rsp]
   1531a:	c6 02 00             	mov    BYTE PTR [rdx],0x0
   1531d:	48 8b 94 24 b8 00 00 	mov    rdx,QWORD PTR [rsp+0xb8]
   15324:	00 
   15325:	64 48 2b 14 25 28 00 	sub    rdx,QWORD PTR fs:0x28
   1532c:	00 00 
   1532e:	75 08                	jne    15338 <_vsprintf_r+0x68>
   15330:	48 81 c4 c8 00 00 00 	add    rsp,0xc8
   15337:	c3                   	ret    
   15338:	e8 43 42 00 00       	call   19580 <__stack_chk_fail>
   1533d:	cc                   	int3   
   1533e:	cc                   	int3   
   1533f:	cc                   	int3   

0000000000015340 <__fp_lock>:
   15340:	f3 0f 1e fa          	endbr64 
   15344:	31 c0                	xor    eax,eax
   15346:	c3                   	ret    
   15347:	66 0f 1f 84 00 00 00 	nop    WORD PTR [rax+rax*1+0x0]
   1534e:	00 00 

0000000000015350 <stdio_exit_handler>:
   15350:	f3 0f 1e fa          	endbr64 
   15354:	48 8d 35 55 04 00 00 	lea    rsi,[rip+0x455]        # 157b0 <_fclose_r>
   1535b:	48 8d 15 1e ec 00 00 	lea    rdx,[rip+0xec1e]        # 23f80 <__sglue>
   15362:	48 8d 3d b7 ea 00 00 	lea    rdi,[rip+0xeab7]        # 23e20 <_impure_data>
   15369:	e9 d2 16 00 00       	jmp    16a40 <_fwalk_sglue>
   1536e:	66 90                	xchg   ax,ax

0000000000015370 <cleanup_stdio>:
   15370:	f3 0f 1e fa          	endbr64 
   15374:	55                   	push   rbp
   15375:	48 8b 77 08          	mov    rsi,QWORD PTR [rdi+0x8]
   15379:	48 8d 05 e0 52 11 00 	lea    rax,[rip+0x1152e0]        # 12a660 <__sf>
   15380:	48 89 fd             	mov    rbp,rdi
   15383:	48 39 c6             	cmp    rsi,rax
   15386:	74 05                	je     1538d <cleanup_stdio+0x1d>
   15388:	e8 23 04 00 00       	call   157b0 <_fclose_r>
   1538d:	48 8b 75 10          	mov    rsi,QWORD PTR [rbp+0x10]
   15391:	48 8d 05 78 53 11 00 	lea    rax,[rip+0x115378]        # 12a710 <__sf+0xb0>
   15398:	48 39 c6             	cmp    rsi,rax
   1539b:	74 08                	je     153a5 <cleanup_stdio+0x35>
   1539d:	48 89 ef             	mov    rdi,rbp
   153a0:	e8 0b 04 00 00       	call   157b0 <_fclose_r>
   153a5:	48 8b 75 18          	mov    rsi,QWORD PTR [rbp+0x18]
   153a9:	48 8d 05 10 54 11 00 	lea    rax,[rip+0x115410]        # 12a7c0 <__sf+0x160>
   153b0:	48 39 c6             	cmp    rsi,rax
   153b3:	74 0b                	je     153c0 <cleanup_stdio+0x50>
   153b5:	48 89 ef             	mov    rdi,rbp
   153b8:	5d                   	pop    rbp
   153b9:	e9 f2 03 00 00       	jmp    157b0 <_fclose_r>
   153be:	66 90                	xchg   ax,ax
   153c0:	5d                   	pop    rbp
   153c1:	c3                   	ret    
   153c2:	66 66 2e 0f 1f 84 00 	data16 cs nop WORD PTR [rax+rax*1+0x0]
   153c9:	00 00 00 00 
   153cd:	0f 1f 00             	nop    DWORD PTR [rax]

00000000000153d0 <__fp_unlock>:
   153d0:	f3 0f 1e fa          	endbr64 
   153d4:	31 c0                	xor    eax,eax
   153d6:	c3                   	ret    
   153d7:	66 0f 1f 84 00 00 00 	nop    WORD PTR [rax+rax*1+0x0]
   153de:	00 00 

00000000000153e0 <global_stdio_init.part.0>:
   153e0:	41 55                	push   r13
   153e2:	48 8d 05 67 ff ff ff 	lea    rax,[rip+0xffffffffffffff67]        # 15350 <stdio_exit_handler>
   153e9:	ba 08 00 00 00       	mov    edx,0x8
   153ee:	31 f6                	xor    esi,esi
   153f0:	41 54                	push   r12
   153f2:	48 8d 3d 0b 53 11 00 	lea    rdi,[rip+0x11530b]        # 12a704 <__sf+0xa4>
   153f9:	55                   	push   rbp
   153fa:	53                   	push   rbx
   153fb:	48 83 ec 08          	sub    rsp,0x8
   153ff:	48 89 05 6a 54 11 00 	mov    QWORD PTR [rip+0x11546a],rax        # 12a870 <__stdio_exit_handler>
   15406:	c7 05 fc 52 11 00 00 	mov    DWORD PTR [rip+0x1152fc],0x0        # 12a70c <__sf+0xac>
   1540d:	00 00 00 
   15410:	48 c7 05 45 52 11 00 	mov    QWORD PTR [rip+0x115245],0x0        # 12a660 <__sf>
   15417:	00 00 00 00 
   1541b:	48 c7 05 42 52 11 00 	mov    QWORD PTR [rip+0x115242],0x0        # 12a668 <__sf+0x8>
   15422:	00 00 00 00 
   15426:	c7 05 40 52 11 00 04 	mov    DWORD PTR [rip+0x115240],0x4        # 12a670 <__sf+0x10>
   1542d:	00 00 00 
   15430:	48 c7 05 3d 52 11 00 	mov    QWORD PTR [rip+0x11523d],0x0        # 12a678 <__sf+0x18>
   15437:	00 00 00 00 
   1543b:	c7 05 3b 52 11 00 00 	mov    DWORD PTR [rip+0x11523b],0x0        # 12a680 <__sf+0x20>
   15442:	00 00 00 
   15445:	c7 05 39 52 11 00 00 	mov    DWORD PTR [rip+0x115239],0x0        # 12a688 <__sf+0x28>
   1544c:	00 00 00 
   1544f:	e8 7c 16 00 00       	call   16ad0 <memset>
   15454:	4c 8d 2d 55 17 00 00 	lea    r13,[rip+0x1755]        # 16bb0 <__sread>
   1545b:	31 f6                	xor    esi,esi
   1545d:	4c 8d 25 8c 17 00 00 	lea    r12,[rip+0x178c]        # 16bf0 <__swrite>
   15464:	48 8d 2d e5 17 00 00 	lea    rbp,[rip+0x17e5]        # 16c50 <__sseek>
   1546b:	48 8d 1d 1e 18 00 00 	lea    rbx,[rip+0x181e]        # 16c90 <__sclose>
   15472:	ba 08 00 00 00       	mov    edx,0x8
   15477:	48 8d 05 e2 51 11 00 	lea    rax,[rip+0x1151e2]        # 12a660 <__sf>
   1547e:	48 8d b8 54 01 00 00 	lea    rdi,[rax+0x154]
   15485:	4c 89 2d 0c 52 11 00 	mov    QWORD PTR [rip+0x11520c],r13        # 12a698 <__sf+0x38>
   1548c:	4c 89 25 0d 52 11 00 	mov    QWORD PTR [rip+0x11520d],r12        # 12a6a0 <__sf+0x40>
   15493:	48 89 2d 0e 52 11 00 	mov    QWORD PTR [rip+0x11520e],rbp        # 12a6a8 <__sf+0x48>
   1549a:	48 89 1d 0f 52 11 00 	mov    QWORD PTR [rip+0x11520f],rbx        # 12a6b0 <__sf+0x50>
   154a1:	48 89 05 e8 51 11 00 	mov    QWORD PTR [rip+0x1151e8],rax        # 12a690 <__sf+0x30>
   154a8:	c7 05 0a 53 11 00 00 	mov    DWORD PTR [rip+0x11530a],0x0        # 12a7bc <__sf+0x15c>
   154af:	00 00 00 
   154b2:	48 c7 05 53 52 11 00 	mov    QWORD PTR [rip+0x115253],0x0        # 12a710 <__sf+0xb0>
   154b9:	00 00 00 00 
   154bd:	48 c7 05 50 52 11 00 	mov    QWORD PTR [rip+0x115250],0x0        # 12a718 <__sf+0xb8>
   154c4:	00 00 00 00 
   154c8:	c7 05 4e 52 11 00 09 	mov    DWORD PTR [rip+0x11524e],0x10009        # 12a720 <__sf+0xc0>
   154cf:	00 01 00 
   154d2:	48 c7 05 4b 52 11 00 	mov    QWORD PTR [rip+0x11524b],0x0        # 12a728 <__sf+0xc8>
   154d9:	00 00 00 00 
   154dd:	c7 05 49 52 11 00 00 	mov    DWORD PTR [rip+0x115249],0x0        # 12a730 <__sf+0xd0>
   154e4:	00 00 00 
   154e7:	c7 05 47 52 11 00 00 	mov    DWORD PTR [rip+0x115247],0x0        # 12a738 <__sf+0xd8>
   154ee:	00 00 00 
   154f1:	e8 da 15 00 00       	call   16ad0 <memset>
   154f6:	48 8d 05 13 52 11 00 	lea    rax,[rip+0x115213]        # 12a710 <__sf+0xb0>
   154fd:	31 f6                	xor    esi,esi
   154ff:	ba 08 00 00 00       	mov    edx,0x8
   15504:	48 8d b8 54 01 00 00 	lea    rdi,[rax+0x154]
   1550b:	4c 89 2d 36 52 11 00 	mov    QWORD PTR [rip+0x115236],r13        # 12a748 <__sf+0xe8>
   15512:	4c 89 25 37 52 11 00 	mov    QWORD PTR [rip+0x115237],r12        # 12a750 <__sf+0xf0>
   15519:	48 89 2d 38 52 11 00 	mov    QWORD PTR [rip+0x115238],rbp        # 12a758 <__sf+0xf8>
   15520:	48 89 1d 39 52 11 00 	mov    QWORD PTR [rip+0x115239],rbx        # 12a760 <__sf+0x100>
   15527:	48 89 05 12 52 11 00 	mov    QWORD PTR [rip+0x115212],rax        # 12a740 <__sf+0xe0>
   1552e:	c7 05 34 53 11 00 00 	mov    DWORD PTR [rip+0x115334],0x0        # 12a86c <__sf+0x20c>
   15535:	00 00 00 
   15538:	48 c7 05 7d 52 11 00 	mov    QWORD PTR [rip+0x11527d],0x0        # 12a7c0 <__sf+0x160>
   1553f:	00 00 00 00 
   15543:	48 c7 05 7a 52 11 00 	mov    QWORD PTR [rip+0x11527a],0x0        # 12a7c8 <__sf+0x168>
   1554a:	00 00 00 00 
   1554e:	c7 05 78 52 11 00 12 	mov    DWORD PTR [rip+0x115278],0x20012        # 12a7d0 <__sf+0x170>
   15555:	00 02 00 
   15558:	48 c7 05 75 52 11 00 	mov    QWORD PTR [rip+0x115275],0x0        # 12a7d8 <__sf+0x178>
   1555f:	00 00 00 00 
   15563:	c7 05 73 52 11 00 00 	mov    DWORD PTR [rip+0x115273],0x0        # 12a7e0 <__sf+0x180>
   1556a:	00 00 00 
   1556d:	c7 05 71 52 11 00 00 	mov    DWORD PTR [rip+0x115271],0x0        # 12a7e8 <__sf+0x188>
   15574:	00 00 00 
   15577:	e8 54 15 00 00       	call   16ad0 <memset>
   1557c:	48 8d 05 3d 52 11 00 	lea    rax,[rip+0x11523d]        # 12a7c0 <__sf+0x160>
   15583:	4c 89 2d 6e 52 11 00 	mov    QWORD PTR [rip+0x11526e],r13        # 12a7f8 <__sf+0x198>
   1558a:	4c 89 25 6f 52 11 00 	mov    QWORD PTR [rip+0x11526f],r12        # 12a800 <__sf+0x1a0>
   15591:	48 89 2d 70 52 11 00 	mov    QWORD PTR [rip+0x115270],rbp        # 12a808 <__sf+0x1a8>
   15598:	48 89 1d 71 52 11 00 	mov    QWORD PTR [rip+0x115271],rbx        # 12a810 <__sf+0x1b0>
   1559f:	48 89 05 4a 52 11 00 	mov    QWORD PTR [rip+0x11524a],rax        # 12a7f0 <__sf+0x190>
   155a6:	48 83 c4 08          	add    rsp,0x8
   155aa:	5b                   	pop    rbx
   155ab:	5d                   	pop    rbp
   155ac:	41 5c                	pop    r12
   155ae:	41 5d                	pop    r13
   155b0:	c3                   	ret    
   155b1:	66 66 2e 0f 1f 84 00 	data16 cs nop WORD PTR [rax+rax*1+0x0]
   155b8:	00 00 00 00 
   155bc:	0f 1f 40 00          	nop    DWORD PTR [rax+0x0]

00000000000155c0 <__sfp>:
   155c0:	f3 0f 1e fa          	endbr64 
   155c4:	48 83 3d a4 52 11 00 	cmp    QWORD PTR [rip+0x1152a4],0x0        # 12a870 <__stdio_exit_handler>
   155cb:	00 
   155cc:	41 54                	push   r12
   155ce:	55                   	push   rbp
   155cf:	48 89 fd             	mov    rbp,rdi
   155d2:	53                   	push   rbx
   155d3:	0f 84 23 01 00 00    	je     156fc <__sfp+0x13c>
   155d9:	48 8d 1d a0 e9 00 00 	lea    rbx,[rip+0xe9a0]        # 23f80 <__sglue>
   155e0:	8b 43 08             	mov    eax,DWORD PTR [rbx+0x8]
   155e3:	4c 8b 63 10          	mov    r12,QWORD PTR [rbx+0x10]
   155e7:	85 c0                	test   eax,eax
   155e9:	0f 8e c1 00 00 00    	jle    156b0 <__sfp+0xf0>
   155ef:	83 e8 01             	sub    eax,0x1
   155f2:	48 83 c0 01          	add    rax,0x1
   155f6:	48 8d 14 80          	lea    rdx,[rax+rax*4]
   155fa:	48 8d 04 50          	lea    rax,[rax+rdx*2]
   155fe:	48 c1 e0 04          	shl    rax,0x4
   15602:	4c 01 e0             	add    rax,r12
   15605:	eb 19                	jmp    15620 <__sfp+0x60>
   15607:	66 0f 1f 84 00 00 00 	nop    WORD PTR [rax+rax*1+0x0]
   1560e:	00 00 
   15610:	49 81 c4 b0 00 00 00 	add    r12,0xb0
   15617:	49 39 c4             	cmp    r12,rax
   1561a:	0f 84 90 00 00 00    	je     156b0 <__sfp+0xf0>
   15620:	66 41 83 7c 24 10 00 	cmp    WORD PTR [r12+0x10],0x0
   15627:	75 e7                	jne    15610 <__sfp+0x50>
   15629:	49 c7 04 24 00 00 00 	mov    QWORD PTR [r12],0x0
   15630:	00 
   15631:	ba 08 00 00 00       	mov    edx,0x8
   15636:	31 f6                	xor    esi,esi
   15638:	49 8d bc 24 a4 00 00 	lea    rdi,[r12+0xa4]
   1563f:	00 
   15640:	41 c7 84 24 ac 00 00 	mov    DWORD PTR [r12+0xac],0x0
   15647:	00 00 00 00 00 
   1564c:	49 c7 44 24 08 00 00 	mov    QWORD PTR [r12+0x8],0x0
   15653:	00 00 
   15655:	41 c7 44 24 10 01 00 	mov    DWORD PTR [r12+0x10],0xffff0001
   1565c:	ff ff 
   1565e:	49 c7 44 24 18 00 00 	mov    QWORD PTR [r12+0x18],0x0
   15665:	00 00 
   15667:	41 c7 44 24 20 00 00 	mov    DWORD PTR [r12+0x20],0x0
   1566e:	00 00 
   15670:	41 c7 44 24 28 00 00 	mov    DWORD PTR [r12+0x28],0x0
   15677:	00 00 
   15679:	e8 52 14 00 00       	call   16ad0 <memset>
   1567e:	49 c7 44 24 58 00 00 	mov    QWORD PTR [r12+0x58],0x0
   15685:	00 00 
   15687:	41 c7 44 24 60 00 00 	mov    DWORD PTR [r12+0x60],0x0
   1568e:	00 00 
   15690:	49 c7 44 24 78 00 00 	mov    QWORD PTR [r12+0x78],0x0
   15697:	00 00 
   15699:	41 c7 84 24 80 00 00 	mov    DWORD PTR [r12+0x80],0x0
   156a0:	00 00 00 00 00 
   156a5:	4c 89 e0             	mov    rax,r12
   156a8:	5b                   	pop    rbx
   156a9:	5d                   	pop    rbp
   156aa:	41 5c                	pop    r12
   156ac:	c3                   	ret    
   156ad:	0f 1f 00             	nop    DWORD PTR [rax]
   156b0:	4c 8b 23             	mov    r12,QWORD PTR [rbx]
   156b3:	4d 85 e4             	test   r12,r12
   156b6:	74 08                	je     156c0 <__sfp+0x100>
   156b8:	4c 89 e3             	mov    rbx,r12
   156bb:	e9 20 ff ff ff       	jmp    155e0 <__sfp+0x20>
   156c0:	be d8 02 00 00       	mov    esi,0x2d8
   156c5:	48 89 ef             	mov    rdi,rbp
   156c8:	e8 b3 09 00 00       	call   16080 <_malloc_r>
   156cd:	49 89 c4             	mov    r12,rax
   156d0:	48 85 c0             	test   rax,rax
   156d3:	74 31                	je     15706 <__sfp+0x146>
   156d5:	48 8d 78 18          	lea    rdi,[rax+0x18]
   156d9:	48 c7 00 00 00 00 00 	mov    QWORD PTR [rax],0x0
   156e0:	ba c0 02 00 00       	mov    edx,0x2c0
   156e5:	31 f6                	xor    esi,esi
   156e7:	c7 40 08 04 00 00 00 	mov    DWORD PTR [rax+0x8],0x4
   156ee:	48 89 78 10          	mov    QWORD PTR [rax+0x10],rdi
   156f2:	e8 d9 13 00 00       	call   16ad0 <memset>
   156f7:	4c 89 23             	mov    QWORD PTR [rbx],r12
   156fa:	eb bc                	jmp    156b8 <__sfp+0xf8>
   156fc:	e8 df fc ff ff       	call   153e0 <global_stdio_init.part.0>
   15701:	e9 d3 fe ff ff       	jmp    155d9 <__sfp+0x19>
   15706:	48 c7 03 00 00 00 00 	mov    QWORD PTR [rbx],0x0
   1570d:	c7 45 00 0c 00 00 00 	mov    DWORD PTR [rbp+0x0],0xc
   15714:	eb 8f                	jmp    156a5 <__sfp+0xe5>
   15716:	66 2e 0f 1f 84 00 00 	cs nop WORD PTR [rax+rax*1+0x0]
   1571d:	00 00 00 

0000000000015720 <__sinit>:
   15720:	f3 0f 1e fa          	endbr64 
   15724:	48 83 7f 48 00       	cmp    QWORD PTR [rdi+0x48],0x0
   15729:	74 05                	je     15730 <__sinit+0x10>
   1572b:	c3                   	ret    
   1572c:	0f 1f 40 00          	nop    DWORD PTR [rax+0x0]
   15730:	48 8d 05 39 fc ff ff 	lea    rax,[rip+0xfffffffffffffc39]        # 15370 <cleanup_stdio>
   15737:	48 83 3d 31 51 11 00 	cmp    QWORD PTR [rip+0x115131],0x0        # 12a870 <__stdio_exit_handler>
   1573e:	00 
   1573f:	48 89 47 48          	mov    QWORD PTR [rdi+0x48],rax
   15743:	75 e6                	jne    1572b <__sinit+0xb>
   15745:	e9 96 fc ff ff       	jmp    153e0 <global_stdio_init.part.0>
   1574a:	66 0f 1f 44 00 00    	nop    WORD PTR [rax+rax*1+0x0]

0000000000015750 <__sfp_lock_acquire>:
   15750:	f3 0f 1e fa          	endbr64 
   15754:	c3                   	ret    
   15755:	66 66 2e 0f 1f 84 00 	data16 cs nop WORD PTR [rax+rax*1+0x0]
   1575c:	00 00 00 00 

0000000000015760 <__sfp_lock_release>:
   15760:	f3 0f 1e fa          	endbr64 
   15764:	c3                   	ret    
   15765:	66 66 2e 0f 1f 84 00 	data16 cs nop WORD PTR [rax+rax*1+0x0]
   1576c:	00 00 00 00 

0000000000015770 <__fp_lock_all>:
   15770:	f3 0f 1e fa          	endbr64 
   15774:	48 8d 15 05 e8 00 00 	lea    rdx,[rip+0xe805]        # 23f80 <__sglue>
   1577b:	48 8d 35 be fb ff ff 	lea    rsi,[rip+0xfffffffffffffbbe]        # 15340 <__fp_lock>
   15782:	31 ff                	xor    edi,edi
   15784:	e9 b7 12 00 00       	jmp    16a40 <_fwalk_sglue>
   15789:	0f 1f 80 00 00 00 00 	nop    DWORD PTR [rax+0x0]

0000000000015790 <__fp_unlock_all>:
   15790:	f3 0f 1e fa          	endbr64 
   15794:	48 8d 15 e5 e7 00 00 	lea    rdx,[rip+0xe7e5]        # 23f80 <__sglue>
   1579b:	48 8d 35 2e fc ff ff 	lea    rsi,[rip+0xfffffffffffffc2e]        # 153d0 <__fp_unlock>
   157a2:	31 ff                	xor    edi,edi
   157a4:	e9 97 12 00 00       	jmp    16a40 <_fwalk_sglue>
   157a9:	cc                   	int3   
   157aa:	cc                   	int3   
   157ab:	cc                   	int3   
   157ac:	cc                   	int3   
   157ad:	cc                   	int3   
   157ae:	cc                   	int3   
   157af:	cc                   	int3   

00000000000157b0 <_fclose_r>:
   157b0:	f3 0f 1e fa          	endbr64 
   157b4:	41 54                	push   r12
   157b6:	55                   	push   rbp
   157b7:	53                   	push   rbx
   157b8:	48 85 f6             	test   rsi,rsi
   157bb:	74 1d                	je     157da <_fclose_r+0x2a>
   157bd:	48 89 fd             	mov    rbp,rdi
   157c0:	48 89 f3             	mov    rbx,rsi
   157c3:	48 85 ff             	test   rdi,rdi
   157c6:	74 0b                	je     157d3 <_fclose_r+0x23>
   157c8:	48 83 7f 48 00       	cmp    QWORD PTR [rdi+0x48],0x0
   157cd:	0f 84 9d 00 00 00    	je     15870 <_fclose_r+0xc0>
   157d3:	66 83 7b 10 00       	cmp    WORD PTR [rbx+0x10],0x0
   157d8:	75 0e                	jne    157e8 <_fclose_r+0x38>
   157da:	45 31 e4             	xor    r12d,r12d
   157dd:	5b                   	pop    rbx
   157de:	5d                   	pop    rbp
   157df:	44 89 e0             	mov    eax,r12d
   157e2:	41 5c                	pop    r12
   157e4:	c3                   	ret    
   157e5:	0f 1f 00             	nop    DWORD PTR [rax]
   157e8:	48 89 de             	mov    rsi,rbx
   157eb:	48 89 ef             	mov    rdi,rbp
   157ee:	e8 bd 00 00 00       	call   158b0 <__sflush_r>
   157f3:	41 89 c4             	mov    r12d,eax
   157f6:	48 8b 43 50          	mov    rax,QWORD PTR [rbx+0x50]
   157fa:	48 85 c0             	test   rax,rax
   157fd:	74 14                	je     15813 <_fclose_r+0x63>
   157ff:	48 8b 73 30          	mov    rsi,QWORD PTR [rbx+0x30]
   15803:	48 89 ef             	mov    rdi,rbp
   15806:	ff d0                	call   rax
   15808:	85 c0                	test   eax,eax
   1580a:	b8 ff ff ff ff       	mov    eax,0xffffffff
   1580f:	44 0f 48 e0          	cmovs  r12d,eax
   15813:	f6 43 10 80          	test   BYTE PTR [rbx+0x10],0x80
   15817:	75 67                	jne    15880 <_fclose_r+0xd0>
   15819:	48 8b 73 58          	mov    rsi,QWORD PTR [rbx+0x58]
   1581d:	48 85 f6             	test   rsi,rsi
   15820:	74 19                	je     1583b <_fclose_r+0x8b>
   15822:	48 8d 43 74          	lea    rax,[rbx+0x74]
   15826:	48 39 c6             	cmp    rsi,rax
   15829:	74 08                	je     15833 <_fclose_r+0x83>
   1582b:	48 89 ef             	mov    rdi,rbp
   1582e:	e8 9d 04 00 00       	call   15cd0 <_free_r>
   15833:	48 c7 43 58 00 00 00 	mov    QWORD PTR [rbx+0x58],0x0
   1583a:	00 
   1583b:	48 8b 73 78          	mov    rsi,QWORD PTR [rbx+0x78]
   1583f:	48 85 f6             	test   rsi,rsi
   15842:	74 10                	je     15854 <_fclose_r+0xa4>
   15844:	48 89 ef             	mov    rdi,rbp
   15847:	e8 84 04 00 00       	call   15cd0 <_free_r>
   1584c:	48 c7 43 78 00 00 00 	mov    QWORD PTR [rbx+0x78],0x0
   15853:	00 
   15854:	e8 f7 fe ff ff       	call   15750 <__sfp_lock_acquire>
   15859:	31 c0                	xor    eax,eax
   1585b:	66 89 43 10          	mov    WORD PTR [rbx+0x10],ax
   1585f:	e8 fc fe ff ff       	call   15760 <__sfp_lock_release>
   15864:	44 89 e0             	mov    eax,r12d
   15867:	5b                   	pop    rbx
   15868:	5d                   	pop    rbp
   15869:	41 5c                	pop    r12
   1586b:	c3                   	ret    
   1586c:	0f 1f 40 00          	nop    DWORD PTR [rax+0x0]
   15870:	e8 ab fe ff ff       	call   15720 <__sinit>
   15875:	e9 59 ff ff ff       	jmp    157d3 <_fclose_r+0x23>
   1587a:	66 0f 1f 44 00 00    	nop    WORD PTR [rax+rax*1+0x0]
   15880:	48 8b 73 18          	mov    rsi,QWORD PTR [rbx+0x18]
   15884:	48 89 ef             	mov    rdi,rbp
   15887:	e8 44 04 00 00       	call   15cd0 <_free_r>
   1588c:	eb 8b                	jmp    15819 <_fclose_r+0x69>
   1588e:	66 90                	xchg   ax,ax

0000000000015890 <fclose>:
   15890:	f3 0f 1e fa          	endbr64 
   15894:	48 89 fe             	mov    rsi,rdi
   15897:	48 8b 3d 62 e5 00 00 	mov    rdi,QWORD PTR [rip+0xe562]        # 23e00 <_impure_ptr>
   1589e:	e9 0d ff ff ff       	jmp    157b0 <_fclose_r>
   158a3:	cc                   	int3   
   158a4:	cc                   	int3   
   158a5:	cc                   	int3   
   158a6:	cc                   	int3   
   158a7:	cc                   	int3   
   158a8:	cc                   	int3   
   158a9:	cc                   	int3   
   158aa:	cc                   	int3   
   158ab:	cc                   	int3   
   158ac:	cc                   	int3   
   158ad:	cc                   	int3   
   158ae:	cc                   	int3   
   158af:	cc                   	int3   

00000000000158b0 <__sflush_r>:
   158b0:	f3 0f 1e fa          	endbr64 
   158b4:	41 55                	push   r13
   158b6:	49 89 fd             	mov    r13,rdi
   158b9:	41 54                	push   r12
   158bb:	55                   	push   rbp
   158bc:	53                   	push   rbx
   158bd:	48 89 f3             	mov    rbx,rsi
   158c0:	48 83 ec 08          	sub    rsp,0x8
   158c4:	0f b7 46 10          	movzx  eax,WORD PTR [rsi+0x10]
   158c8:	a8 08                	test   al,0x8
   158ca:	0f 85 b0 00 00 00    	jne    15980 <__sflush_r+0xd0>
   158d0:	89 c1                	mov    ecx,eax
   158d2:	80 cd 08             	or     ch,0x8
   158d5:	66 89 4e 10          	mov    WORD PTR [rsi+0x10],cx
   158d9:	8b 76 08             	mov    esi,DWORD PTR [rsi+0x8]
   158dc:	85 f6                	test   esi,esi
   158de:	0f 8e 64 01 00 00    	jle    15a48 <__sflush_r+0x198>
   158e4:	4c 8b 43 48          	mov    r8,QWORD PTR [rbx+0x48]
   158e8:	4d 85 c0             	test   r8,r8
   158eb:	0f 84 44 01 00 00    	je     15a35 <__sflush_r+0x185>
   158f1:	41 8b 6d 00          	mov    ebp,DWORD PTR [r13+0x0]
   158f5:	48 8b 73 30          	mov    rsi,QWORD PTR [rbx+0x30]
   158f9:	41 c7 45 00 00 00 00 	mov    DWORD PTR [r13+0x0],0x0
   15900:	00 
   15901:	f6 c4 10             	test   ah,0x10
   15904:	0f 85 4e 01 00 00    	jne    15a58 <__sflush_r+0x1a8>
   1590a:	31 d2                	xor    edx,edx
   1590c:	b9 01 00 00 00       	mov    ecx,0x1
   15911:	4c 89 ef             	mov    rdi,r13
   15914:	41 ff d0             	call   r8
   15917:	48 89 c2             	mov    rdx,rax
   1591a:	48 83 f8 ff          	cmp    rax,0xffffffffffffffff
   1591e:	0f 84 8c 01 00 00    	je     15ab0 <__sflush_r+0x200>
   15924:	0f b7 4b 10          	movzx  ecx,WORD PTR [rbx+0x10]
   15928:	4c 8b 43 48          	mov    r8,QWORD PTR [rbx+0x48]
   1592c:	48 8b 73 30          	mov    rsi,QWORD PTR [rbx+0x30]
   15930:	83 e1 04             	and    ecx,0x4
   15933:	74 15                	je     1594a <__sflush_r+0x9a>
   15935:	48 63 43 08          	movsxd rax,DWORD PTR [rbx+0x8]
   15939:	48 29 c2             	sub    rdx,rax
   1593c:	48 83 7b 58 00       	cmp    QWORD PTR [rbx+0x58],0x0
   15941:	74 07                	je     1594a <__sflush_r+0x9a>
   15943:	48 63 43 70          	movsxd rax,DWORD PTR [rbx+0x70]
   15947:	48 29 c2             	sub    rdx,rax
   1594a:	31 c9                	xor    ecx,ecx
   1594c:	4c 89 ef             	mov    rdi,r13
   1594f:	41 ff d0             	call   r8
   15952:	48 83 f8 ff          	cmp    rax,0xffffffffffffffff
   15956:	0f 85 8c 00 00 00    	jne    159e8 <__sflush_r+0x138>
   1595c:	41 8b 4d 00          	mov    ecx,DWORD PTR [r13+0x0]
   15960:	0f b7 53 10          	movzx  edx,WORD PTR [rbx+0x10]
   15964:	83 f9 1d             	cmp    ecx,0x1d
   15967:	0f 86 fb 00 00 00    	jbe    15a68 <__sflush_r+0x1b8>
   1596d:	83 ca 40             	or     edx,0x40
   15970:	b8 ff ff ff ff       	mov    eax,0xffffffff
   15975:	66 89 53 10          	mov    WORD PTR [rbx+0x10],dx
   15979:	e9 b9 00 00 00       	jmp    15a37 <__sflush_r+0x187>
   1597e:	66 90                	xchg   ax,ax
   15980:	4c 8b 66 18          	mov    r12,QWORD PTR [rsi+0x18]
   15984:	4d 85 e4             	test   r12,r12
   15987:	0f 84 a8 00 00 00    	je     15a35 <__sflush_r+0x185>
   1598d:	48 8b 16             	mov    rdx,QWORD PTR [rsi]
   15990:	31 c9                	xor    ecx,ecx
   15992:	4c 89 26             	mov    QWORD PTR [rsi],r12
   15995:	4c 29 e2             	sub    rdx,r12
   15998:	89 d5                	mov    ebp,edx
   1599a:	a8 03                	test   al,0x3
   1599c:	75 03                	jne    159a1 <__sflush_r+0xf1>
   1599e:	8b 4e 20             	mov    ecx,DWORD PTR [rsi+0x20]
   159a1:	89 4b 0c             	mov    DWORD PTR [rbx+0xc],ecx
   159a4:	85 d2                	test   edx,edx
   159a6:	7f 14                	jg     159bc <__sflush_r+0x10c>
   159a8:	e9 88 00 00 00       	jmp    15a35 <__sflush_r+0x185>
   159ad:	0f 1f 00             	nop    DWORD PTR [rax]
   159b0:	48 63 d0             	movsxd rdx,eax
   159b3:	29 c5                	sub    ebp,eax
   159b5:	49 01 d4             	add    r12,rdx
   159b8:	85 ed                	test   ebp,ebp
   159ba:	7e 79                	jle    15a35 <__sflush_r+0x185>
   159bc:	48 8b 73 30          	mov    rsi,QWORD PTR [rbx+0x30]
   159c0:	89 e9                	mov    ecx,ebp
   159c2:	4c 89 e2             	mov    rdx,r12
   159c5:	4c 89 ef             	mov    rdi,r13
   159c8:	ff 53 40             	call   QWORD PTR [rbx+0x40]
   159cb:	85 c0                	test   eax,eax
   159cd:	7f e1                	jg     159b0 <__sflush_r+0x100>
   159cf:	66 83 4b 10 40       	or     WORD PTR [rbx+0x10],0x40
   159d4:	48 83 c4 08          	add    rsp,0x8
   159d8:	b8 ff ff ff ff       	mov    eax,0xffffffff
   159dd:	5b                   	pop    rbx
   159de:	5d                   	pop    rbp
   159df:	41 5c                	pop    r12
   159e1:	41 5d                	pop    r13
   159e3:	c3                   	ret    
   159e4:	0f 1f 40 00          	nop    DWORD PTR [rax+0x0]
   159e8:	0f b7 53 10          	movzx  edx,WORD PTR [rbx+0x10]
   159ec:	c7 43 08 00 00 00 00 	mov    DWORD PTR [rbx+0x8],0x0
   159f3:	89 d1                	mov    ecx,edx
   159f5:	80 e5 f7             	and    ch,0xf7
   159f8:	66 89 4b 10          	mov    WORD PTR [rbx+0x10],cx
   159fc:	48 8b 4b 18          	mov    rcx,QWORD PTR [rbx+0x18]
   15a00:	48 89 0b             	mov    QWORD PTR [rbx],rcx
   15a03:	80 e6 10             	and    dh,0x10
   15a06:	74 07                	je     15a0f <__sflush_r+0x15f>
   15a08:	48 89 83 90 00 00 00 	mov    QWORD PTR [rbx+0x90],rax
   15a0f:	48 8b 73 58          	mov    rsi,QWORD PTR [rbx+0x58]
   15a13:	41 89 6d 00          	mov    DWORD PTR [r13+0x0],ebp
   15a17:	48 85 f6             	test   rsi,rsi
   15a1a:	74 19                	je     15a35 <__sflush_r+0x185>
   15a1c:	48 8d 43 74          	lea    rax,[rbx+0x74]
   15a20:	48 39 c6             	cmp    rsi,rax
   15a23:	74 08                	je     15a2d <__sflush_r+0x17d>
   15a25:	4c 89 ef             	mov    rdi,r13
   15a28:	e8 a3 02 00 00       	call   15cd0 <_free_r>
   15a2d:	48 c7 43 58 00 00 00 	mov    QWORD PTR [rbx+0x58],0x0
   15a34:	00 
   15a35:	31 c0                	xor    eax,eax
   15a37:	48 83 c4 08          	add    rsp,0x8
   15a3b:	5b                   	pop    rbx
   15a3c:	5d                   	pop    rbp
   15a3d:	41 5c                	pop    r12
   15a3f:	41 5d                	pop    r13
   15a41:	c3                   	ret    
   15a42:	66 0f 1f 44 00 00    	nop    WORD PTR [rax+rax*1+0x0]
   15a48:	8b 53 70             	mov    edx,DWORD PTR [rbx+0x70]
   15a4b:	85 d2                	test   edx,edx
   15a4d:	0f 8f 91 fe ff ff    	jg     158e4 <__sflush_r+0x34>
   15a53:	eb e0                	jmp    15a35 <__sflush_r+0x185>
   15a55:	0f 1f 00             	nop    DWORD PTR [rax]
   15a58:	48 8b 93 90 00 00 00 	mov    rdx,QWORD PTR [rbx+0x90]
   15a5f:	e9 cc fe ff ff       	jmp    15930 <__sflush_r+0x80>
   15a64:	0f 1f 40 00          	nop    DWORD PTR [rax+0x0]
   15a68:	48 c7 c6 fe ff bf df 	mov    rsi,0xffffffffdfbffffe
   15a6f:	48 0f a3 ce          	bt     rsi,rcx
   15a73:	0f 82 f4 fe ff ff    	jb     1596d <__sflush_r+0xbd>
   15a79:	89 d6                	mov    esi,edx
   15a7b:	c7 43 08 00 00 00 00 	mov    DWORD PTR [rbx+0x8],0x0
   15a82:	66 81 e6 ff f7       	and    si,0xf7ff
   15a87:	66 89 73 10          	mov    WORD PTR [rbx+0x10],si
   15a8b:	48 8b 73 18          	mov    rsi,QWORD PTR [rbx+0x18]
   15a8f:	48 89 33             	mov    QWORD PTR [rbx],rsi
   15a92:	80 e6 10             	and    dh,0x10
   15a95:	0f 84 74 ff ff ff    	je     15a0f <__sflush_r+0x15f>
   15a9b:	85 c9                	test   ecx,ecx
   15a9d:	0f 85 6c ff ff ff    	jne    15a0f <__sflush_r+0x15f>
   15aa3:	e9 60 ff ff ff       	jmp    15a08 <__sflush_r+0x158>
   15aa8:	0f 1f 84 00 00 00 00 	nop    DWORD PTR [rax+rax*1+0x0]
   15aaf:	00 
   15ab0:	41 8b 45 00          	mov    eax,DWORD PTR [r13+0x0]
   15ab4:	85 c0                	test   eax,eax
   15ab6:	0f 84 68 fe ff ff    	je     15924 <__sflush_r+0x74>
   15abc:	83 f8 1d             	cmp    eax,0x1d
   15abf:	74 09                	je     15aca <__sflush_r+0x21a>
   15ac1:	83 f8 16             	cmp    eax,0x16
   15ac4:	0f 85 05 ff ff ff    	jne    159cf <__sflush_r+0x11f>
   15aca:	41 89 6d 00          	mov    DWORD PTR [r13+0x0],ebp
   15ace:	31 c0                	xor    eax,eax
   15ad0:	e9 62 ff ff ff       	jmp    15a37 <__sflush_r+0x187>
   15ad5:	66 66 2e 0f 1f 84 00 	data16 cs nop WORD PTR [rax+rax*1+0x0]
   15adc:	00 00 00 00 

0000000000015ae0 <_fflush_r>:
   15ae0:	f3 0f 1e fa          	endbr64 
   15ae4:	48 85 ff             	test   rdi,rdi
   15ae7:	74 07                	je     15af0 <_fflush_r+0x10>
   15ae9:	48 83 7f 48 00       	cmp    QWORD PTR [rdi+0x48],0x0
   15aee:	74 18                	je     15b08 <_fflush_r+0x28>
   15af0:	66 83 7e 10 00       	cmp    WORD PTR [rsi+0x10],0x0
   15af5:	75 09                	jne    15b00 <_fflush_r+0x20>
   15af7:	31 c0                	xor    eax,eax
   15af9:	c3                   	ret    
   15afa:	66 0f 1f 44 00 00    	nop    WORD PTR [rax+rax*1+0x0]
   15b00:	e9 ab fd ff ff       	jmp    158b0 <__sflush_r>
   15b05:	0f 1f 00             	nop    DWORD PTR [rax]
   15b08:	48 83 ec 18          	sub    rsp,0x18
   15b0c:	48 89 74 24 08       	mov    QWORD PTR [rsp+0x8],rsi
   15b11:	48 89 3c 24          	mov    QWORD PTR [rsp],rdi
   15b15:	e8 06 fc ff ff       	call   15720 <__sinit>
   15b1a:	48 8b 74 24 08       	mov    rsi,QWORD PTR [rsp+0x8]
   15b1f:	48 8b 3c 24          	mov    rdi,QWORD PTR [rsp]
   15b23:	66 83 7e 10 00       	cmp    WORD PTR [rsi+0x10],0x0
   15b28:	74 0e                	je     15b38 <_fflush_r+0x58>
   15b2a:	48 83 c4 18          	add    rsp,0x18
   15b2e:	e9 7d fd ff ff       	jmp    158b0 <__sflush_r>
   15b33:	0f 1f 44 00 00       	nop    DWORD PTR [rax+rax*1+0x0]
   15b38:	31 c0                	xor    eax,eax
   15b3a:	48 83 c4 18          	add    rsp,0x18
   15b3e:	c3                   	ret    
   15b3f:	90                   	nop

0000000000015b40 <fflush>:
   15b40:	f3 0f 1e fa          	endbr64 
   15b44:	48 85 ff             	test   rdi,rdi
   15b47:	74 5f                	je     15ba8 <fflush+0x68>
   15b49:	48 89 fe             	mov    rsi,rdi
   15b4c:	48 8b 3d ad e2 00 00 	mov    rdi,QWORD PTR [rip+0xe2ad]        # 23e00 <_impure_ptr>
   15b53:	48 85 ff             	test   rdi,rdi
   15b56:	74 07                	je     15b5f <fflush+0x1f>
   15b58:	48 83 7f 48 00       	cmp    QWORD PTR [rdi+0x48],0x0
   15b5d:	74 19                	je     15b78 <fflush+0x38>
   15b5f:	66 83 7e 10 00       	cmp    WORD PTR [rsi+0x10],0x0
   15b64:	75 0a                	jne    15b70 <fflush+0x30>
   15b66:	31 c0                	xor    eax,eax
   15b68:	c3                   	ret    
   15b69:	0f 1f 80 00 00 00 00 	nop    DWORD PTR [rax+0x0]
   15b70:	e9 3b fd ff ff       	jmp    158b0 <__sflush_r>
   15b75:	0f 1f 00             	nop    DWORD PTR [rax]
   15b78:	48 83 ec 18          	sub    rsp,0x18
   15b7c:	48 89 74 24 08       	mov    QWORD PTR [rsp+0x8],rsi
   15b81:	48 89 3c 24          	mov    QWORD PTR [rsp],rdi
   15b85:	e8 96 fb ff ff       	call   15720 <__sinit>
   15b8a:	48 8b 74 24 08       	mov    rsi,QWORD PTR [rsp+0x8]
   15b8f:	48 8b 3c 24          	mov    rdi,QWORD PTR [rsp]
   15b93:	66 83 7e 10 00       	cmp    WORD PTR [rsi+0x10],0x0
   15b98:	75 2e                	jne    15bc8 <fflush+0x88>
   15b9a:	31 c0                	xor    eax,eax
   15b9c:	48 83 c4 18          	add    rsp,0x18
   15ba0:	c3                   	ret    
   15ba1:	0f 1f 80 00 00 00 00 	nop    DWORD PTR [rax+0x0]
   15ba8:	48 8d 15 d1 e3 00 00 	lea    rdx,[rip+0xe3d1]        # 23f80 <__sglue>
   15baf:	48 8d 35 2a ff ff ff 	lea    rsi,[rip+0xffffffffffffff2a]        # 15ae0 <_fflush_r>
   15bb6:	48 8d 3d 63 e2 00 00 	lea    rdi,[rip+0xe263]        # 23e20 <_impure_data>
   15bbd:	e9 7e 0e 00 00       	jmp    16a40 <_fwalk_sglue>
   15bc2:	66 0f 1f 44 00 00    	nop    WORD PTR [rax+rax*1+0x0]
   15bc8:	48 83 c4 18          	add    rsp,0x18
   15bcc:	e9 df fc ff ff       	jmp    158b0 <__sflush_r>
   15bd1:	cc                   	int3   
   15bd2:	cc                   	int3   
   15bd3:	cc                   	int3   
   15bd4:	cc                   	int3   
   15bd5:	cc                   	int3   
   15bd6:	cc                   	int3   
   15bd7:	cc                   	int3   
   15bd8:	cc                   	int3   
   15bd9:	cc                   	int3   
   15bda:	cc                   	int3   
   15bdb:	cc                   	int3   
   15bdc:	cc                   	int3   
   15bdd:	cc                   	int3   
   15bde:	cc                   	int3   
   15bdf:	cc                   	int3   

0000000000015be0 <_malloc_trim_r>:
   15be0:	f3 0f 1e fa          	endbr64 
   15be4:	41 54                	push   r12
   15be6:	49 89 f4             	mov    r12,rsi
   15be9:	55                   	push   rbp
   15bea:	48 89 fd             	mov    rbp,rdi
   15bed:	53                   	push   rbx
   15bee:	e8 6d 04 00 00       	call   16060 <__malloc_lock>
   15bf3:	48 8b 05 d6 e3 00 00 	mov    rax,QWORD PTR [rip+0xe3d6]        # 23fd0 <__malloc_av_+0x10>
   15bfa:	48 8b 58 08          	mov    rbx,QWORD PTR [rax+0x8]
   15bfe:	48 83 e3 fc          	and    rbx,0xfffffffffffffffc
   15c02:	48 89 d8             	mov    rax,rbx
   15c05:	4c 29 e0             	sub    rax,r12
   15c08:	48 05 df 0f 00 00    	add    rax,0xfdf
   15c0e:	48 25 00 f0 ff ff    	and    rax,0xfffffffffffff000
   15c14:	4c 8d a0 00 f0 ff ff 	lea    r12,[rax-0x1000]
   15c1b:	49 81 fc ff 0f 00 00 	cmp    r12,0xfff
   15c22:	7e 1c                	jle    15c40 <_malloc_trim_r+0x60>
   15c24:	31 f6                	xor    esi,esi
   15c26:	48 89 ef             	mov    rdi,rbp
   15c29:	e8 32 0d 00 00       	call   16960 <_sbrk_r>
   15c2e:	49 89 c0             	mov    r8,rax
   15c31:	48 8b 05 98 e3 00 00 	mov    rax,QWORD PTR [rip+0xe398]        # 23fd0 <__malloc_av_+0x10>
   15c38:	48 01 d8             	add    rax,rbx
   15c3b:	49 39 c0             	cmp    r8,rax
   15c3e:	74 10                	je     15c50 <_malloc_trim_r+0x70>
   15c40:	48 89 ef             	mov    rdi,rbp
   15c43:	e8 28 04 00 00       	call   16070 <__malloc_unlock>
   15c48:	5b                   	pop    rbx
   15c49:	31 c0                	xor    eax,eax
   15c4b:	5d                   	pop    rbp
   15c4c:	41 5c                	pop    r12
   15c4e:	c3                   	ret    
   15c4f:	90                   	nop
   15c50:	4c 89 e6             	mov    rsi,r12
   15c53:	48 89 ef             	mov    rdi,rbp
   15c56:	48 f7 de             	neg    rsi
   15c59:	e8 02 0d 00 00       	call   16960 <_sbrk_r>
   15c5e:	48 83 f8 ff          	cmp    rax,0xffffffffffffffff
   15c62:	74 2c                	je     15c90 <_malloc_trim_r+0xb0>
   15c64:	48 8b 05 65 e3 00 00 	mov    rax,QWORD PTR [rip+0xe365]        # 23fd0 <__malloc_av_+0x10>
   15c6b:	4c 29 e3             	sub    rbx,r12
   15c6e:	48 89 ef             	mov    rdi,rbp
   15c71:	44 29 25 08 4c 11 00 	sub    DWORD PTR [rip+0x114c08],r12d        # 12a880 <__malloc_current_mallinfo>
   15c78:	48 83 cb 01          	or     rbx,0x1
   15c7c:	48 89 58 08          	mov    QWORD PTR [rax+0x8],rbx
   15c80:	e8 eb 03 00 00       	call   16070 <__malloc_unlock>
   15c85:	5b                   	pop    rbx
   15c86:	b8 01 00 00 00       	mov    eax,0x1
   15c8b:	5d                   	pop    rbp
   15c8c:	41 5c                	pop    r12
   15c8e:	c3                   	ret    
   15c8f:	90                   	nop
   15c90:	31 f6                	xor    esi,esi
   15c92:	48 89 ef             	mov    rdi,rbp
   15c95:	e8 c6 0c 00 00       	call   16960 <_sbrk_r>
   15c9a:	48 8b 0d 2f e3 00 00 	mov    rcx,QWORD PTR [rip+0xe32f]        # 23fd0 <__malloc_av_+0x10>
   15ca1:	48 89 c2             	mov    rdx,rax
   15ca4:	48 29 ca             	sub    rdx,rcx
   15ca7:	48 83 fa 1f          	cmp    rdx,0x1f
   15cab:	7e 93                	jle    15c40 <_malloc_trim_r+0x60>
   15cad:	48 2b 05 e4 e2 00 00 	sub    rax,QWORD PTR [rip+0xe2e4]        # 23f98 <__malloc_sbrk_base>
   15cb4:	48 83 ca 01          	or     rdx,0x1
   15cb8:	89 05 c2 4b 11 00    	mov    DWORD PTR [rip+0x114bc2],eax        # 12a880 <__malloc_current_mallinfo>
   15cbe:	48 89 51 08          	mov    QWORD PTR [rcx+0x8],rdx
   15cc2:	e9 79 ff ff ff       	jmp    15c40 <_malloc_trim_r+0x60>
   15cc7:	66 0f 1f 84 00 00 00 	nop    WORD PTR [rax+rax*1+0x0]
   15cce:	00 00 

0000000000015cd0 <_free_r>:
   15cd0:	f3 0f 1e fa          	endbr64 
   15cd4:	48 85 f6             	test   rsi,rsi
   15cd7:	0f 84 3b 01 00 00    	je     15e18 <_free_r+0x148>
   15cdd:	55                   	push   rbp
   15cde:	48 89 fd             	mov    rbp,rdi
   15ce1:	53                   	push   rbx
   15ce2:	48 89 f3             	mov    rbx,rsi
   15ce5:	48 83 ec 08          	sub    rsp,0x8
   15ce9:	e8 72 03 00 00       	call   16060 <__malloc_lock>
   15cee:	48 8b 7b f8          	mov    rdi,QWORD PTR [rbx-0x8]
   15cf2:	48 8d 53 f0          	lea    rdx,[rbx-0x10]
   15cf6:	48 89 f8             	mov    rax,rdi
   15cf9:	48 83 e0 fe          	and    rax,0xfffffffffffffffe
   15cfd:	48 8d 34 02          	lea    rsi,[rdx+rax*1]
   15d01:	48 8b 4e 08          	mov    rcx,QWORD PTR [rsi+0x8]
   15d05:	48 83 e1 fc          	and    rcx,0xfffffffffffffffc
   15d09:	48 39 35 c0 e2 00 00 	cmp    QWORD PTR [rip+0xe2c0],rsi        # 23fd0 <__malloc_av_+0x10>
   15d10:	0f 84 ea 01 00 00    	je     15f00 <_free_r+0x230>
   15d16:	83 e7 01             	and    edi,0x1
   15d19:	48 89 4e 08          	mov    QWORD PTR [rsi+0x8],rcx
   15d1d:	4c 8d 04 0e          	lea    r8,[rsi+rcx*1]
   15d21:	0f 85 a9 00 00 00    	jne    15dd0 <_free_r+0x100>
   15d27:	48 8b 7b f0          	mov    rdi,QWORD PTR [rbx-0x10]
   15d2b:	48 29 fa             	sub    rdx,rdi
   15d2e:	48 01 f8             	add    rax,rdi
   15d31:	49 8b 78 08          	mov    rdi,QWORD PTR [r8+0x8]
   15d35:	4c 8d 05 94 e2 00 00 	lea    r8,[rip+0xe294]        # 23fd0 <__malloc_av_+0x10>
   15d3c:	4c 8b 4a 10          	mov    r9,QWORD PTR [rdx+0x10]
   15d40:	83 e7 01             	and    edi,0x1
   15d43:	4d 39 c1             	cmp    r9,r8
   15d46:	0f 84 74 01 00 00    	je     15ec0 <_free_r+0x1f0>
   15d4c:	4c 8b 52 18          	mov    r10,QWORD PTR [rdx+0x18]
   15d50:	4d 89 51 18          	mov    QWORD PTR [r9+0x18],r10
   15d54:	4d 89 4a 10          	mov    QWORD PTR [r10+0x10],r9
   15d58:	48 85 ff             	test   rdi,rdi
   15d5b:	0f 84 27 02 00 00    	je     15f88 <_free_r+0x2b8>
   15d61:	48 89 c1             	mov    rcx,rax
   15d64:	48 83 c9 01          	or     rcx,0x1
   15d68:	48 89 4a 08          	mov    QWORD PTR [rdx+0x8],rcx
   15d6c:	48 89 06             	mov    QWORD PTR [rsi],rax
   15d6f:	48 3d ff 01 00 00    	cmp    rax,0x1ff
   15d75:	0f 87 bf 00 00 00    	ja     15e3a <_free_r+0x16a>
   15d7b:	48 c1 e8 03          	shr    rax,0x3
   15d7f:	be 01 00 00 00       	mov    esi,0x1
   15d84:	89 c1                	mov    ecx,eax
   15d86:	8d 44 00 02          	lea    eax,[rax+rax*1+0x2]
   15d8a:	c1 f9 02             	sar    ecx,0x2
   15d8d:	48 98                	cdqe   
   15d8f:	48 d3 e6             	shl    rsi,cl
   15d92:	48 8d 0d 27 e2 00 00 	lea    rcx,[rip+0xe227]        # 23fc0 <__malloc_av_>
   15d99:	48 09 35 28 e2 00 00 	or     QWORD PTR [rip+0xe228],rsi        # 23fc8 <__malloc_av_+0x8>
   15da0:	48 8d 04 c1          	lea    rax,[rcx+rax*8]
   15da4:	48 8b 08             	mov    rcx,QWORD PTR [rax]
   15da7:	48 8d 70 f0          	lea    rsi,[rax-0x10]
   15dab:	48 89 72 18          	mov    QWORD PTR [rdx+0x18],rsi
   15daf:	48 89 4a 10          	mov    QWORD PTR [rdx+0x10],rcx
   15db3:	48 89 10             	mov    QWORD PTR [rax],rdx
   15db6:	48 89 51 18          	mov    QWORD PTR [rcx+0x18],rdx
   15dba:	48 83 c4 08          	add    rsp,0x8
   15dbe:	48 89 ef             	mov    rdi,rbp
   15dc1:	5b                   	pop    rbx
   15dc2:	5d                   	pop    rbp
   15dc3:	e9 a8 02 00 00       	jmp    16070 <__malloc_unlock>
   15dc8:	0f 1f 84 00 00 00 00 	nop    DWORD PTR [rax+rax*1+0x0]
   15dcf:	00 
   15dd0:	41 f6 40 08 01       	test   BYTE PTR [r8+0x8],0x1
   15dd5:	75 49                	jne    15e20 <_free_r+0x150>
   15dd7:	48 01 c8             	add    rax,rcx
   15dda:	4c 8d 05 ef e1 00 00 	lea    r8,[rip+0xe1ef]        # 23fd0 <__malloc_av_+0x10>
   15de1:	48 8b 4e 10          	mov    rcx,QWORD PTR [rsi+0x10]
   15de5:	49 89 c1             	mov    r9,rax
   15de8:	48 8d 3c 02          	lea    rdi,[rdx+rax*1]
   15dec:	49 83 c9 01          	or     r9,0x1
   15df0:	4c 39 c1             	cmp    rcx,r8
   15df3:	0f 84 b7 01 00 00    	je     15fb0 <_free_r+0x2e0>
   15df9:	48 8b 76 18          	mov    rsi,QWORD PTR [rsi+0x18]
   15dfd:	48 89 71 18          	mov    QWORD PTR [rcx+0x18],rsi
   15e01:	48 89 4e 10          	mov    QWORD PTR [rsi+0x10],rcx
   15e05:	4c 89 4a 08          	mov    QWORD PTR [rdx+0x8],r9
   15e09:	48 89 07             	mov    QWORD PTR [rdi],rax
   15e0c:	e9 5e ff ff ff       	jmp    15d6f <_free_r+0x9f>
   15e11:	0f 1f 80 00 00 00 00 	nop    DWORD PTR [rax+0x0]
   15e18:	c3                   	ret    
   15e19:	0f 1f 80 00 00 00 00 	nop    DWORD PTR [rax+0x0]
   15e20:	48 89 c1             	mov    rcx,rax
   15e23:	48 83 c9 01          	or     rcx,0x1
   15e27:	48 89 4b f8          	mov    QWORD PTR [rbx-0x8],rcx
   15e2b:	48 89 06             	mov    QWORD PTR [rsi],rax
   15e2e:	48 3d ff 01 00 00    	cmp    rax,0x1ff
   15e34:	0f 86 41 ff ff ff    	jbe    15d7b <_free_r+0xab>
   15e3a:	48 89 c6             	mov    rsi,rax
   15e3d:	48 c1 ee 09          	shr    rsi,0x9
   15e41:	48 3d ff 09 00 00    	cmp    rax,0x9ff
   15e47:	0f 87 0b 01 00 00    	ja     15f58 <_free_r+0x288>
   15e4d:	48 89 c6             	mov    rsi,rax
   15e50:	48 c1 ee 06          	shr    rsi,0x6
   15e54:	8d 4e 38             	lea    ecx,[rsi+0x38]
   15e57:	8d 74 36 72          	lea    esi,[rsi+rsi*1+0x72]
   15e5b:	48 63 f6             	movsxd rsi,esi
   15e5e:	48 c1 e6 03          	shl    rsi,0x3
   15e62:	48 8d 3d 57 e1 00 00 	lea    rdi,[rip+0xe157]        # 23fc0 <__malloc_av_>
   15e69:	48 01 fe             	add    rsi,rdi
   15e6c:	48 8d 7e f0          	lea    rdi,[rsi-0x10]
   15e70:	48 8b 36             	mov    rsi,QWORD PTR [rsi]
   15e73:	48 39 f7             	cmp    rdi,rsi
   15e76:	0f 84 5c 01 00 00    	je     15fd8 <_free_r+0x308>
   15e7c:	0f 1f 40 00          	nop    DWORD PTR [rax+0x0]
   15e80:	48 8b 4e 08          	mov    rcx,QWORD PTR [rsi+0x8]
   15e84:	48 83 e1 fc          	and    rcx,0xfffffffffffffffc
   15e88:	48 39 c1             	cmp    rcx,rax
   15e8b:	76 09                	jbe    15e96 <_free_r+0x1c6>
   15e8d:	48 8b 76 10          	mov    rsi,QWORD PTR [rsi+0x10]
   15e91:	48 39 f7             	cmp    rdi,rsi
   15e94:	75 ea                	jne    15e80 <_free_r+0x1b0>
   15e96:	48 8b 7e 18          	mov    rdi,QWORD PTR [rsi+0x18]
   15e9a:	48 89 7a 18          	mov    QWORD PTR [rdx+0x18],rdi
   15e9e:	48 89 72 10          	mov    QWORD PTR [rdx+0x10],rsi
   15ea2:	48 89 57 10          	mov    QWORD PTR [rdi+0x10],rdx
   15ea6:	48 89 ef             	mov    rdi,rbp
   15ea9:	48 89 56 18          	mov    QWORD PTR [rsi+0x18],rdx
   15ead:	48 83 c4 08          	add    rsp,0x8
   15eb1:	5b                   	pop    rbx
   15eb2:	5d                   	pop    rbp
   15eb3:	e9 b8 01 00 00       	jmp    16070 <__malloc_unlock>
   15eb8:	0f 1f 84 00 00 00 00 	nop    DWORD PTR [rax+rax*1+0x0]
   15ebf:	00 
   15ec0:	48 85 ff             	test   rdi,rdi
   15ec3:	0f 85 82 01 00 00    	jne    1604b <_free_r+0x37b>
   15ec9:	48 01 c1             	add    rcx,rax
   15ecc:	48 8b 46 18          	mov    rax,QWORD PTR [rsi+0x18]
   15ed0:	48 8b 76 10          	mov    rsi,QWORD PTR [rsi+0x10]
   15ed4:	48 89 ef             	mov    rdi,rbp
   15ed7:	48 89 46 18          	mov    QWORD PTR [rsi+0x18],rax
   15edb:	48 89 70 10          	mov    QWORD PTR [rax+0x10],rsi
   15edf:	48 89 c8             	mov    rax,rcx
   15ee2:	48 83 c8 01          	or     rax,0x1
   15ee6:	48 89 42 08          	mov    QWORD PTR [rdx+0x8],rax
   15eea:	48 89 0c 0a          	mov    QWORD PTR [rdx+rcx*1],rcx
   15eee:	48 83 c4 08          	add    rsp,0x8
   15ef2:	5b                   	pop    rbx
   15ef3:	5d                   	pop    rbp
   15ef4:	e9 77 01 00 00       	jmp    16070 <__malloc_unlock>
   15ef9:	0f 1f 80 00 00 00 00 	nop    DWORD PTR [rax+0x0]
   15f00:	48 01 c1             	add    rcx,rax
   15f03:	83 e7 01             	and    edi,0x1
   15f06:	75 1a                	jne    15f22 <_free_r+0x252>
   15f08:	48 8b 43 f0          	mov    rax,QWORD PTR [rbx-0x10]
   15f0c:	48 29 c2             	sub    rdx,rax
   15f0f:	48 01 c1             	add    rcx,rax
   15f12:	48 8b 72 10          	mov    rsi,QWORD PTR [rdx+0x10]
   15f16:	48 8b 42 18          	mov    rax,QWORD PTR [rdx+0x18]
   15f1a:	48 89 46 18          	mov    QWORD PTR [rsi+0x18],rax
   15f1e:	48 89 70 10          	mov    QWORD PTR [rax+0x10],rsi
   15f22:	48 89 c8             	mov    rax,rcx
   15f25:	48 83 c8 01          	or     rax,0x1
   15f29:	48 39 0d 70 e0 00 00 	cmp    QWORD PTR [rip+0xe070],rcx        # 23fa0 <__malloc_trim_threshold>
   15f30:	48 89 42 08          	mov    QWORD PTR [rdx+0x8],rax
   15f34:	48 89 15 95 e0 00 00 	mov    QWORD PTR [rip+0xe095],rdx        # 23fd0 <__malloc_av_+0x10>
   15f3b:	0f 87 79 fe ff ff    	ja     15dba <_free_r+0xea>
   15f41:	48 8b 35 70 49 11 00 	mov    rsi,QWORD PTR [rip+0x114970]        # 12a8b8 <__malloc_top_pad>
   15f48:	48 89 ef             	mov    rdi,rbp
   15f4b:	e8 90 fc ff ff       	call   15be0 <_malloc_trim_r>
   15f50:	e9 65 fe ff ff       	jmp    15dba <_free_r+0xea>
   15f55:	0f 1f 00             	nop    DWORD PTR [rax]
   15f58:	48 83 fe 14          	cmp    rsi,0x14
   15f5c:	76 32                	jbe    15f90 <_free_r+0x2c0>
   15f5e:	48 83 fe 54          	cmp    rsi,0x54
   15f62:	0f 87 88 00 00 00    	ja     15ff0 <_free_r+0x320>
   15f68:	48 89 c6             	mov    rsi,rax
   15f6b:	48 c1 ee 0c          	shr    rsi,0xc
   15f6f:	8d 4e 6e             	lea    ecx,[rsi+0x6e]
   15f72:	8d b4 36 de 00 00 00 	lea    esi,[rsi+rsi*1+0xde]
   15f79:	48 63 f6             	movsxd rsi,esi
   15f7c:	48 c1 e6 03          	shl    rsi,0x3
   15f80:	e9 dd fe ff ff       	jmp    15e62 <_free_r+0x192>
   15f85:	0f 1f 00             	nop    DWORD PTR [rax]
   15f88:	48 01 c8             	add    rax,rcx
   15f8b:	e9 51 fe ff ff       	jmp    15de1 <_free_r+0x111>
   15f90:	8d 4e 5b             	lea    ecx,[rsi+0x5b]
   15f93:	8d b4 36 b8 00 00 00 	lea    esi,[rsi+rsi*1+0xb8]
   15f9a:	48 63 f6             	movsxd rsi,esi
   15f9d:	48 c1 e6 03          	shl    rsi,0x3
   15fa1:	e9 bc fe ff ff       	jmp    15e62 <_free_r+0x192>
   15fa6:	66 2e 0f 1f 84 00 00 	cs nop WORD PTR [rax+rax*1+0x0]
   15fad:	00 00 00 
   15fb0:	48 89 15 31 e0 00 00 	mov    QWORD PTR [rip+0xe031],rdx        # 23fe8 <__malloc_av_+0x28>
   15fb7:	48 89 15 22 e0 00 00 	mov    QWORD PTR [rip+0xe022],rdx        # 23fe0 <__malloc_av_+0x20>
   15fbe:	4c 89 42 18          	mov    QWORD PTR [rdx+0x18],r8
   15fc2:	4c 89 42 10          	mov    QWORD PTR [rdx+0x10],r8
   15fc6:	4c 89 4a 08          	mov    QWORD PTR [rdx+0x8],r9
   15fca:	48 89 07             	mov    QWORD PTR [rdi],rax
   15fcd:	e9 e8 fd ff ff       	jmp    15dba <_free_r+0xea>
   15fd2:	66 0f 1f 44 00 00    	nop    WORD PTR [rax+rax*1+0x0]
   15fd8:	c1 f9 02             	sar    ecx,0x2
   15fdb:	b8 01 00 00 00       	mov    eax,0x1
   15fe0:	48 d3 e0             	shl    rax,cl
   15fe3:	48 09 05 de df 00 00 	or     QWORD PTR [rip+0xdfde],rax        # 23fc8 <__malloc_av_+0x8>
   15fea:	e9 ab fe ff ff       	jmp    15e9a <_free_r+0x1ca>
   15fef:	90                   	nop
   15ff0:	48 81 fe 54 01 00 00 	cmp    rsi,0x154
   15ff7:	77 1d                	ja     16016 <_free_r+0x346>
   15ff9:	48 89 c6             	mov    rsi,rax
   15ffc:	48 c1 ee 0f          	shr    rsi,0xf
   16000:	8d 4e 77             	lea    ecx,[rsi+0x77]
   16003:	8d b4 36 f0 00 00 00 	lea    esi,[rsi+rsi*1+0xf0]
   1600a:	48 63 f6             	movsxd rsi,esi
   1600d:	48 c1 e6 03          	shl    rsi,0x3
   16011:	e9 4c fe ff ff       	jmp    15e62 <_free_r+0x192>
   16016:	48 81 fe 54 05 00 00 	cmp    rsi,0x554
   1601d:	77 1d                	ja     1603c <_free_r+0x36c>
   1601f:	48 89 c6             	mov    rsi,rax
   16022:	48 c1 ee 12          	shr    rsi,0x12
   16026:	8d 4e 7c             	lea    ecx,[rsi+0x7c]
   16029:	8d b4 36 fa 00 00 00 	lea    esi,[rsi+rsi*1+0xfa]
   16030:	48 63 f6             	movsxd rsi,esi
   16033:	48 c1 e6 03          	shl    rsi,0x3
   16037:	e9 26 fe ff ff       	jmp    15e62 <_free_r+0x192>
   1603c:	be f0 07 00 00       	mov    esi,0x7f0
   16041:	b9 7e 00 00 00       	mov    ecx,0x7e
   16046:	e9 17 fe ff ff       	jmp    15e62 <_free_r+0x192>
   1604b:	48 89 c1             	mov    rcx,rax
   1604e:	48 83 c9 01          	or     rcx,0x1
   16052:	48 89 4a 08          	mov    QWORD PTR [rdx+0x8],rcx
   16056:	48 89 06             	mov    QWORD PTR [rsi],rax
   16059:	e9 5c fd ff ff       	jmp    15dba <_free_r+0xea>
   1605e:	cc                   	int3   
   1605f:	cc                   	int3   

0000000000016060 <__malloc_lock>:
   16060:	f3 0f 1e fa          	endbr64 
   16064:	c3                   	ret    
   16065:	66 66 2e 0f 1f 84 00 	data16 cs nop WORD PTR [rax+rax*1+0x0]
   1606c:	00 00 00 00 

0000000000016070 <__malloc_unlock>:
   16070:	f3 0f 1e fa          	endbr64 
   16074:	c3                   	ret    
   16075:	cc                   	int3   
   16076:	cc                   	int3   
   16077:	cc                   	int3   
   16078:	cc                   	int3   
   16079:	cc                   	int3   
   1607a:	cc                   	int3   
   1607b:	cc                   	int3   
   1607c:	cc                   	int3   
   1607d:	cc                   	int3   
   1607e:	cc                   	int3   
   1607f:	cc                   	int3   

0000000000016080 <_malloc_r>:
   16080:	f3 0f 1e fa          	endbr64 
   16084:	41 57                	push   r15
   16086:	41 56                	push   r14
   16088:	41 55                	push   r13
   1608a:	49 89 fd             	mov    r13,rdi
   1608d:	41 54                	push   r12
   1608f:	55                   	push   rbp
   16090:	48 8d 6e 17          	lea    rbp,[rsi+0x17]
   16094:	53                   	push   rbx
   16095:	48 83 ec 28          	sub    rsp,0x28
   16099:	48 83 fd 2e          	cmp    rbp,0x2e
   1609d:	77 79                	ja     16118 <_malloc_r+0x98>
   1609f:	48 83 fe 20          	cmp    rsi,0x20
   160a3:	0f 87 17 01 00 00    	ja     161c0 <_malloc_r+0x140>
   160a9:	e8 b2 ff ff ff       	call   16060 <__malloc_lock>
   160ae:	bd 20 00 00 00       	mov    ebp,0x20
   160b3:	b8 50 00 00 00       	mov    eax,0x50
   160b8:	be 04 00 00 00       	mov    esi,0x4
   160bd:	4c 8d 25 fc de 00 00 	lea    r12,[rip+0xdefc]        # 23fc0 <__malloc_av_>
   160c4:	4c 01 e0             	add    rax,r12
   160c7:	48 8b 58 08          	mov    rbx,QWORD PTR [rax+0x8]
   160cb:	48 8d 50 f0          	lea    rdx,[rax-0x10]
   160cf:	48 39 d3             	cmp    rbx,rdx
   160d2:	0f 84 08 01 00 00    	je     161e0 <_malloc_r+0x160>
   160d8:	48 8b 43 08          	mov    rax,QWORD PTR [rbx+0x8]
   160dc:	48 83 e0 fc          	and    rax,0xfffffffffffffffc
   160e0:	48 8b 53 18          	mov    rdx,QWORD PTR [rbx+0x18]
   160e4:	48 8b 4b 10          	mov    rcx,QWORD PTR [rbx+0x10]
   160e8:	4c 89 ef             	mov    rdi,r13
   160eb:	48 89 51 18          	mov    QWORD PTR [rcx+0x18],rdx
   160ef:	48 89 4a 10          	mov    QWORD PTR [rdx+0x10],rcx
   160f3:	48 83 4c 03 08 01    	or     QWORD PTR [rbx+rax*1+0x8],0x1
   160f9:	e8 72 ff ff ff       	call   16070 <__malloc_unlock>
   160fe:	48 83 c4 28          	add    rsp,0x28
   16102:	48 8d 43 10          	lea    rax,[rbx+0x10]
   16106:	5b                   	pop    rbx
   16107:	5d                   	pop    rbp
   16108:	41 5c                	pop    r12
   1610a:	41 5d                	pop    r13
   1610c:	41 5e                	pop    r14
   1610e:	41 5f                	pop    r15
   16110:	c3                   	ret    
   16111:	0f 1f 80 00 00 00 00 	nop    DWORD PTR [rax+0x0]
   16118:	48 83 e5 f0          	and    rbp,0xfffffffffffffff0
   1611c:	48 81 fd ff ff ff 7f 	cmp    rbp,0x7fffffff
   16123:	0f 87 97 00 00 00    	ja     161c0 <_malloc_r+0x140>
   16129:	48 39 ee             	cmp    rsi,rbp
   1612c:	0f 87 8e 00 00 00    	ja     161c0 <_malloc_r+0x140>
   16132:	e8 29 ff ff ff       	call   16060 <__malloc_lock>
   16137:	48 81 fd f7 01 00 00 	cmp    rbp,0x1f7
   1613e:	0f 86 44 05 00 00    	jbe    16688 <_malloc_r+0x608>
   16144:	48 89 ee             	mov    rsi,rbp
   16147:	48 c1 ee 09          	shr    rsi,0x9
   1614b:	0f 84 1f 03 00 00    	je     16470 <_malloc_r+0x3f0>
   16151:	48 83 fe 04          	cmp    rsi,0x4
   16155:	0f 87 85 04 00 00    	ja     165e0 <_malloc_r+0x560>
   1615b:	48 89 ee             	mov    rsi,rbp
   1615e:	48 c1 ee 06          	shr    rsi,0x6
   16162:	8d 7e 38             	lea    edi,[rsi+0x38]
   16165:	83 c6 39             	add    esi,0x39
   16168:	8d 04 36             	lea    eax,[rsi+rsi*1]
   1616b:	48 98                	cdqe   
   1616d:	48 c1 e0 03          	shl    rax,0x3
   16171:	4c 8d 25 48 de 00 00 	lea    r12,[rip+0xde48]        # 23fc0 <__malloc_av_>
   16178:	4c 01 e0             	add    rax,r12
   1617b:	48 8b 58 08          	mov    rbx,QWORD PTR [rax+0x8]
   1617f:	48 8d 48 f0          	lea    rcx,[rax-0x10]
   16183:	48 39 d9             	cmp    rcx,rbx
   16186:	75 1a                	jne    161a2 <_malloc_r+0x122>
   16188:	eb 66                	jmp    161f0 <_malloc_r+0x170>
   1618a:	66 0f 1f 44 00 00    	nop    WORD PTR [rax+rax*1+0x0]
   16190:	48 85 d2             	test   rdx,rdx
   16193:	0f 89 47 ff ff ff    	jns    160e0 <_malloc_r+0x60>
   16199:	48 8b 5b 18          	mov    rbx,QWORD PTR [rbx+0x18]
   1619d:	48 39 d9             	cmp    rcx,rbx
   161a0:	74 4e                	je     161f0 <_malloc_r+0x170>
   161a2:	48 8b 43 08          	mov    rax,QWORD PTR [rbx+0x8]
   161a6:	48 83 e0 fc          	and    rax,0xfffffffffffffffc
   161aa:	48 89 c2             	mov    rdx,rax
   161ad:	48 29 ea             	sub    rdx,rbp
   161b0:	48 83 fa 1f          	cmp    rdx,0x1f
   161b4:	7e da                	jle    16190 <_malloc_r+0x110>
   161b6:	89 fe                	mov    esi,edi
   161b8:	eb 36                	jmp    161f0 <_malloc_r+0x170>
   161ba:	66 0f 1f 44 00 00    	nop    WORD PTR [rax+rax*1+0x0]
   161c0:	41 c7 45 00 0c 00 00 	mov    DWORD PTR [r13+0x0],0xc
   161c7:	00 
   161c8:	31 c0                	xor    eax,eax
   161ca:	48 83 c4 28          	add    rsp,0x28
   161ce:	5b                   	pop    rbx
   161cf:	5d                   	pop    rbp
   161d0:	41 5c                	pop    r12
   161d2:	41 5d                	pop    r13
   161d4:	41 5e                	pop    r14
   161d6:	41 5f                	pop    r15
   161d8:	c3                   	ret    
   161d9:	0f 1f 80 00 00 00 00 	nop    DWORD PTR [rax+0x0]
   161e0:	48 8b 58 18          	mov    rbx,QWORD PTR [rax+0x18]
   161e4:	48 39 d8             	cmp    rax,rbx
   161e7:	0f 85 eb fe ff ff    	jne    160d8 <_malloc_r+0x58>
   161ed:	83 c6 02             	add    esi,0x2
   161f0:	48 8b 1d e9 dd 00 00 	mov    rbx,QWORD PTR [rip+0xdde9]        # 23fe0 <__malloc_av_+0x20>
   161f7:	4c 8d 0d d2 dd 00 00 	lea    r9,[rip+0xddd2]        # 23fd0 <__malloc_av_+0x10>
   161fe:	4c 8b 05 c3 dd 00 00 	mov    r8,QWORD PTR [rip+0xddc3]        # 23fc8 <__malloc_av_+0x8>
   16205:	4c 39 cb             	cmp    rbx,r9
   16208:	74 7b                	je     16285 <_malloc_r+0x205>
   1620a:	48 8b 43 08          	mov    rax,QWORD PTR [rbx+0x8]
   1620e:	48 83 e0 fc          	and    rax,0xfffffffffffffffc
   16212:	48 89 c2             	mov    rdx,rax
   16215:	48 29 ea             	sub    rdx,rbp
   16218:	48 83 fa 1f          	cmp    rdx,0x1f
   1621c:	0f 8f 7e 04 00 00    	jg     166a0 <_malloc_r+0x620>
   16222:	4c 89 0d bf dd 00 00 	mov    QWORD PTR [rip+0xddbf],r9        # 23fe8 <__malloc_av_+0x28>
   16229:	4c 89 0d b0 dd 00 00 	mov    QWORD PTR [rip+0xddb0],r9        # 23fe0 <__malloc_av_+0x20>
   16230:	48 85 d2             	test   rdx,rdx
   16233:	0f 89 c7 02 00 00    	jns    16500 <_malloc_r+0x480>
   16239:	48 3d ff 01 00 00    	cmp    rax,0x1ff
   1623f:	0f 87 1b 03 00 00    	ja     16560 <_malloc_r+0x4e0>
   16245:	48 c1 e8 03          	shr    rax,0x3
   16249:	41 b8 01 00 00 00    	mov    r8d,0x1
   1624f:	89 c1                	mov    ecx,eax
   16251:	8d 44 00 02          	lea    eax,[rax+rax*1+0x2]
   16255:	48 98                	cdqe   
   16257:	c1 f9 02             	sar    ecx,0x2
   1625a:	49 8d 04 c4          	lea    rax,[r12+rax*8]
   1625e:	49 d3 e0             	shl    r8,cl
   16261:	4c 0b 05 60 dd 00 00 	or     r8,QWORD PTR [rip+0xdd60]        # 23fc8 <__malloc_av_+0x8>
   16268:	48 8b 10             	mov    rdx,QWORD PTR [rax]
   1626b:	48 8d 48 f0          	lea    rcx,[rax-0x10]
   1626f:	4c 89 05 52 dd 00 00 	mov    QWORD PTR [rip+0xdd52],r8        # 23fc8 <__malloc_av_+0x8>
   16276:	48 89 4b 18          	mov    QWORD PTR [rbx+0x18],rcx
   1627a:	48 89 53 10          	mov    QWORD PTR [rbx+0x10],rdx
   1627e:	48 89 18             	mov    QWORD PTR [rax],rbx
   16281:	48 89 5a 18          	mov    QWORD PTR [rdx+0x18],rbx
   16285:	89 f1                	mov    ecx,esi
   16287:	bf 01 00 00 00       	mov    edi,0x1
   1628c:	c1 f9 02             	sar    ecx,0x2
   1628f:	48 d3 e7             	shl    rdi,cl
   16292:	4c 39 c7             	cmp    rdi,r8
   16295:	0f 86 ed 01 00 00    	jbe    16488 <_malloc_r+0x408>
   1629b:	48 8b 1d 2e dd 00 00 	mov    rbx,QWORD PTR [rip+0xdd2e]        # 23fd0 <__malloc_av_+0x10>
   162a2:	4c 8b 7b 08          	mov    r15,QWORD PTR [rbx+0x8]
   162a6:	49 83 e7 fc          	and    r15,0xfffffffffffffffc
   162aa:	4c 89 f8             	mov    rax,r15
   162ad:	48 29 e8             	sub    rax,rbp
   162b0:	48 83 f8 1f          	cmp    rax,0x1f
   162b4:	7e 09                	jle    162bf <_malloc_r+0x23f>
   162b6:	4c 39 fd             	cmp    rbp,r15
   162b9:	0f 86 61 02 00 00    	jbe    16520 <_malloc_r+0x4a0>
   162bf:	48 8b 05 f2 45 11 00 	mov    rax,QWORD PTR [rip+0x1145f2]        # 12a8b8 <__malloc_top_pad>
   162c6:	4a 8d 0c 3b          	lea    rcx,[rbx+r15*1]
   162ca:	48 01 e8             	add    rax,rbp
   162cd:	4c 8d b0 1f 10 00 00 	lea    r14,[rax+0x101f]
   162d4:	49 81 e6 00 f0 ff ff 	and    r14,0xfffffffffffff000
   162db:	48 83 3d b5 dc 00 00 	cmp    QWORD PTR [rip+0xdcb5],0xffffffffffffffff        # 23f98 <__malloc_sbrk_base>
   162e2:	ff 
   162e3:	0f 84 ce 04 00 00    	je     167b7 <_malloc_r+0x737>
   162e9:	4c 89 f6             	mov    rsi,r14
   162ec:	4c 89 ef             	mov    rdi,r13
   162ef:	48 89 4c 24 08       	mov    QWORD PTR [rsp+0x8],rcx
   162f4:	e8 67 06 00 00       	call   16960 <_sbrk_r>
   162f9:	48 8b 4c 24 08       	mov    rcx,QWORD PTR [rsp+0x8]
   162fe:	48 83 f8 ff          	cmp    rax,0xffffffffffffffff
   16302:	48 89 c2             	mov    rdx,rax
   16305:	0f 84 6d 04 00 00    	je     16778 <_malloc_r+0x6f8>
   1630b:	4c 39 e3             	cmp    rbx,r12
   1630e:	74 09                	je     16319 <_malloc_r+0x299>
   16310:	48 39 c1             	cmp    rcx,rax
   16313:	0f 87 5f 04 00 00    	ja     16778 <_malloc_r+0x6f8>
   16319:	8b 35 61 45 11 00    	mov    esi,DWORD PTR [rip+0x114561]        # 12a880 <__malloc_current_mallinfo>
   1631f:	44 01 f6             	add    esi,r14d
   16322:	89 35 58 45 11 00    	mov    DWORD PTR [rip+0x114558],esi        # 12a880 <__malloc_current_mallinfo>
   16328:	89 f0                	mov    eax,esi
   1632a:	48 39 d1             	cmp    rcx,rdx
   1632d:	0f 84 55 04 00 00    	je     16788 <_malloc_r+0x708>
   16333:	48 83 3d 5d dc 00 00 	cmp    QWORD PTR [rip+0xdc5d],0xffffffffffffffff        # 23f98 <__malloc_sbrk_base>
   1633a:	ff 
   1633b:	0f 84 6a 04 00 00    	je     167ab <_malloc_r+0x72b>
   16341:	48 89 d0             	mov    rax,rdx
   16344:	48 29 c8             	sub    rax,rcx
   16347:	01 c6                	add    esi,eax
   16349:	89 35 31 45 11 00    	mov    DWORD PTR [rip+0x114531],esi        # 12a880 <__malloc_current_mallinfo>
   1634f:	48 89 d1             	mov    rcx,rdx
   16352:	83 e1 0f             	and    ecx,0xf
   16355:	0f 84 84 04 00 00    	je     167df <_malloc_r+0x75f>
   1635b:	48 29 ca             	sub    rdx,rcx
   1635e:	4c 89 ef             	mov    rdi,r13
   16361:	48 89 4c 24 10       	mov    QWORD PTR [rsp+0x10],rcx
   16366:	48 83 c2 10          	add    rdx,0x10
   1636a:	4e 8d 04 32          	lea    r8,[rdx+r14*1]
   1636e:	41 be 10 10 00 00    	mov    r14d,0x1010
   16374:	48 89 54 24 18       	mov    QWORD PTR [rsp+0x18],rdx
   16379:	49 29 ce             	sub    r14,rcx
   1637c:	4c 89 44 24 08       	mov    QWORD PTR [rsp+0x8],r8
   16381:	4d 29 c6             	sub    r14,r8
   16384:	41 81 e6 ff 0f 00 00 	and    r14d,0xfff
   1638b:	4c 89 f6             	mov    rsi,r14
   1638e:	e8 cd 05 00 00       	call   16960 <_sbrk_r>
   16393:	4c 8b 44 24 08       	mov    r8,QWORD PTR [rsp+0x8]
   16398:	48 8b 4c 24 10       	mov    rcx,QWORD PTR [rsp+0x10]
   1639d:	48 83 f8 ff          	cmp    rax,0xffffffffffffffff
   163a1:	48 8b 54 24 18       	mov    rdx,QWORD PTR [rsp+0x18]
   163a6:	48 89 c6             	mov    rsi,rax
   163a9:	0f 84 41 05 00 00    	je     168f0 <_malloc_r+0x870>
   163af:	48 29 d6             	sub    rsi,rdx
   163b2:	44 89 f0             	mov    eax,r14d
   163b5:	49 01 f6             	add    r14,rsi
   163b8:	03 05 c2 44 11 00    	add    eax,DWORD PTR [rip+0x1144c2]        # 12a880 <__malloc_current_mallinfo>
   163be:	49 83 ce 01          	or     r14,0x1
   163c2:	48 89 15 07 dc 00 00 	mov    QWORD PTR [rip+0xdc07],rdx        # 23fd0 <__malloc_av_+0x10>
   163c9:	89 05 b1 44 11 00    	mov    DWORD PTR [rip+0x1144b1],eax        # 12a880 <__malloc_current_mallinfo>
   163cf:	4c 89 72 08          	mov    QWORD PTR [rdx+0x8],r14
   163d3:	4c 39 e3             	cmp    rbx,r12
   163d6:	0f 84 93 04 00 00    	je     1686f <_malloc_r+0x7ef>
   163dc:	49 83 ff 1f          	cmp    r15,0x1f
   163e0:	0f 86 91 04 00 00    	jbe    16877 <_malloc_r+0x7f7>
   163e6:	48 8b 4b 08          	mov    rcx,QWORD PTR [rbx+0x8]
   163ea:	49 83 ef 18          	sub    r15,0x18
   163ee:	49 83 e7 f0          	and    r15,0xfffffffffffffff0
   163f2:	83 e1 01             	and    ecx,0x1
   163f5:	4c 09 f9             	or     rcx,r15
   163f8:	48 89 4b 08          	mov    QWORD PTR [rbx+0x8],rcx
   163fc:	4a c7 44 3b 08 09 00 	mov    QWORD PTR [rbx+r15*1+0x8],0x9
   16403:	00 00 
   16405:	4a c7 44 3b 10 09 00 	mov    QWORD PTR [rbx+r15*1+0x10],0x9
   1640c:	00 00 
   1640e:	49 83 ff 1f          	cmp    r15,0x1f
   16412:	0f 87 b6 04 00 00    	ja     168ce <_malloc_r+0x84e>
   16418:	4c 8b 72 08          	mov    r14,QWORD PTR [rdx+0x8]
   1641c:	48 89 d3             	mov    rbx,rdx
   1641f:	48 98                	cdqe   
   16421:	48 3b 05 88 44 11 00 	cmp    rax,QWORD PTR [rip+0x114488]        # 12a8b0 <__malloc_max_sbrked_mem>
   16428:	76 07                	jbe    16431 <_malloc_r+0x3b1>
   1642a:	48 89 05 7f 44 11 00 	mov    QWORD PTR [rip+0x11447f],rax        # 12a8b0 <__malloc_max_sbrked_mem>
   16431:	48 3b 05 70 44 11 00 	cmp    rax,QWORD PTR [rip+0x114470]        # 12a8a8 <__malloc_max_total_mem>
   16438:	76 07                	jbe    16441 <_malloc_r+0x3c1>
   1643a:	48 89 05 67 44 11 00 	mov    QWORD PTR [rip+0x114467],rax        # 12a8a8 <__malloc_max_total_mem>
   16441:	49 83 e6 fc          	and    r14,0xfffffffffffffffc
   16445:	4c 89 f0             	mov    rax,r14
   16448:	48 29 e8             	sub    rax,rbp
   1644b:	4c 39 f5             	cmp    rbp,r14
   1644e:	77 0a                	ja     1645a <_malloc_r+0x3da>
   16450:	48 83 f8 1f          	cmp    rax,0x1f
   16454:	0f 8f c6 00 00 00    	jg     16520 <_malloc_r+0x4a0>
   1645a:	4c 89 ef             	mov    rdi,r13
   1645d:	e8 0e fc ff ff       	call   16070 <__malloc_unlock>
   16462:	31 c0                	xor    eax,eax
   16464:	e9 61 fd ff ff       	jmp    161ca <_malloc_r+0x14a>
   16469:	0f 1f 80 00 00 00 00 	nop    DWORD PTR [rax+0x0]
   16470:	b8 00 04 00 00       	mov    eax,0x400
   16475:	be 40 00 00 00       	mov    esi,0x40
   1647a:	bf 3f 00 00 00       	mov    edi,0x3f
   1647f:	e9 ed fc ff ff       	jmp    16171 <_malloc_r+0xf1>
   16484:	0f 1f 40 00          	nop    DWORD PTR [rax+0x0]
   16488:	4c 85 c7             	test   rdi,r8
   1648b:	75 0e                	jne    1649b <_malloc_r+0x41b>
   1648d:	83 e6 fc             	and    esi,0xfffffffc
   16490:	48 01 ff             	add    rdi,rdi
   16493:	83 c6 04             	add    esi,0x4
   16496:	4c 85 c7             	test   rdi,r8
   16499:	74 f5                	je     16490 <_malloc_r+0x410>
   1649b:	8d 44 36 02          	lea    eax,[rsi+rsi*1+0x2]
   1649f:	41 89 f2             	mov    r10d,esi
   164a2:	48 98                	cdqe   
   164a4:	4d 8d 5c c4 f0       	lea    r11,[r12+rax*8-0x10]
   164a9:	4d 89 d8             	mov    r8,r11
   164ac:	49 8b 40 18          	mov    rax,QWORD PTR [r8+0x18]
   164b0:	eb 2e                	jmp    164e0 <_malloc_r+0x460>
   164b2:	66 0f 1f 44 00 00    	nop    WORD PTR [rax+rax*1+0x0]
   164b8:	48 8b 50 08          	mov    rdx,QWORD PTR [rax+0x8]
   164bc:	48 89 c3             	mov    rbx,rax
   164bf:	48 8b 40 18          	mov    rax,QWORD PTR [rax+0x18]
   164c3:	48 83 e2 fc          	and    rdx,0xfffffffffffffffc
   164c7:	48 89 d1             	mov    rcx,rdx
   164ca:	48 29 e9             	sub    rcx,rbp
   164cd:	48 83 f9 1f          	cmp    rcx,0x1f
   164d1:	0f 8f 39 01 00 00    	jg     16610 <_malloc_r+0x590>
   164d7:	48 85 c9             	test   rcx,rcx
   164da:	0f 89 80 01 00 00    	jns    16660 <_malloc_r+0x5e0>
   164e0:	49 39 c0             	cmp    r8,rax
   164e3:	75 d3                	jne    164b8 <_malloc_r+0x438>
   164e5:	41 83 c2 01          	add    r10d,0x1
   164e9:	49 83 c0 10          	add    r8,0x10
   164ed:	41 f6 c2 03          	test   r10b,0x3
   164f1:	75 b9                	jne    164ac <_malloc_r+0x42c>
   164f3:	e9 35 02 00 00       	jmp    1672d <_malloc_r+0x6ad>
   164f8:	0f 1f 84 00 00 00 00 	nop    DWORD PTR [rax+rax*1+0x0]
   164ff:	00 
   16500:	48 83 4c 03 08 01    	or     QWORD PTR [rbx+rax*1+0x8],0x1
   16506:	4c 89 ef             	mov    rdi,r13
   16509:	e8 62 fb ff ff       	call   16070 <__malloc_unlock>
   1650e:	48 8d 43 10          	lea    rax,[rbx+0x10]
   16512:	e9 b3 fc ff ff       	jmp    161ca <_malloc_r+0x14a>
   16517:	66 0f 1f 84 00 00 00 	nop    WORD PTR [rax+rax*1+0x0]
   1651e:	00 00 
   16520:	48 89 ea             	mov    rdx,rbp
   16523:	48 83 c8 01          	or     rax,0x1
   16527:	48 01 dd             	add    rbp,rbx
   1652a:	4c 89 ef             	mov    rdi,r13
   1652d:	48 83 ca 01          	or     rdx,0x1
   16531:	48 89 53 08          	mov    QWORD PTR [rbx+0x8],rdx
   16535:	48 89 2d 94 da 00 00 	mov    QWORD PTR [rip+0xda94],rbp        # 23fd0 <__malloc_av_+0x10>
   1653c:	48 89 45 08          	mov    QWORD PTR [rbp+0x8],rax
   16540:	e8 2b fb ff ff       	call   16070 <__malloc_unlock>
   16545:	48 83 c4 28          	add    rsp,0x28
   16549:	48 8d 43 10          	lea    rax,[rbx+0x10]
   1654d:	5b                   	pop    rbx
   1654e:	5d                   	pop    rbp
   1654f:	41 5c                	pop    r12
   16551:	41 5d                	pop    r13
   16553:	41 5e                	pop    r14
   16555:	41 5f                	pop    r15
   16557:	c3                   	ret    
   16558:	0f 1f 84 00 00 00 00 	nop    DWORD PTR [rax+rax*1+0x0]
   1655f:	00 
   16560:	48 89 c2             	mov    rdx,rax
   16563:	48 c1 ea 09          	shr    rdx,0x9
   16567:	48 3d ff 09 00 00    	cmp    rax,0x9ff
   1656d:	0f 86 75 01 00 00    	jbe    166e8 <_malloc_r+0x668>
   16573:	48 83 fa 14          	cmp    rdx,0x14
   16577:	0f 87 ab 02 00 00    	ja     16828 <_malloc_r+0x7a8>
   1657d:	8d 4a 5b             	lea    ecx,[rdx+0x5b]
   16580:	8d 94 12 b8 00 00 00 	lea    edx,[rdx+rdx*1+0xb8]
   16587:	48 63 d2             	movsxd rdx,edx
   1658a:	48 c1 e2 03          	shl    rdx,0x3
   1658e:	4c 01 e2             	add    rdx,r12
   16591:	48 8d 7a f0          	lea    rdi,[rdx-0x10]
   16595:	48 8b 12             	mov    rdx,QWORD PTR [rdx]
   16598:	48 39 d7             	cmp    rdi,rdx
   1659b:	0f 84 1f 02 00 00    	je     167c0 <_malloc_r+0x740>
   165a1:	0f 1f 80 00 00 00 00 	nop    DWORD PTR [rax+0x0]
   165a8:	48 8b 4a 08          	mov    rcx,QWORD PTR [rdx+0x8]
   165ac:	48 83 e1 fc          	and    rcx,0xfffffffffffffffc
   165b0:	48 39 c1             	cmp    rcx,rax
   165b3:	76 09                	jbe    165be <_malloc_r+0x53e>
   165b5:	48 8b 52 10          	mov    rdx,QWORD PTR [rdx+0x10]
   165b9:	48 39 d7             	cmp    rdi,rdx
   165bc:	75 ea                	jne    165a8 <_malloc_r+0x528>
   165be:	48 8b 7a 18          	mov    rdi,QWORD PTR [rdx+0x18]
   165c2:	4c 8b 05 ff d9 00 00 	mov    r8,QWORD PTR [rip+0xd9ff]        # 23fc8 <__malloc_av_+0x8>
   165c9:	48 89 7b 18          	mov    QWORD PTR [rbx+0x18],rdi
   165cd:	48 89 53 10          	mov    QWORD PTR [rbx+0x10],rdx
   165d1:	48 89 5f 10          	mov    QWORD PTR [rdi+0x10],rbx
   165d5:	48 89 5a 18          	mov    QWORD PTR [rdx+0x18],rbx
   165d9:	e9 a7 fc ff ff       	jmp    16285 <_malloc_r+0x205>
   165de:	66 90                	xchg   ax,ax
   165e0:	48 83 fe 14          	cmp    rsi,0x14
   165e4:	0f 86 1e 01 00 00    	jbe    16708 <_malloc_r+0x688>
   165ea:	48 83 fe 54          	cmp    rsi,0x54
   165ee:	0f 87 57 02 00 00    	ja     1684b <_malloc_r+0x7cb>
   165f4:	48 89 ee             	mov    rsi,rbp
   165f7:	48 c1 ee 0c          	shr    rsi,0xc
   165fb:	8d 7e 6e             	lea    edi,[rsi+0x6e]
   165fe:	83 c6 6f             	add    esi,0x6f
   16601:	8d 04 36             	lea    eax,[rsi+rsi*1]
   16604:	48 98                	cdqe   
   16606:	48 c1 e0 03          	shl    rax,0x3
   1660a:	e9 62 fb ff ff       	jmp    16171 <_malloc_r+0xf1>
   1660f:	90                   	nop
   16610:	48 8b 7b 10          	mov    rdi,QWORD PTR [rbx+0x10]
   16614:	48 8d 34 2b          	lea    rsi,[rbx+rbp*1]
   16618:	48 83 cd 01          	or     rbp,0x1
   1661c:	48 89 6b 08          	mov    QWORD PTR [rbx+0x8],rbp
   16620:	48 89 47 18          	mov    QWORD PTR [rdi+0x18],rax
   16624:	48 89 78 10          	mov    QWORD PTR [rax+0x10],rdi
   16628:	48 89 c8             	mov    rax,rcx
   1662b:	4c 89 ef             	mov    rdi,r13
   1662e:	48 83 c8 01          	or     rax,0x1
   16632:	48 89 35 af d9 00 00 	mov    QWORD PTR [rip+0xd9af],rsi        # 23fe8 <__malloc_av_+0x28>
   16639:	48 89 35 a0 d9 00 00 	mov    QWORD PTR [rip+0xd9a0],rsi        # 23fe0 <__malloc_av_+0x20>
   16640:	48 89 46 08          	mov    QWORD PTR [rsi+0x8],rax
   16644:	4c 89 4e 18          	mov    QWORD PTR [rsi+0x18],r9
   16648:	4c 89 4e 10          	mov    QWORD PTR [rsi+0x10],r9
   1664c:	48 89 0c 13          	mov    QWORD PTR [rbx+rdx*1],rcx
   16650:	e8 1b fa ff ff       	call   16070 <__malloc_unlock>
   16655:	48 8d 43 10          	lea    rax,[rbx+0x10]
   16659:	e9 6c fb ff ff       	jmp    161ca <_malloc_r+0x14a>
   1665e:	66 90                	xchg   ax,ax
   16660:	48 83 4c 13 08 01    	or     QWORD PTR [rbx+rdx*1+0x8],0x1
   16666:	48 8b 53 10          	mov    rdx,QWORD PTR [rbx+0x10]
   1666a:	4c 89 ef             	mov    rdi,r13
   1666d:	48 89 42 18          	mov    QWORD PTR [rdx+0x18],rax
   16671:	48 89 50 10          	mov    QWORD PTR [rax+0x10],rdx
   16675:	e8 f6 f9 ff ff       	call   16070 <__malloc_unlock>
   1667a:	48 8d 43 10          	lea    rax,[rbx+0x10]
   1667e:	e9 47 fb ff ff       	jmp    161ca <_malloc_r+0x14a>
   16683:	0f 1f 44 00 00       	nop    DWORD PTR [rax+rax*1+0x0]
   16688:	48 89 e8             	mov    rax,rbp
   1668b:	48 c1 e8 03          	shr    rax,0x3
   1668f:	89 c6                	mov    esi,eax
   16691:	8d 44 00 02          	lea    eax,[rax+rax*1+0x2]
   16695:	48 98                	cdqe   
   16697:	48 c1 e0 03          	shl    rax,0x3
   1669b:	e9 1d fa ff ff       	jmp    160bd <_malloc_r+0x3d>
   166a0:	48 89 d6             	mov    rsi,rdx
   166a3:	48 8d 0c 2b          	lea    rcx,[rbx+rbp*1]
   166a7:	48 83 cd 01          	or     rbp,0x1
   166ab:	4c 89 ef             	mov    rdi,r13
   166ae:	48 83 ce 01          	or     rsi,0x1
   166b2:	48 89 6b 08          	mov    QWORD PTR [rbx+0x8],rbp
   166b6:	48 89 0d 2b d9 00 00 	mov    QWORD PTR [rip+0xd92b],rcx        # 23fe8 <__malloc_av_+0x28>
   166bd:	48 89 0d 1c d9 00 00 	mov    QWORD PTR [rip+0xd91c],rcx        # 23fe0 <__malloc_av_+0x20>
   166c4:	4c 89 49 18          	mov    QWORD PTR [rcx+0x18],r9
   166c8:	4c 89 49 10          	mov    QWORD PTR [rcx+0x10],r9
   166cc:	48 89 71 08          	mov    QWORD PTR [rcx+0x8],rsi
   166d0:	48 89 14 03          	mov    QWORD PTR [rbx+rax*1],rdx
   166d4:	e8 97 f9 ff ff       	call   16070 <__malloc_unlock>
   166d9:	48 8d 43 10          	lea    rax,[rbx+0x10]
   166dd:	e9 e8 fa ff ff       	jmp    161ca <_malloc_r+0x14a>
   166e2:	66 0f 1f 44 00 00    	nop    WORD PTR [rax+rax*1+0x0]
   166e8:	48 89 c2             	mov    rdx,rax
   166eb:	48 c1 ea 06          	shr    rdx,0x6
   166ef:	8d 4a 38             	lea    ecx,[rdx+0x38]
   166f2:	8d 54 12 72          	lea    edx,[rdx+rdx*1+0x72]
   166f6:	48 63 d2             	movsxd rdx,edx
   166f9:	48 c1 e2 03          	shl    rdx,0x3
   166fd:	e9 8c fe ff ff       	jmp    1658e <_malloc_r+0x50e>
   16702:	66 0f 1f 44 00 00    	nop    WORD PTR [rax+rax*1+0x0]
   16708:	8d 7e 5b             	lea    edi,[rsi+0x5b]
   1670b:	83 c6 5c             	add    esi,0x5c
   1670e:	8d 04 36             	lea    eax,[rsi+rsi*1]
   16711:	48 98                	cdqe   
   16713:	48 c1 e0 03          	shl    rax,0x3
   16717:	e9 55 fa ff ff       	jmp    16171 <_malloc_r+0xf1>
   1671c:	49 83 eb 10          	sub    r11,0x10
   16720:	83 ee 01             	sub    esi,0x1
   16723:	4d 39 5b 10          	cmp    QWORD PTR [r11+0x10],r11
   16727:	0f 85 1b 02 00 00    	jne    16948 <_malloc_r+0x8c8>
   1672d:	40 f6 c6 03          	test   sil,0x3
   16731:	75 e9                	jne    1671c <_malloc_r+0x69c>
   16733:	48 89 f8             	mov    rax,rdi
   16736:	48 f7 d0             	not    rax
   16739:	48 23 05 88 d8 00 00 	and    rax,QWORD PTR [rip+0xd888]        # 23fc8 <__malloc_av_+0x8>
   16740:	48 89 05 81 d8 00 00 	mov    QWORD PTR [rip+0xd881],rax        # 23fc8 <__malloc_av_+0x8>
   16747:	48 01 ff             	add    rdi,rdi
   1674a:	48 8d 57 ff          	lea    rdx,[rdi-0x1]
   1674e:	48 39 c2             	cmp    rdx,rax
   16751:	72 14                	jb     16767 <_malloc_r+0x6e7>
   16753:	e9 43 fb ff ff       	jmp    1629b <_malloc_r+0x21b>
   16758:	0f 1f 84 00 00 00 00 	nop    DWORD PTR [rax+rax*1+0x0]
   1675f:	00 
   16760:	41 83 c2 04          	add    r10d,0x4
   16764:	48 01 ff             	add    rdi,rdi
   16767:	48 85 c7             	test   rdi,rax
   1676a:	74 f4                	je     16760 <_malloc_r+0x6e0>
   1676c:	44 89 d6             	mov    esi,r10d
   1676f:	e9 27 fd ff ff       	jmp    1649b <_malloc_r+0x41b>
   16774:	0f 1f 40 00          	nop    DWORD PTR [rax+0x0]
   16778:	48 8b 1d 51 d8 00 00 	mov    rbx,QWORD PTR [rip+0xd851]        # 23fd0 <__malloc_av_+0x10>
   1677f:	4c 8b 73 08          	mov    r14,QWORD PTR [rbx+0x8]
   16783:	e9 b9 fc ff ff       	jmp    16441 <_malloc_r+0x3c1>
   16788:	f7 c1 ff 0f 00 00    	test   ecx,0xfff
   1678e:	0f 85 9f fb ff ff    	jne    16333 <_malloc_r+0x2b3>
   16794:	48 8b 1d 35 d8 00 00 	mov    rbx,QWORD PTR [rip+0xd835]        # 23fd0 <__malloc_av_+0x10>
   1679b:	4d 01 fe             	add    r14,r15
   1679e:	49 83 ce 01          	or     r14,0x1
   167a2:	4c 89 73 08          	mov    QWORD PTR [rbx+0x8],r14
   167a6:	e9 74 fc ff ff       	jmp    1641f <_malloc_r+0x39f>
   167ab:	48 89 15 e6 d7 00 00 	mov    QWORD PTR [rip+0xd7e6],rdx        # 23f98 <__malloc_sbrk_base>
   167b2:	e9 98 fb ff ff       	jmp    1634f <_malloc_r+0x2cf>
   167b7:	4c 8d 70 20          	lea    r14,[rax+0x20]
   167bb:	e9 29 fb ff ff       	jmp    162e9 <_malloc_r+0x269>
   167c0:	c1 f9 02             	sar    ecx,0x2
   167c3:	41 b8 01 00 00 00    	mov    r8d,0x1
   167c9:	49 d3 e0             	shl    r8,cl
   167cc:	4c 0b 05 f5 d7 00 00 	or     r8,QWORD PTR [rip+0xd7f5]        # 23fc8 <__malloc_av_+0x8>
   167d3:	4c 89 05 ee d7 00 00 	mov    QWORD PTR [rip+0xd7ee],r8        # 23fc8 <__malloc_av_+0x8>
   167da:	e9 ea fd ff ff       	jmp    165c9 <_malloc_r+0x549>
   167df:	4a 8d 0c 32          	lea    rcx,[rdx+r14*1]
   167e3:	4c 89 ef             	mov    rdi,r13
   167e6:	48 89 54 24 08       	mov    QWORD PTR [rsp+0x8],rdx
   167eb:	48 f7 d9             	neg    rcx
   167ee:	81 e1 ff 0f 00 00    	and    ecx,0xfff
   167f4:	48 89 ce             	mov    rsi,rcx
   167f7:	48 89 4c 24 10       	mov    QWORD PTR [rsp+0x10],rcx
   167fc:	e8 5f 01 00 00       	call   16960 <_sbrk_r>
   16801:	48 8b 54 24 08       	mov    rdx,QWORD PTR [rsp+0x8]
   16806:	48 89 c6             	mov    rsi,rax
   16809:	31 c0                	xor    eax,eax
   1680b:	48 83 fe ff          	cmp    rsi,0xffffffffffffffff
   1680f:	0f 84 a3 fb ff ff    	je     163b8 <_malloc_r+0x338>
   16815:	48 8b 4c 24 10       	mov    rcx,QWORD PTR [rsp+0x10]
   1681a:	48 29 d6             	sub    rsi,rdx
   1681d:	89 c8                	mov    eax,ecx
   1681f:	4c 8d 34 0e          	lea    r14,[rsi+rcx*1]
   16823:	e9 90 fb ff ff       	jmp    163b8 <_malloc_r+0x338>
   16828:	48 83 fa 54          	cmp    rdx,0x54
   1682c:	77 56                	ja     16884 <_malloc_r+0x804>
   1682e:	48 89 c2             	mov    rdx,rax
   16831:	48 c1 ea 0c          	shr    rdx,0xc
   16835:	8d 4a 6e             	lea    ecx,[rdx+0x6e]
   16838:	8d 94 12 de 00 00 00 	lea    edx,[rdx+rdx*1+0xde]
   1683f:	48 63 d2             	movsxd rdx,edx
   16842:	48 c1 e2 03          	shl    rdx,0x3
   16846:	e9 43 fd ff ff       	jmp    1658e <_malloc_r+0x50e>
   1684b:	48 81 fe 54 01 00 00 	cmp    rsi,0x154
   16852:	77 56                	ja     168aa <_malloc_r+0x82a>
   16854:	48 89 ee             	mov    rsi,rbp
   16857:	48 c1 ee 0f          	shr    rsi,0xf
   1685b:	8d 7e 77             	lea    edi,[rsi+0x77]
   1685e:	83 c6 78             	add    esi,0x78
   16861:	8d 04 36             	lea    eax,[rsi+rsi*1]
   16864:	48 98                	cdqe   
   16866:	48 c1 e0 03          	shl    rax,0x3
   1686a:	e9 02 f9 ff ff       	jmp    16171 <_malloc_r+0xf1>
   1686f:	48 89 d3             	mov    rbx,rdx
   16872:	e9 a8 fb ff ff       	jmp    1641f <_malloc_r+0x39f>
   16877:	48 c7 42 08 01 00 00 	mov    QWORD PTR [rdx+0x8],0x1
   1687e:	00 
   1687f:	e9 d6 fb ff ff       	jmp    1645a <_malloc_r+0x3da>
   16884:	48 81 fa 54 01 00 00 	cmp    rdx,0x154
   1688b:	77 72                	ja     168ff <_malloc_r+0x87f>
   1688d:	48 89 c2             	mov    rdx,rax
   16890:	48 c1 ea 0f          	shr    rdx,0xf
   16894:	8d 4a 77             	lea    ecx,[rdx+0x77]
   16897:	8d 94 12 f0 00 00 00 	lea    edx,[rdx+rdx*1+0xf0]
   1689e:	48 63 d2             	movsxd rdx,edx
   168a1:	48 c1 e2 03          	shl    rdx,0x3
   168a5:	e9 e4 fc ff ff       	jmp    1658e <_malloc_r+0x50e>
   168aa:	48 81 fe 54 05 00 00 	cmp    rsi,0x554
   168b1:	77 72                	ja     16925 <_malloc_r+0x8a5>
   168b3:	48 89 ee             	mov    rsi,rbp
   168b6:	48 c1 ee 12          	shr    rsi,0x12
   168ba:	8d 7e 7c             	lea    edi,[rsi+0x7c]
   168bd:	83 c6 7d             	add    esi,0x7d
   168c0:	8d 04 36             	lea    eax,[rsi+rsi*1]
   168c3:	48 98                	cdqe   
   168c5:	48 c1 e0 03          	shl    rax,0x3
   168c9:	e9 a3 f8 ff ff       	jmp    16171 <_malloc_r+0xf1>
   168ce:	48 8d 73 10          	lea    rsi,[rbx+0x10]
   168d2:	4c 89 ef             	mov    rdi,r13
   168d5:	e8 f6 f3 ff ff       	call   15cd0 <_free_r>
   168da:	48 8b 1d ef d6 00 00 	mov    rbx,QWORD PTR [rip+0xd6ef]        # 23fd0 <__malloc_av_+0x10>
   168e1:	8b 05 99 3f 11 00    	mov    eax,DWORD PTR [rip+0x113f99]        # 12a880 <__malloc_current_mallinfo>
   168e7:	4c 8b 73 08          	mov    r14,QWORD PTR [rbx+0x8]
   168eb:	e9 2f fb ff ff       	jmp    1641f <_malloc_r+0x39f>
   168f0:	4d 8d 74 08 f0       	lea    r14,[r8+rcx*1-0x10]
   168f5:	31 c0                	xor    eax,eax
   168f7:	49 29 d6             	sub    r14,rdx
   168fa:	e9 b9 fa ff ff       	jmp    163b8 <_malloc_r+0x338>
   168ff:	48 81 fa 54 05 00 00 	cmp    rdx,0x554
   16906:	77 31                	ja     16939 <_malloc_r+0x8b9>
   16908:	48 89 c2             	mov    rdx,rax
   1690b:	48 c1 ea 12          	shr    rdx,0x12
   1690f:	8d 4a 7c             	lea    ecx,[rdx+0x7c]
   16912:	8d 94 12 fa 00 00 00 	lea    edx,[rdx+rdx*1+0xfa]
   16919:	48 63 d2             	movsxd rdx,edx
   1691c:	48 c1 e2 03          	shl    rdx,0x3
   16920:	e9 69 fc ff ff       	jmp    1658e <_malloc_r+0x50e>
   16925:	b8 f0 07 00 00       	mov    eax,0x7f0
   1692a:	be 7f 00 00 00       	mov    esi,0x7f
   1692f:	bf 7e 00 00 00       	mov    edi,0x7e
   16934:	e9 38 f8 ff ff       	jmp    16171 <_malloc_r+0xf1>
   16939:	ba f0 07 00 00       	mov    edx,0x7f0
   1693e:	b9 7e 00 00 00       	mov    ecx,0x7e
   16943:	e9 46 fc ff ff       	jmp    1658e <_malloc_r+0x50e>
   16948:	48 8b 05 79 d6 00 00 	mov    rax,QWORD PTR [rip+0xd679]        # 23fc8 <__malloc_av_+0x8>
   1694f:	e9 f3 fd ff ff       	jmp    16747 <_malloc_r+0x6c7>
   16954:	cc                   	int3   
   16955:	cc                   	int3   
   16956:	cc                   	int3   
   16957:	cc                   	int3   
   16958:	cc                   	int3   
   16959:	cc                   	int3   
   1695a:	cc                   	int3   
   1695b:	cc                   	int3   
   1695c:	cc                   	int3   
   1695d:	cc                   	int3   
   1695e:	cc                   	int3   
   1695f:	cc                   	int3   

0000000000016960 <_sbrk_r>:
   16960:	f3 0f 1e fa          	endbr64 
   16964:	53                   	push   rbx
   16965:	48 89 fb             	mov    rbx,rdi
   16968:	48 89 f7             	mov    rdi,rsi
   1696b:	c7 05 4b 3f 11 00 00 	mov    DWORD PTR [rip+0x113f4b],0x0        # 12a8c0 <errno>
   16972:	00 00 00 
   16975:	e8 74 aa 00 00       	call   213ee <sbrk>
   1697a:	48 83 f8 ff          	cmp    rax,0xffffffffffffffff
   1697e:	74 08                	je     16988 <_sbrk_r+0x28>
   16980:	5b                   	pop    rbx
   16981:	c3                   	ret    
   16982:	66 0f 1f 44 00 00    	nop    WORD PTR [rax+rax*1+0x0]
   16988:	8b 15 32 3f 11 00    	mov    edx,DWORD PTR [rip+0x113f32]        # 12a8c0 <errno>
   1698e:	85 d2                	test   edx,edx
   16990:	74 ee                	je     16980 <_sbrk_r+0x20>
   16992:	89 13                	mov    DWORD PTR [rbx],edx
   16994:	5b                   	pop    rbx
   16995:	c3                   	ret    
   16996:	cc                   	int3   
   16997:	cc                   	int3   
   16998:	cc                   	int3   
   16999:	cc                   	int3   
   1699a:	cc                   	int3   
   1699b:	cc                   	int3   
   1699c:	cc                   	int3   
   1699d:	cc                   	int3   
   1699e:	cc                   	int3   
   1699f:	cc                   	int3   

00000000000169a0 <_reclaim_reent>:
   169a0:	f3 0f 1e fa          	endbr64 
   169a4:	48 39 3d 55 d4 00 00 	cmp    QWORD PTR [rip+0xd455],rdi        # 23e00 <_impure_ptr>
   169ab:	0f 84 8c 00 00 00    	je     16a3d <_reclaim_reent+0x9d>
   169b1:	41 54                	push   r12
   169b3:	55                   	push   rbp
   169b4:	48 89 fd             	mov    rbp,rdi
   169b7:	53                   	push   rbx
   169b8:	48 8b 77 68          	mov    rsi,QWORD PTR [rdi+0x68]
   169bc:	48 85 f6             	test   rsi,rsi
   169bf:	74 43                	je     16a04 <_reclaim_reent+0x64>
   169c1:	45 31 e4             	xor    r12d,r12d
   169c4:	0f 1f 40 00          	nop    DWORD PTR [rax+0x0]
   169c8:	4a 8b 1c 26          	mov    rbx,QWORD PTR [rsi+r12*1]
   169cc:	48 85 db             	test   rbx,rbx
   169cf:	74 1e                	je     169ef <_reclaim_reent+0x4f>
   169d1:	0f 1f 80 00 00 00 00 	nop    DWORD PTR [rax+0x0]
   169d8:	48 89 de             	mov    rsi,rbx
   169db:	48 8b 1b             	mov    rbx,QWORD PTR [rbx]
   169de:	48 89 ef             	mov    rdi,rbp
   169e1:	e8 ea f2 ff ff       	call   15cd0 <_free_r>
   169e6:	48 85 db             	test   rbx,rbx
   169e9:	75 ed                	jne    169d8 <_reclaim_reent+0x38>
   169eb:	48 8b 75 68          	mov    rsi,QWORD PTR [rbp+0x68]
   169ef:	49 83 c4 08          	add    r12,0x8
   169f3:	49 81 fc 00 02 00 00 	cmp    r12,0x200
   169fa:	75 cc                	jne    169c8 <_reclaim_reent+0x28>
   169fc:	48 89 ef             	mov    rdi,rbp
   169ff:	e8 cc f2 ff ff       	call   15cd0 <_free_r>
   16a04:	48 8b 75 50          	mov    rsi,QWORD PTR [rbp+0x50]
   16a08:	48 85 f6             	test   rsi,rsi
   16a0b:	74 08                	je     16a15 <_reclaim_reent+0x75>
   16a0d:	48 89 ef             	mov    rdi,rbp
   16a10:	e8 bb f2 ff ff       	call   15cd0 <_free_r>
   16a15:	48 8b 75 78          	mov    rsi,QWORD PTR [rbp+0x78]
   16a19:	48 85 f6             	test   rsi,rsi
   16a1c:	74 08                	je     16a26 <_reclaim_reent+0x86>
   16a1e:	48 89 ef             	mov    rdi,rbp
   16a21:	e8 aa f2 ff ff       	call   15cd0 <_free_r>
   16a26:	48 8b 45 48          	mov    rax,QWORD PTR [rbp+0x48]
   16a2a:	48 85 c0             	test   rax,rax
   16a2d:	74 09                	je     16a38 <_reclaim_reent+0x98>
   16a2f:	5b                   	pop    rbx
   16a30:	48 89 ef             	mov    rdi,rbp
   16a33:	5d                   	pop    rbp
   16a34:	41 5c                	pop    r12
   16a36:	ff e0                	jmp    rax
   16a38:	5b                   	pop    rbx
   16a39:	5d                   	pop    rbp
   16a3a:	41 5c                	pop    r12
   16a3c:	c3                   	ret    
   16a3d:	c3                   	ret    
   16a3e:	cc                   	int3   
   16a3f:	cc                   	int3   

0000000000016a40 <_fwalk_sglue>:
   16a40:	f3 0f 1e fa          	endbr64 
   16a44:	41 57                	push   r15
   16a46:	49 89 ff             	mov    r15,rdi
   16a49:	41 56                	push   r14
   16a4b:	49 89 f6             	mov    r14,rsi
   16a4e:	41 55                	push   r13
   16a50:	49 89 d5             	mov    r13,rdx
   16a53:	41 54                	push   r12
   16a55:	45 31 e4             	xor    r12d,r12d
   16a58:	55                   	push   rbp
   16a59:	53                   	push   rbx
   16a5a:	48 83 ec 08          	sub    rsp,0x8
   16a5e:	66 90                	xchg   ax,ax
   16a60:	41 8b 45 08          	mov    eax,DWORD PTR [r13+0x8]
   16a64:	49 8b 5d 10          	mov    rbx,QWORD PTR [r13+0x10]
   16a68:	85 c0                	test   eax,eax
   16a6a:	7e 42                	jle    16aae <_fwalk_sglue+0x6e>
   16a6c:	83 e8 01             	sub    eax,0x1
   16a6f:	48 83 c0 01          	add    rax,0x1
   16a73:	48 8d 14 80          	lea    rdx,[rax+rax*4]
   16a77:	48 8d 2c 50          	lea    rbp,[rax+rdx*2]
   16a7b:	48 c1 e5 04          	shl    rbp,0x4
   16a7f:	48 01 dd             	add    rbp,rbx
   16a82:	66 0f 1f 44 00 00    	nop    WORD PTR [rax+rax*1+0x0]
   16a88:	66 83 7b 10 01       	cmp    WORD PTR [rbx+0x10],0x1
   16a8d:	76 13                	jbe    16aa2 <_fwalk_sglue+0x62>
   16a8f:	66 83 7b 12 ff       	cmp    WORD PTR [rbx+0x12],0xffff
   16a94:	74 0c                	je     16aa2 <_fwalk_sglue+0x62>
   16a96:	48 89 de             	mov    rsi,rbx
   16a99:	4c 89 ff             	mov    rdi,r15
   16a9c:	41 ff d6             	call   r14
   16a9f:	41 09 c4             	or     r12d,eax
   16aa2:	48 81 c3 b0 00 00 00 	add    rbx,0xb0
   16aa9:	48 39 dd             	cmp    rbp,rbx
   16aac:	75 da                	jne    16a88 <_fwalk_sglue+0x48>
   16aae:	4d 8b 6d 00          	mov    r13,QWORD PTR [r13+0x0]
   16ab2:	4d 85 ed             	test   r13,r13
   16ab5:	75 a9                	jne    16a60 <_fwalk_sglue+0x20>
   16ab7:	48 83 c4 08          	add    rsp,0x8
   16abb:	44 89 e0             	mov    eax,r12d
   16abe:	5b                   	pop    rbx
   16abf:	5d                   	pop    rbp
   16ac0:	41 5c                	pop    r12
   16ac2:	41 5d                	pop    r13
   16ac4:	41 5e                	pop    r14
   16ac6:	41 5f                	pop    r15
   16ac8:	c3                   	ret    
   16ac9:	cc                   	int3   
   16aca:	cc                   	int3   
   16acb:	cc                   	int3   
   16acc:	cc                   	int3   
   16acd:	cc                   	int3   
   16ace:	cc                   	int3   
   16acf:	cc                   	int3   

0000000000016ad0 <memset>:
   16ad0:	49 89 f9             	mov    r9,rdi
   16ad3:	48 89 f0             	mov    rax,rsi
   16ad6:	48 89 d1             	mov    rcx,rdx
   16ad9:	48 83 fa 10          	cmp    rdx,0x10
   16add:	0f 82 a8 00 00 00    	jb     16b8b <byte_set>
   16ae3:	49 89 f8             	mov    r8,rdi
   16ae6:	49 83 e0 07          	and    r8,0x7
   16aea:	74 12                	je     16afe <quadword_aligned>
   16aec:	48 c7 c1 08 00 00 00 	mov    rcx,0x8
   16af3:	4c 29 c1             	sub    rcx,r8
   16af6:	48 29 ca             	sub    rdx,rcx
   16af9:	f3 aa                	rep stos BYTE PTR es:[rdi],al
   16afb:	48 89 d1             	mov    rcx,rdx

0000000000016afe <quadword_aligned>:
   16afe:	49 b8 01 01 01 01 01 	movabs r8,0x101010101010101
   16b05:	01 01 01 
   16b08:	40 0f b6 c6          	movzx  eax,sil
   16b0c:	49 0f af c0          	imul   rax,r8
   16b10:	48 81 fa 00 01 00 00 	cmp    rdx,0x100
   16b17:	72 78                	jb     16b91 <quadword_set>
   16b19:	48 c1 e9 07          	shr    rcx,0x7
   16b1d:	0f 1f 00             	nop    DWORD PTR [rax]

0000000000016b20 <loop>:
   16b20:	48 0f c3 07          	movnti QWORD PTR [rdi],rax
   16b24:	48 0f c3 47 08       	movnti QWORD PTR [rdi+0x8],rax
   16b29:	48 0f c3 47 10       	movnti QWORD PTR [rdi+0x10],rax
   16b2e:	48 0f c3 47 18       	movnti QWORD PTR [rdi+0x18],rax
   16b33:	48 0f c3 47 20       	movnti QWORD PTR [rdi+0x20],rax
   16b38:	48 0f c3 47 28       	movnti QWORD PTR [rdi+0x28],rax
   16b3d:	48 0f c3 47 30       	movnti QWORD PTR [rdi+0x30],rax
   16b42:	48 0f c3 47 38       	movnti QWORD PTR [rdi+0x38],rax
   16b47:	48 0f c3 47 40       	movnti QWORD PTR [rdi+0x40],rax
   16b4c:	48 0f c3 47 48       	movnti QWORD PTR [rdi+0x48],rax
   16b51:	48 0f c3 47 50       	movnti QWORD PTR [rdi+0x50],rax
   16b56:	48 0f c3 47 58       	movnti QWORD PTR [rdi+0x58],rax
   16b5b:	48 0f c3 47 60       	movnti QWORD PTR [rdi+0x60],rax
   16b60:	48 0f c3 47 68       	movnti QWORD PTR [rdi+0x68],rax
   16b65:	48 0f c3 47 70       	movnti QWORD PTR [rdi+0x70],rax
   16b6a:	48 0f c3 47 78       	movnti QWORD PTR [rdi+0x78],rax
   16b6f:	48 8d bf 80 00 00 00 	lea    rdi,[rdi+0x80]
   16b76:	48 ff c9             	dec    rcx
   16b79:	75 a5                	jne    16b20 <loop>
   16b7b:	0f ae f8             	sfence 
   16b7e:	48 89 d1             	mov    rcx,rdx
   16b81:	48 83 e1 7f          	and    rcx,0x7f
   16b85:	f3 aa                	rep stos BYTE PTR es:[rdi],al
   16b87:	4c 89 c8             	mov    rax,r9
   16b8a:	c3                   	ret    

0000000000016b8b <byte_set>:
   16b8b:	f3 aa                	rep stos BYTE PTR es:[rdi],al
   16b8d:	4c 89 c8             	mov    rax,r9
   16b90:	c3                   	ret    

0000000000016b91 <quadword_set>:
   16b91:	48 c1 e9 03          	shr    rcx,0x3
   16b95:	66 66 2e 0f 1f 84 00 	data16 cs nop WORD PTR [rax+rax*1+0x0]
   16b9c:	00 00 00 00 
   16ba0:	f3 48 ab             	rep stos QWORD PTR es:[rdi],rax
   16ba3:	48 89 d1             	mov    rcx,rdx
   16ba6:	48 83 e1 07          	and    rcx,0x7
   16baa:	f3 aa                	rep stos BYTE PTR es:[rdi],al
   16bac:	4c 89 c8             	mov    rax,r9
   16baf:	c3                   	ret    

0000000000016bb0 <__sread>:
   16bb0:	f3 0f 1e fa          	endbr64 
   16bb4:	53                   	push   rbx
   16bb5:	48 89 f3             	mov    rbx,rsi
   16bb8:	0f bf 76 12          	movsx  esi,WORD PTR [rsi+0x12]
   16bbc:	48 63 c9             	movsxd rcx,ecx
   16bbf:	e8 dc 00 00 00       	call   16ca0 <_read_r>
   16bc4:	48 85 c0             	test   rax,rax
   16bc7:	78 0f                	js     16bd8 <__sread+0x28>
   16bc9:	48 01 83 90 00 00 00 	add    QWORD PTR [rbx+0x90],rax
   16bd0:	5b                   	pop    rbx
   16bd1:	c3                   	ret    
   16bd2:	66 0f 1f 44 00 00    	nop    WORD PTR [rax+rax*1+0x0]
   16bd8:	66 81 63 10 ff ef    	and    WORD PTR [rbx+0x10],0xefff
   16bde:	5b                   	pop    rbx
   16bdf:	c3                   	ret    

0000000000016be0 <__seofread>:
   16be0:	f3 0f 1e fa          	endbr64 
   16be4:	31 c0                	xor    eax,eax
   16be6:	c3                   	ret    
   16be7:	66 0f 1f 84 00 00 00 	nop    WORD PTR [rax+rax*1+0x0]
   16bee:	00 00 

0000000000016bf0 <__swrite>:
   16bf0:	f3 0f 1e fa          	endbr64 
   16bf4:	41 55                	push   r13
   16bf6:	49 89 d5             	mov    r13,rdx
   16bf9:	55                   	push   rbp
   16bfa:	89 cd                	mov    ebp,ecx
   16bfc:	53                   	push   rbx
   16bfd:	48 89 f3             	mov    rbx,rsi
   16c00:	48 83 ec 10          	sub    rsp,0x10
   16c04:	0f b7 46 10          	movzx  eax,WORD PTR [rsi+0x10]
   16c08:	f6 c4 01             	test   ah,0x1
   16c0b:	75 23                	jne    16c30 <__swrite+0x40>
   16c0d:	80 e4 ef             	and    ah,0xef
   16c10:	0f bf 73 12          	movsx  esi,WORD PTR [rbx+0x12]
   16c14:	48 63 cd             	movsxd rcx,ebp
   16c17:	4c 89 ea             	mov    rdx,r13
   16c1a:	66 89 43 10          	mov    WORD PTR [rbx+0x10],ax
   16c1e:	e8 cd 00 00 00       	call   16cf0 <_write_r>
   16c23:	48 83 c4 10          	add    rsp,0x10
   16c27:	5b                   	pop    rbx
   16c28:	5d                   	pop    rbp
   16c29:	41 5d                	pop    r13
   16c2b:	c3                   	ret    
   16c2c:	0f 1f 40 00          	nop    DWORD PTR [rax+0x0]
   16c30:	0f bf 76 12          	movsx  esi,WORD PTR [rsi+0x12]
   16c34:	b9 02 00 00 00       	mov    ecx,0x2
   16c39:	31 d2                	xor    edx,edx
   16c3b:	48 89 7c 24 08       	mov    QWORD PTR [rsp+0x8],rdi
   16c40:	e8 fb 00 00 00       	call   16d40 <_lseek_r>
   16c45:	0f b7 43 10          	movzx  eax,WORD PTR [rbx+0x10]
   16c49:	48 8b 7c 24 08       	mov    rdi,QWORD PTR [rsp+0x8]
   16c4e:	eb bd                	jmp    16c0d <__swrite+0x1d>

0000000000016c50 <__sseek>:
   16c50:	f3 0f 1e fa          	endbr64 
   16c54:	53                   	push   rbx
   16c55:	48 89 f3             	mov    rbx,rsi
   16c58:	0f bf 76 12          	movsx  esi,WORD PTR [rsi+0x12]
   16c5c:	e8 df 00 00 00       	call   16d40 <_lseek_r>
   16c61:	48 83 f8 ff          	cmp    rax,0xffffffffffffffff
   16c65:	74 19                	je     16c80 <__sseek+0x30>
   16c67:	66 81 4b 10 00 10    	or     WORD PTR [rbx+0x10],0x1000
   16c6d:	48 89 83 90 00 00 00 	mov    QWORD PTR [rbx+0x90],rax
   16c74:	5b                   	pop    rbx
   16c75:	c3                   	ret    
   16c76:	66 2e 0f 1f 84 00 00 	cs nop WORD PTR [rax+rax*1+0x0]
   16c7d:	00 00 00 
   16c80:	66 81 63 10 ff ef    	and    WORD PTR [rbx+0x10],0xefff
   16c86:	5b                   	pop    rbx
   16c87:	c3                   	ret    
   16c88:	0f 1f 84 00 00 00 00 	nop    DWORD PTR [rax+rax*1+0x0]
   16c8f:	00 

0000000000016c90 <__sclose>:
   16c90:	f3 0f 1e fa          	endbr64 
   16c94:	0f bf 76 12          	movsx  esi,WORD PTR [rsi+0x12]
   16c98:	e9 e3 00 00 00       	jmp    16d80 <_close_r>
   16c9d:	cc                   	int3   
   16c9e:	cc                   	int3   
   16c9f:	cc                   	int3   

0000000000016ca0 <_read_r>:
   16ca0:	f3 0f 1e fa          	endbr64 
   16ca4:	53                   	push   rbx
   16ca5:	48 89 fb             	mov    rbx,rdi
   16ca8:	89 f7                	mov    edi,esi
   16caa:	48 89 d6             	mov    rsi,rdx
   16cad:	c7 05 09 3c 11 00 00 	mov    DWORD PTR [rip+0x113c09],0x0        # 12a8c0 <errno>
   16cb4:	00 00 00 
   16cb7:	48 89 ca             	mov    rdx,rcx
   16cba:	e8 b0 a6 00 00       	call   2136f <read>
   16cbf:	4c 63 c0             	movsxd r8,eax
   16cc2:	83 f8 ff             	cmp    eax,0xffffffff
   16cc5:	74 09                	je     16cd0 <_read_r+0x30>
   16cc7:	4c 89 c0             	mov    rax,r8
   16cca:	5b                   	pop    rbx
   16ccb:	c3                   	ret    
   16ccc:	0f 1f 40 00          	nop    DWORD PTR [rax+0x0]
   16cd0:	8b 05 ea 3b 11 00    	mov    eax,DWORD PTR [rip+0x113bea]        # 12a8c0 <errno>
   16cd6:	85 c0                	test   eax,eax
   16cd8:	74 ed                	je     16cc7 <_read_r+0x27>
   16cda:	89 03                	mov    DWORD PTR [rbx],eax
   16cdc:	4c 89 c0             	mov    rax,r8
   16cdf:	5b                   	pop    rbx
   16ce0:	c3                   	ret    
   16ce1:	cc                   	int3   
   16ce2:	cc                   	int3   
   16ce3:	cc                   	int3   
   16ce4:	cc                   	int3   
   16ce5:	cc                   	int3   
   16ce6:	cc                   	int3   
   16ce7:	cc                   	int3   
   16ce8:	cc                   	int3   
   16ce9:	cc                   	int3   
   16cea:	cc                   	int3   
   16ceb:	cc                   	int3   
   16cec:	cc                   	int3   
   16ced:	cc                   	int3   
   16cee:	cc                   	int3   
   16cef:	cc                   	int3   

0000000000016cf0 <_write_r>:
   16cf0:	f3 0f 1e fa          	endbr64 
   16cf4:	53                   	push   rbx
   16cf5:	48 89 fb             	mov    rbx,rdi
   16cf8:	89 f7                	mov    edi,esi
   16cfa:	48 89 d6             	mov    rsi,rdx
   16cfd:	c7 05 b9 3b 11 00 00 	mov    DWORD PTR [rip+0x113bb9],0x0        # 12a8c0 <errno>
   16d04:	00 00 00 
   16d07:	48 89 ca             	mov    rdx,rcx
   16d0a:	e8 89 a6 00 00       	call   21398 <write>
   16d0f:	4c 63 c0             	movsxd r8,eax
   16d12:	83 f8 ff             	cmp    eax,0xffffffff
   16d15:	74 09                	je     16d20 <_write_r+0x30>
   16d17:	4c 89 c0             	mov    rax,r8
   16d1a:	5b                   	pop    rbx
   16d1b:	c3                   	ret    
   16d1c:	0f 1f 40 00          	nop    DWORD PTR [rax+0x0]
   16d20:	8b 05 9a 3b 11 00    	mov    eax,DWORD PTR [rip+0x113b9a]        # 12a8c0 <errno>
   16d26:	85 c0                	test   eax,eax
   16d28:	74 ed                	je     16d17 <_write_r+0x27>
   16d2a:	89 03                	mov    DWORD PTR [rbx],eax
   16d2c:	4c 89 c0             	mov    rax,r8
   16d2f:	5b                   	pop    rbx
   16d30:	c3                   	ret    
   16d31:	cc                   	int3   
   16d32:	cc                   	int3   
   16d33:	cc                   	int3   
   16d34:	cc                   	int3   
   16d35:	cc                   	int3   
   16d36:	cc                   	int3   
   16d37:	cc                   	int3   
   16d38:	cc                   	int3   
   16d39:	cc                   	int3   
   16d3a:	cc                   	int3   
   16d3b:	cc                   	int3   
   16d3c:	cc                   	int3   
   16d3d:	cc                   	int3   
   16d3e:	cc                   	int3   
   16d3f:	cc                   	int3   

0000000000016d40 <_lseek_r>:
   16d40:	f3 0f 1e fa          	endbr64 
   16d44:	53                   	push   rbx
   16d45:	48 89 fb             	mov    rbx,rdi
   16d48:	89 f7                	mov    edi,esi
   16d4a:	48 89 d6             	mov    rsi,rdx
   16d4d:	c7 05 69 3b 11 00 00 	mov    DWORD PTR [rip+0x113b69],0x0        # 12a8c0 <errno>
   16d54:	00 00 00 
   16d57:	89 ca                	mov    edx,ecx
   16d59:	e8 b2 a6 00 00       	call   21410 <lseek>
   16d5e:	48 83 f8 ff          	cmp    rax,0xffffffffffffffff
   16d62:	74 0c                	je     16d70 <_lseek_r+0x30>
   16d64:	5b                   	pop    rbx
   16d65:	c3                   	ret    
   16d66:	66 2e 0f 1f 84 00 00 	cs nop WORD PTR [rax+rax*1+0x0]
   16d6d:	00 00 00 
   16d70:	8b 15 4a 3b 11 00    	mov    edx,DWORD PTR [rip+0x113b4a]        # 12a8c0 <errno>
   16d76:	85 d2                	test   edx,edx
   16d78:	74 ea                	je     16d64 <_lseek_r+0x24>
   16d7a:	89 13                	mov    DWORD PTR [rbx],edx
   16d7c:	5b                   	pop    rbx
   16d7d:	c3                   	ret    
   16d7e:	cc                   	int3   
   16d7f:	cc                   	int3   

0000000000016d80 <_close_r>:
   16d80:	f3 0f 1e fa          	endbr64 
   16d84:	53                   	push   rbx
   16d85:	48 89 fb             	mov    rbx,rdi
   16d88:	89 f7                	mov    edi,esi
   16d8a:	c7 05 2c 3b 11 00 00 	mov    DWORD PTR [rip+0x113b2c],0x0        # 12a8c0 <errno>
   16d91:	00 00 00 
   16d94:	e8 9f a6 00 00       	call   21438 <close>
   16d99:	83 f8 ff             	cmp    eax,0xffffffff
   16d9c:	74 02                	je     16da0 <_close_r+0x20>
   16d9e:	5b                   	pop    rbx
   16d9f:	c3                   	ret    
   16da0:	8b 15 1a 3b 11 00    	mov    edx,DWORD PTR [rip+0x113b1a]        # 12a8c0 <errno>
   16da6:	85 d2                	test   edx,edx
   16da8:	74 f4                	je     16d9e <_close_r+0x1e>
   16daa:	89 13                	mov    DWORD PTR [rbx],edx
   16dac:	5b                   	pop    rbx
   16dad:	c3                   	ret    
   16dae:	cc                   	int3   
   16daf:	cc                   	int3   

0000000000016db0 <_svfprintf_r>:
   16db0:	f3 0f 1e fa          	endbr64 
   16db4:	41 57                	push   r15
   16db6:	41 56                	push   r14
   16db8:	41 55                	push   r13
   16dba:	49 89 fd             	mov    r13,rdi
   16dbd:	41 54                	push   r12
   16dbf:	55                   	push   rbp
   16dc0:	53                   	push   rbx
   16dc1:	48 89 f3             	mov    rbx,rsi
   16dc4:	48 81 ec 98 01 00 00 	sub    rsp,0x198
   16dcb:	48 89 74 24 28       	mov    QWORD PTR [rsp+0x28],rsi
   16dd0:	48 89 54 24 08       	mov    QWORD PTR [rsp+0x8],rdx
   16dd5:	48 89 4c 24 38       	mov    QWORD PTR [rsp+0x38],rcx
   16dda:	64 48 8b 04 25 28 00 	mov    rax,QWORD PTR fs:0x28
   16de1:	00 00 
   16de3:	48 89 84 24 88 01 00 	mov    QWORD PTR [rsp+0x188],rax
   16dea:	00 
   16deb:	31 c0                	xor    eax,eax
   16ded:	e8 2e 25 00 00       	call   19320 <_localeconv_r>
   16df2:	48 8b 00             	mov    rax,QWORD PTR [rax]
   16df5:	48 89 c7             	mov    rdi,rax
   16df8:	48 89 44 24 60       	mov    QWORD PTR [rsp+0x60],rax
   16dfd:	e8 ce e3 ff ff       	call   151d0 <strlen>
   16e02:	48 89 44 24 58       	mov    QWORD PTR [rsp+0x58],rax
   16e07:	f6 43 10 80          	test   BYTE PTR [rbx+0x10],0x80
   16e0b:	74 0b                	je     16e18 <_svfprintf_r+0x68>
   16e0d:	48 83 7b 18 00       	cmp    QWORD PTR [rbx+0x18],0x0
   16e12:	0f 84 70 16 00 00    	je     18488 <_svfprintf_r+0x16d8>
   16e18:	4c 8d 9c 24 d0 00 00 	lea    r11,[rsp+0xd0]
   16e1f:	00 
   16e20:	c7 44 24 4c 00 00 00 	mov    DWORD PTR [rsp+0x4c],0x0
   16e27:	00 
   16e28:	4d 89 ee             	mov    r14,r13
   16e2b:	4c 89 5c 24 20       	mov    QWORD PTR [rsp+0x20],r11
   16e30:	4c 89 9c 24 b0 00 00 	mov    QWORD PTR [rsp+0xb0],r11
   16e37:	00 
   16e38:	48 c7 84 24 c0 00 00 	mov    QWORD PTR [rsp+0xc0],0x0
   16e3f:	00 00 00 00 00 
   16e44:	c7 84 24 b8 00 00 00 	mov    DWORD PTR [rsp+0xb8],0x0
   16e4b:	00 00 00 00 
   16e4f:	48 c7 44 24 50 00 00 	mov    QWORD PTR [rsp+0x50],0x0
   16e56:	00 00 
   16e58:	48 c7 44 24 68 00 00 	mov    QWORD PTR [rsp+0x68],0x0
   16e5f:	00 00 
   16e61:	c7 44 24 7c 00 00 00 	mov    DWORD PTR [rsp+0x7c],0x0
   16e68:	00 
   16e69:	c7 44 24 48 00 00 00 	mov    DWORD PTR [rsp+0x48],0x0
   16e70:	00 
   16e71:	48 8b 5c 24 08       	mov    rbx,QWORD PTR [rsp+0x8]
   16e76:	0f b6 03             	movzx  eax,BYTE PTR [rbx]
   16e79:	3c 25                	cmp    al,0x25
   16e7b:	0f 84 92 02 00 00    	je     17113 <_svfprintf_r+0x363>
   16e81:	84 c0                	test   al,al
   16e83:	0f 84 8a 02 00 00    	je     17113 <_svfprintf_r+0x363>
   16e89:	0f 1f 80 00 00 00 00 	nop    DWORD PTR [rax+0x0]
   16e90:	48 89 dd             	mov    rbp,rbx
   16e93:	0f b6 43 01          	movzx  eax,BYTE PTR [rbx+0x1]
   16e97:	48 83 c3 01          	add    rbx,0x1
   16e9b:	84 c0                	test   al,al
   16e9d:	74 04                	je     16ea3 <_svfprintf_r+0xf3>
   16e9f:	3c 25                	cmp    al,0x25
   16ea1:	75 ed                	jne    16e90 <_svfprintf_r+0xe0>
   16ea3:	48 8b 74 24 08       	mov    rsi,QWORD PTR [rsp+0x8]
   16ea8:	49 89 dc             	mov    r12,rbx
   16eab:	49 29 f4             	sub    r12,rsi
   16eae:	39 f3                	cmp    ebx,esi
   16eb0:	74 3a                	je     16eec <_svfprintf_r+0x13c>
   16eb2:	49 63 c4             	movsxd rax,r12d
   16eb5:	48 01 84 24 c0 00 00 	add    QWORD PTR [rsp+0xc0],rax
   16ebc:	00 
   16ebd:	49 83 c3 10          	add    r11,0x10
   16ec1:	49 89 43 f8          	mov    QWORD PTR [r11-0x8],rax
   16ec5:	8b 84 24 b8 00 00 00 	mov    eax,DWORD PTR [rsp+0xb8]
   16ecc:	49 89 73 f0          	mov    QWORD PTR [r11-0x10],rsi
   16ed0:	83 c0 01             	add    eax,0x1
   16ed3:	89 84 24 b8 00 00 00 	mov    DWORD PTR [rsp+0xb8],eax
   16eda:	83 f8 07             	cmp    eax,0x7
   16edd:	0f 8f 4d 02 00 00    	jg     17130 <_svfprintf_r+0x380>
   16ee3:	44 01 64 24 48       	add    DWORD PTR [rsp+0x48],r12d
   16ee8:	0f b6 45 01          	movzx  eax,BYTE PTR [rbp+0x1]
   16eec:	84 c0                	test   al,al
   16eee:	0f 84 5f 02 00 00    	je     17153 <_svfprintf_r+0x3a3>
   16ef4:	c6 84 24 9f 00 00 00 	mov    BYTE PTR [rsp+0x9f],0x0
   16efb:	00 
   16efc:	48 83 c3 01          	add    rbx,0x1
   16f00:	41 bf ff ff ff ff    	mov    r15d,0xffffffff
   16f06:	45 31 e4             	xor    r12d,r12d
   16f09:	c7 44 24 14 00 00 00 	mov    DWORD PTR [rsp+0x14],0x0
   16f10:	00 
   16f11:	0f be 2b             	movsx  ebp,BYTE PTR [rbx]
   16f14:	48 8d 53 01          	lea    rdx,[rbx+0x1]
   16f18:	8d 45 e0             	lea    eax,[rbp-0x20]
   16f1b:	83 f8 58             	cmp    eax,0x58
   16f1e:	77 40                	ja     16f60 <_svfprintf_r+0x1b0>
   16f20:	48 8d 3d a9 95 ff ff 	lea    rdi,[rip+0xffffffffffff95a9]        # 104d0 <zeroes.0-0x170>
   16f27:	48 63 04 87          	movsxd rax,DWORD PTR [rdi+rax*4]
   16f2b:	48 01 f8             	add    rax,rdi
   16f2e:	3e ff e0             	notrack jmp rax
   16f31:	0f 1f 80 00 00 00 00 	nop    DWORD PTR [rax+0x0]
   16f38:	31 c9                	xor    ecx,ecx
   16f3a:	8d 45 d0             	lea    eax,[rbp-0x30]
   16f3d:	0f be 2a             	movsx  ebp,BYTE PTR [rdx]
   16f40:	8d 0c 89             	lea    ecx,[rcx+rcx*4]
   16f43:	48 83 c2 01          	add    rdx,0x1
   16f47:	8d 0c 48             	lea    ecx,[rax+rcx*2]
   16f4a:	8d 45 d0             	lea    eax,[rbp-0x30]
   16f4d:	83 f8 09             	cmp    eax,0x9
   16f50:	76 eb                	jbe    16f3d <_svfprintf_r+0x18d>
   16f52:	8d 45 e0             	lea    eax,[rbp-0x20]
   16f55:	89 4c 24 14          	mov    DWORD PTR [rsp+0x14],ecx
   16f59:	83 f8 58             	cmp    eax,0x58
   16f5c:	76 c2                	jbe    16f20 <_svfprintf_r+0x170>
   16f5e:	66 90                	xchg   ax,ax
   16f60:	48 89 54 24 08       	mov    QWORD PTR [rsp+0x8],rdx
   16f65:	85 ed                	test   ebp,ebp
   16f67:	0f 84 e6 01 00 00    	je     17153 <_svfprintf_r+0x3a3>
   16f6d:	40 88 ac 24 60 01 00 	mov    BYTE PTR [rsp+0x160],bpl
   16f74:	00 
   16f75:	bb 01 00 00 00       	mov    ebx,0x1
   16f7a:	48 8d 8c 24 60 01 00 	lea    rcx,[rsp+0x160]
   16f81:	00 
   16f82:	c6 84 24 9f 00 00 00 	mov    BYTE PTR [rsp+0x9f],0x0
   16f89:	00 
   16f8a:	c7 44 24 18 01 00 00 	mov    DWORD PTR [rsp+0x18],0x1
   16f91:	00 
   16f92:	44 89 24 24          	mov    DWORD PTR [rsp],r12d
   16f96:	45 31 ff             	xor    r15d,r15d
   16f99:	c7 44 24 40 00 00 00 	mov    DWORD PTR [rsp+0x40],0x0
   16fa0:	00 
   16fa1:	0f 1f 80 00 00 00 00 	nop    DWORD PTR [rax+0x0]
   16fa8:	8b 3c 24             	mov    edi,DWORD PTR [rsp]
   16fab:	8d 43 02             	lea    eax,[rbx+0x2]
   16fae:	41 89 fc             	mov    r12d,edi
   16fb1:	41 83 e4 02          	and    r12d,0x2
   16fb5:	0f 45 d8             	cmovne ebx,eax
   16fb8:	81 e7 84 00 00 00    	and    edi,0x84
   16fbe:	48 8b 84 24 c0 00 00 	mov    rax,QWORD PTR [rsp+0xc0]
   16fc5:	00 
   16fc6:	89 7c 24 30          	mov    DWORD PTR [rsp+0x30],edi
   16fca:	75 11                	jne    16fdd <_svfprintf_r+0x22d>
   16fcc:	44 8b 44 24 14       	mov    r8d,DWORD PTR [rsp+0x14]
   16fd1:	41 29 d8             	sub    r8d,ebx
   16fd4:	45 85 c0             	test   r8d,r8d
   16fd7:	0f 8f a3 0c 00 00    	jg     17c80 <_svfprintf_r+0xed0>
   16fdd:	80 bc 24 9f 00 00 00 	cmp    BYTE PTR [rsp+0x9f],0x0
   16fe4:	00 
   16fe5:	74 3e                	je     17025 <_svfprintf_r+0x275>
   16fe7:	8b b4 24 b8 00 00 00 	mov    esi,DWORD PTR [rsp+0xb8]
   16fee:	48 83 c0 01          	add    rax,0x1
   16ff2:	49 83 c3 10          	add    r11,0x10
   16ff6:	48 8d 94 24 9f 00 00 	lea    rdx,[rsp+0x9f]
   16ffd:	00 
   16ffe:	49 89 53 f0          	mov    QWORD PTR [r11-0x10],rdx
   17002:	8d 56 01             	lea    edx,[rsi+0x1]
   17005:	49 c7 43 f8 01 00 00 	mov    QWORD PTR [r11-0x8],0x1
   1700c:	00 
   1700d:	48 89 84 24 c0 00 00 	mov    QWORD PTR [rsp+0xc0],rax
   17014:	00 
   17015:	89 94 24 b8 00 00 00 	mov    DWORD PTR [rsp+0xb8],edx
   1701c:	83 fa 07             	cmp    edx,0x7
   1701f:	0f 8f b3 0d 00 00    	jg     17dd8 <_svfprintf_r+0x1028>
   17025:	45 85 e4             	test   r12d,r12d
   17028:	74 3e                	je     17068 <_svfprintf_r+0x2b8>
   1702a:	8b bc 24 b8 00 00 00 	mov    edi,DWORD PTR [rsp+0xb8]
   17031:	48 83 c0 02          	add    rax,0x2
   17035:	49 83 c3 10          	add    r11,0x10
   17039:	48 8d 94 24 50 01 00 	lea    rdx,[rsp+0x150]
   17040:	00 
   17041:	49 89 53 f0          	mov    QWORD PTR [r11-0x10],rdx
   17045:	8d 57 01             	lea    edx,[rdi+0x1]
   17048:	49 c7 43 f8 02 00 00 	mov    QWORD PTR [r11-0x8],0x2
   1704f:	00 
   17050:	48 89 84 24 c0 00 00 	mov    QWORD PTR [rsp+0xc0],rax
   17057:	00 
   17058:	89 94 24 b8 00 00 00 	mov    DWORD PTR [rsp+0xb8],edx
   1705f:	83 fa 07             	cmp    edx,0x7
   17062:	0f 8f b0 0d 00 00    	jg     17e18 <_svfprintf_r+0x1068>
   17068:	81 7c 24 30 80 00 00 	cmp    DWORD PTR [rsp+0x30],0x80
   1706f:	00 
   17070:	0f 84 32 08 00 00    	je     178a8 <_svfprintf_r+0xaf8>
   17076:	44 2b 7c 24 18       	sub    r15d,DWORD PTR [rsp+0x18]
   1707b:	45 85 ff             	test   r15d,r15d
   1707e:	0f 8f 7c 09 00 00    	jg     17a00 <_svfprintf_r+0xc50>
   17084:	f7 04 24 00 01 00 00 	test   DWORD PTR [rsp],0x100
   1708b:	0f 85 af 06 00 00    	jne    17740 <_svfprintf_r+0x990>
   17091:	48 63 6c 24 18       	movsxd rbp,DWORD PTR [rsp+0x18]
   17096:	49 89 0b             	mov    QWORD PTR [r11],rcx
   17099:	8b 8c 24 b8 00 00 00 	mov    ecx,DWORD PTR [rsp+0xb8]
   170a0:	48 01 e8             	add    rax,rbp
   170a3:	49 89 6b 08          	mov    QWORD PTR [r11+0x8],rbp
   170a7:	8d 51 01             	lea    edx,[rcx+0x1]
   170aa:	48 89 84 24 c0 00 00 	mov    QWORD PTR [rsp+0xc0],rax
   170b1:	00 
   170b2:	89 94 24 b8 00 00 00 	mov    DWORD PTR [rsp+0xb8],edx
   170b9:	83 fa 07             	cmp    edx,0x7
   170bc:	0f 8f 8e 0b 00 00    	jg     17c50 <_svfprintf_r+0xea0>
   170c2:	49 83 c3 10          	add    r11,0x10
   170c6:	f6 04 24 04          	test   BYTE PTR [rsp],0x4
   170ca:	74 11                	je     170dd <_svfprintf_r+0x32d>
   170cc:	44 8b 64 24 14       	mov    r12d,DWORD PTR [rsp+0x14]
   170d1:	41 29 dc             	sub    r12d,ebx
   170d4:	45 85 e4             	test   r12d,r12d
   170d7:	0f 8f 7b 0d 00 00    	jg     17e58 <_svfprintf_r+0x10a8>
   170dd:	8b 4c 24 14          	mov    ecx,DWORD PTR [rsp+0x14]
   170e1:	39 d9                	cmp    ecx,ebx
   170e3:	0f 4d d9             	cmovge ebx,ecx
   170e6:	01 5c 24 48          	add    DWORD PTR [rsp+0x48],ebx
   170ea:	48 85 c0             	test   rax,rax
   170ed:	0f 85 3d 0a 00 00    	jne    17b30 <_svfprintf_r+0xd80>
   170f3:	48 8b 5c 24 08       	mov    rbx,QWORD PTR [rsp+0x8]
   170f8:	4c 8b 5c 24 20       	mov    r11,QWORD PTR [rsp+0x20]
   170fd:	c7 84 24 b8 00 00 00 	mov    DWORD PTR [rsp+0xb8],0x0
   17104:	00 00 00 00 
   17108:	0f b6 03             	movzx  eax,BYTE PTR [rbx]
   1710b:	3c 25                	cmp    al,0x25
   1710d:	0f 85 6e fd ff ff    	jne    16e81 <_svfprintf_r+0xd1>
   17113:	48 8b 5c 24 08       	mov    rbx,QWORD PTR [rsp+0x8]
   17118:	e9 cf fd ff ff       	jmp    16eec <_svfprintf_r+0x13c>
   1711d:	41 83 cc 10          	or     r12d,0x10
   17121:	0f 1f 80 00 00 00 00 	nop    DWORD PTR [rax+0x0]
   17128:	48 89 d3             	mov    rbx,rdx
   1712b:	e9 e1 fd ff ff       	jmp    16f11 <_svfprintf_r+0x161>
   17130:	48 8b 74 24 28       	mov    rsi,QWORD PTR [rsp+0x28]
   17135:	48 8d 94 24 b0 00 00 	lea    rdx,[rsp+0xb0]
   1713c:	00 
   1713d:	4c 89 f7             	mov    rdi,r14
   17140:	e8 4b 2a 00 00       	call   19b90 <__ssprint_r>
   17145:	85 c0                	test   eax,eax
   17147:	75 1f                	jne    17168 <_svfprintf_r+0x3b8>
   17149:	4c 8b 5c 24 20       	mov    r11,QWORD PTR [rsp+0x20]
   1714e:	e9 90 fd ff ff       	jmp    16ee3 <_svfprintf_r+0x133>
   17153:	48 83 bc 24 c0 00 00 	cmp    QWORD PTR [rsp+0xc0],0x0
   1715a:	00 00 
   1715c:	0f 85 18 1d 00 00    	jne    18e7a <_svfprintf_r+0x20ca>
   17162:	66 0f 1f 44 00 00    	nop    WORD PTR [rax+rax*1+0x0]
   17168:	48 8b 44 24 28       	mov    rax,QWORD PTR [rsp+0x28]
   1716d:	f6 40 10 40          	test   BYTE PTR [rax+0x10],0x40
   17171:	b8 ff ff ff ff       	mov    eax,0xffffffff
   17176:	0f 44 44 24 48       	cmove  eax,DWORD PTR [rsp+0x48]
   1717b:	89 44 24 48          	mov    DWORD PTR [rsp+0x48],eax
   1717f:	48 8b 84 24 88 01 00 	mov    rax,QWORD PTR [rsp+0x188]
   17186:	00 
   17187:	64 48 2b 04 25 28 00 	sub    rax,QWORD PTR fs:0x28
   1718e:	00 00 
   17190:	0f 85 6c 21 00 00    	jne    19302 <_svfprintf_r+0x2552>
   17196:	8b 44 24 48          	mov    eax,DWORD PTR [rsp+0x48]
   1719a:	48 81 c4 98 01 00 00 	add    rsp,0x198
   171a1:	5b                   	pop    rbx
   171a2:	5d                   	pop    rbp
   171a3:	41 5c                	pop    r12
   171a5:	41 5d                	pop    r13
   171a7:	41 5e                	pop    r14
   171a9:	41 5f                	pop    r15
   171ab:	c3                   	ret    
   171ac:	0f 1f 40 00          	nop    DWORD PTR [rax+0x0]
   171b0:	48 89 54 24 08       	mov    QWORD PTR [rsp+0x8],rdx
   171b5:	48 8b 74 24 38       	mov    rsi,QWORD PTR [rsp+0x38]
   171ba:	41 f6 c4 08          	test   r12b,0x8
   171be:	0f 85 36 11 00 00    	jne    182fa <_svfprintf_r+0x154a>
   171c4:	8b 46 04             	mov    eax,DWORD PTR [rsi+0x4]
   171c7:	3d af 00 00 00       	cmp    eax,0xaf
   171cc:	0f 87 7d 19 00 00    	ja     18b4f <_svfprintf_r+0x1d9f>
   171d2:	89 c2                	mov    edx,eax
   171d4:	83 c0 10             	add    eax,0x10
   171d7:	48 03 56 10          	add    rdx,QWORD PTR [rsi+0x10]
   171db:	89 46 04             	mov    DWORD PTR [rsi+0x4],eax
   171de:	f2 0f 10 32          	movsd  xmm6,QWORD PTR [rdx]
   171e2:	f2 0f 11 74 24 50    	movsd  QWORD PTR [rsp+0x50],xmm6
   171e8:	f2 0f 10 6c 24 50    	movsd  xmm5,QWORD PTR [rsp+0x50]
   171ee:	66 0f 28 c5          	movapd xmm0,xmm5
   171f2:	66 0f 54 05 66 94 ff 	andpd  xmm0,XMMWORD PTR [rip+0xffffffffffff9466]        # 10660 <blanks.1+0x10>
   171f9:	ff 
   171fa:	66 0f 2e 05 b6 92 ff 	ucomisd xmm0,QWORD PTR [rip+0xffffffffffff92b6]        # 104b8 <zeroes.0-0x188>
   17201:	ff 
   17202:	0f 86 15 15 00 00    	jbe    1871d <_svfprintf_r+0x196d>
   17208:	66 0f ef ff          	pxor   xmm7,xmm7
   1720c:	66 0f 2f fd          	comisd xmm7,xmm5
   17210:	0f 87 e4 1a 00 00    	ja     18cfa <_svfprintf_r+0x1f4a>
   17216:	0f b6 94 24 9f 00 00 	movzx  edx,BYTE PTR [rsp+0x9f]
   1721d:	00 
   1721e:	83 fd 48             	cmp    ebp,0x48
   17221:	48 8d 0d aa 90 ff ff 	lea    rcx,[rip+0xffffffffffff90aa]        # 102d2 <zeroes.0-0x36e>
   17228:	48 8d 05 6e 8f ff ff 	lea    rax,[rip+0xffffffffffff8f6e]        # 1019d <zeroes.0-0x4a3>
   1722f:	48 0f 4d c8          	cmovge rcx,rax
   17233:	41 80 e4 7f          	and    r12b,0x7f
   17237:	bb 03 00 00 00       	mov    ebx,0x3
   1723c:	45 31 ff             	xor    r15d,r15d
   1723f:	44 89 24 24          	mov    DWORD PTR [rsp],r12d
   17243:	c7 44 24 18 03 00 00 	mov    DWORD PTR [rsp+0x18],0x3
   1724a:	00 
   1724b:	c7 44 24 40 00 00 00 	mov    DWORD PTR [rsp+0x40],0x0
   17252:	00 
   17253:	e9 85 04 00 00       	jmp    176dd <_svfprintf_r+0x92d>
   17258:	48 8b 44 24 38       	mov    rax,QWORD PTR [rsp+0x38]
   1725d:	48 89 54 24 08       	mov    QWORD PTR [rsp+0x8],rdx
   17262:	8b 00                	mov    eax,DWORD PTR [rax]
   17264:	41 f6 c4 10          	test   r12b,0x10
   17268:	0f 85 f1 03 00 00    	jne    1765f <_svfprintf_r+0x8af>
   1726e:	41 f6 c4 40          	test   r12b,0x40
   17272:	0f 84 48 10 00 00    	je     182c0 <_svfprintf_r+0x1510>
   17278:	83 f8 2f             	cmp    eax,0x2f
   1727b:	0f 87 b8 18 00 00    	ja     18b39 <_svfprintf_r+0x1d89>
   17281:	48 8b 74 24 38       	mov    rsi,QWORD PTR [rsp+0x38]
   17286:	89 c2                	mov    edx,eax
   17288:	83 c0 08             	add    eax,0x8
   1728b:	89 06                	mov    DWORD PTR [rsi],eax
   1728d:	48 03 56 10          	add    rdx,QWORD PTR [rsi+0x10]
   17291:	48 0f bf 32          	movsx  rsi,WORD PTR [rdx]
   17295:	48 89 f0             	mov    rax,rsi
   17298:	48 85 c0             	test   rax,rax
   1729b:	0f 89 e6 03 00 00    	jns    17687 <_svfprintf_r+0x8d7>
   172a1:	ba 2d 00 00 00       	mov    edx,0x2d
   172a6:	48 f7 de             	neg    rsi
   172a9:	b8 01 00 00 00       	mov    eax,0x1
   172ae:	88 94 24 9f 00 00 00 	mov    BYTE PTR [rsp+0x9f],dl
   172b5:	41 83 ff ff          	cmp    r15d,0xffffffff
   172b9:	0f 85 ec 00 00 00    	jne    173ab <_svfprintf_r+0x5fb>
   172bf:	90                   	nop
   172c0:	83 f8 01             	cmp    eax,0x1
   172c3:	0f 84 27 13 00 00    	je     185f0 <_svfprintf_r+0x1840>
   172c9:	4c 8d 8c 24 88 01 00 	lea    r9,[rsp+0x188]
   172d0:	00 
   172d1:	4c 89 c9             	mov    rcx,r9
   172d4:	83 f8 02             	cmp    eax,0x2
   172d7:	0f 85 a3 12 00 00    	jne    18580 <_svfprintf_r+0x17d0>
   172dd:	48 8b 54 24 68       	mov    rdx,QWORD PTR [rsp+0x68]
   172e2:	66 0f 1f 44 00 00    	nop    WORD PTR [rax+rax*1+0x0]
   172e8:	48 89 f0             	mov    rax,rsi
   172eb:	48 83 e9 01          	sub    rcx,0x1
   172ef:	83 e0 0f             	and    eax,0xf
   172f2:	48 c1 ee 04          	shr    rsi,0x4
   172f6:	0f b6 04 02          	movzx  eax,BYTE PTR [rdx+rax*1]
   172fa:	88 01                	mov    BYTE PTR [rcx],al
   172fc:	75 ea                	jne    172e8 <_svfprintf_r+0x538>
   172fe:	44 89 c8             	mov    eax,r9d
   17301:	44 89 24 24          	mov    DWORD PTR [rsp],r12d
   17305:	29 c8                	sub    eax,ecx
   17307:	89 44 24 18          	mov    DWORD PTR [rsp+0x18],eax
   1730b:	e9 b0 03 00 00       	jmp    176c0 <_svfprintf_r+0x910>
   17310:	48 8b 74 24 38       	mov    rsi,QWORD PTR [rsp+0x38]
   17315:	8b 06                	mov    eax,DWORD PTR [rsi]
   17317:	83 f8 2f             	cmp    eax,0x2f
   1731a:	0f 87 c4 0f 00 00    	ja     182e4 <_svfprintf_r+0x1534>
   17320:	89 c1                	mov    ecx,eax
   17322:	83 c0 08             	add    eax,0x8
   17325:	48 03 4e 10          	add    rcx,QWORD PTR [rsi+0x10]
   17329:	89 06                	mov    DWORD PTR [rsi],eax
   1732b:	8b 01                	mov    eax,DWORD PTR [rcx]
   1732d:	89 44 24 14          	mov    DWORD PTR [rsp+0x14],eax
   17331:	85 c0                	test   eax,eax
   17333:	0f 89 ef fd ff ff    	jns    17128 <_svfprintf_r+0x378>
   17339:	f7 d8                	neg    eax
   1733b:	89 44 24 14          	mov    DWORD PTR [rsp+0x14],eax
   1733f:	41 83 cc 04          	or     r12d,0x4
   17343:	e9 e0 fd ff ff       	jmp    17128 <_svfprintf_r+0x378>
   17348:	41 83 cc 40          	or     r12d,0x40
   1734c:	e9 d7 fd ff ff       	jmp    17128 <_svfprintf_r+0x378>
   17351:	48 8b 44 24 38       	mov    rax,QWORD PTR [rsp+0x38]
   17356:	48 89 54 24 08       	mov    QWORD PTR [rsp+0x8],rdx
   1735b:	8b 00                	mov    eax,DWORD PTR [rax]
   1735d:	41 f6 c4 10          	test   r12b,0x10
   17361:	0f 85 54 02 00 00    	jne    175bb <_svfprintf_r+0x80b>
   17367:	41 f6 c4 40          	test   r12b,0x40
   1736b:	0f 84 62 10 00 00    	je     183d3 <_svfprintf_r+0x1623>
   17371:	83 f8 2f             	cmp    eax,0x2f
   17374:	0f 87 93 17 00 00    	ja     18b0d <_svfprintf_r+0x1d5d>
   1737a:	48 8b 74 24 38       	mov    rsi,QWORD PTR [rsp+0x38]
   1737f:	89 c2                	mov    edx,eax
   17381:	83 c0 08             	add    eax,0x8
   17384:	89 06                	mov    DWORD PTR [rsi],eax
   17386:	48 03 56 10          	add    rdx,QWORD PTR [rsi+0x10]
   1738a:	0f b7 32             	movzx  esi,WORD PTR [rdx]
   1738d:	b8 01 00 00 00       	mov    eax,0x1
   17392:	66 0f 1f 44 00 00    	nop    WORD PTR [rax+rax*1+0x0]
   17398:	31 d2                	xor    edx,edx
   1739a:	88 94 24 9f 00 00 00 	mov    BYTE PTR [rsp+0x9f],dl
   173a1:	41 83 ff ff          	cmp    r15d,0xffffffff
   173a5:	0f 84 15 ff ff ff    	je     172c0 <_svfprintf_r+0x510>
   173ab:	44 89 e1             	mov    ecx,r12d
   173ae:	80 e1 7f             	and    cl,0x7f
   173b1:	89 0c 24             	mov    DWORD PTR [rsp],ecx
   173b4:	48 85 f6             	test   rsi,rsi
   173b7:	0f 85 9c 12 00 00    	jne    18659 <_svfprintf_r+0x18a9>
   173bd:	45 85 ff             	test   r15d,r15d
   173c0:	0f 85 93 12 00 00    	jne    18659 <_svfprintf_r+0x18a9>
   173c6:	85 c0                	test   eax,eax
   173c8:	0f 85 02 12 00 00    	jne    185d0 <_svfprintf_r+0x1820>
   173ce:	41 83 e4 01          	and    r12d,0x1
   173d2:	44 89 64 24 18       	mov    DWORD PTR [rsp+0x18],r12d
   173d7:	0f 84 41 12 00 00    	je     1861e <_svfprintf_r+0x186e>
   173dd:	c6 84 24 87 01 00 00 	mov    BYTE PTR [rsp+0x187],0x30
   173e4:	30 
   173e5:	45 31 ff             	xor    r15d,r15d
   173e8:	48 8d 8c 24 87 01 00 	lea    rcx,[rsp+0x187]
   173ef:	00 
   173f0:	e9 cb 02 00 00       	jmp    176c0 <_svfprintf_r+0x910>
   173f5:	48 8b 74 24 38       	mov    rsi,QWORD PTR [rsp+0x38]
   173fa:	48 89 54 24 08       	mov    QWORD PTR [rsp+0x8],rdx
   173ff:	8b 06                	mov    eax,DWORD PTR [rsi]
   17401:	83 f8 2f             	cmp    eax,0x2f
   17404:	0f 87 93 0f 00 00    	ja     1839d <_svfprintf_r+0x15ed>
   1740a:	89 c2                	mov    edx,eax
   1740c:	83 c0 08             	add    eax,0x8
   1740f:	48 03 56 10          	add    rdx,QWORD PTR [rsi+0x10]
   17413:	89 06                	mov    DWORD PTR [rsi],eax
   17415:	48 8b 0a             	mov    rcx,QWORD PTR [rdx]
   17418:	c6 84 24 9f 00 00 00 	mov    BYTE PTR [rsp+0x9f],0x0
   1741f:	00 
   17420:	48 85 c9             	test   rcx,rcx
   17423:	0f 84 c4 15 00 00    	je     189ed <_svfprintf_r+0x1c3d>
   17429:	41 83 ff ff          	cmp    r15d,0xffffffff
   1742d:	0f 84 d8 15 00 00    	je     18a0b <_svfprintf_r+0x1c5b>
   17433:	31 f6                	xor    esi,esi
   17435:	48 89 cf             	mov    rdi,rcx
   17438:	49 63 d7             	movsxd rdx,r15d
   1743b:	4c 89 5c 24 18       	mov    QWORD PTR [rsp+0x18],r11
   17440:	48 89 0c 24          	mov    QWORD PTR [rsp],rcx
   17444:	e8 f7 42 00 00       	call   1b740 <memchr>
   17449:	48 8b 0c 24          	mov    rcx,QWORD PTR [rsp]
   1744d:	4c 8b 5c 24 18       	mov    r11,QWORD PTR [rsp+0x18]
   17452:	48 85 c0             	test   rax,rax
   17455:	48 89 c3             	mov    rbx,rax
   17458:	0f 84 43 1b 00 00    	je     18fa1 <_svfprintf_r+0x21f1>
   1745e:	48 29 cb             	sub    rbx,rcx
   17461:	31 c0                	xor    eax,eax
   17463:	44 89 24 24          	mov    DWORD PTR [rsp],r12d
   17467:	0f b6 94 24 9f 00 00 	movzx  edx,BYTE PTR [rsp+0x9f]
   1746e:	00 
   1746f:	85 db                	test   ebx,ebx
   17471:	89 5c 24 18          	mov    DWORD PTR [rsp+0x18],ebx
   17475:	c7 44 24 40 00 00 00 	mov    DWORD PTR [rsp+0x40],0x0
   1747c:	00 
   1747d:	0f 48 d8             	cmovs  ebx,eax
   17480:	45 31 ff             	xor    r15d,r15d
   17483:	e9 55 02 00 00       	jmp    176dd <_svfprintf_r+0x92d>
   17488:	48 8b 44 24 38       	mov    rax,QWORD PTR [rsp+0x38]
   1748d:	48 89 54 24 08       	mov    QWORD PTR [rsp+0x8],rdx
   17492:	8b 00                	mov    eax,DWORD PTR [rax]
   17494:	41 f6 c4 10          	test   r12b,0x10
   17498:	0f 85 53 01 00 00    	jne    175f1 <_svfprintf_r+0x841>
   1749e:	41 f6 c4 40          	test   r12b,0x40
   174a2:	0f 84 d3 0e 00 00    	je     1837b <_svfprintf_r+0x15cb>
   174a8:	83 f8 2f             	cmp    eax,0x2f
   174ab:	0f 87 09 16 00 00    	ja     18aba <_svfprintf_r+0x1d0a>
   174b1:	48 8b 7c 24 38       	mov    rdi,QWORD PTR [rsp+0x38]
   174b6:	89 c2                	mov    edx,eax
   174b8:	83 c0 08             	add    eax,0x8
   174bb:	89 07                	mov    DWORD PTR [rdi],eax
   174bd:	48 03 57 10          	add    rdx,QWORD PTR [rdi+0x10]
   174c1:	0f b7 32             	movzx  esi,WORD PTR [rdx]
   174c4:	31 c0                	xor    eax,eax
   174c6:	e9 cd fe ff ff       	jmp    17398 <_svfprintf_r+0x5e8>
   174cb:	48 8b 4c 24 38       	mov    rcx,QWORD PTR [rsp+0x38]
   174d0:	48 89 54 24 08       	mov    QWORD PTR [rsp+0x8],rdx
   174d5:	8b 01                	mov    eax,DWORD PTR [rcx]
   174d7:	41 f6 c4 10          	test   r12b,0x10
   174db:	0f 84 3c 0e 00 00    	je     1831d <_svfprintf_r+0x156d>
   174e1:	83 f8 2f             	cmp    eax,0x2f
   174e4:	0f 87 a4 15 00 00    	ja     18a8e <_svfprintf_r+0x1cde>
   174ea:	89 c2                	mov    edx,eax
   174ec:	83 c0 08             	add    eax,0x8
   174ef:	48 03 51 10          	add    rdx,QWORD PTR [rcx+0x10]
   174f3:	89 01                	mov    DWORD PTR [rcx],eax
   174f5:	48 8b 02             	mov    rax,QWORD PTR [rdx]
   174f8:	48 63 54 24 48       	movsxd rdx,DWORD PTR [rsp+0x48]
   174fd:	48 89 10             	mov    QWORD PTR [rax],rdx
   17500:	e9 6c f9 ff ff       	jmp    16e71 <_svfprintf_r+0xc1>
   17505:	48 8b 4c 24 38       	mov    rcx,QWORD PTR [rsp+0x38]
   1750a:	48 89 54 24 08       	mov    QWORD PTR [rsp+0x8],rdx
   1750f:	8b 01                	mov    eax,DWORD PTR [rcx]
   17511:	83 f8 2f             	cmp    eax,0x2f
   17514:	0f 86 99 0e 00 00    	jbe    183b3 <_svfprintf_r+0x1603>
   1751a:	48 8b 74 24 38       	mov    rsi,QWORD PTR [rsp+0x38]
   1751f:	48 8b 56 08          	mov    rdx,QWORD PTR [rsi+0x8]
   17523:	48 8d 42 08          	lea    rax,[rdx+0x8]
   17527:	48 89 46 08          	mov    QWORD PTR [rsi+0x8],rax
   1752b:	b8 30 78 00 00       	mov    eax,0x7830
   17530:	48 8b 32             	mov    rsi,QWORD PTR [rdx]
   17533:	41 83 cc 02          	or     r12d,0x2
   17537:	bd 78 00 00 00       	mov    ebp,0x78
   1753c:	66 89 84 24 50 01 00 	mov    WORD PTR [rsp+0x150],ax
   17543:	00 
   17544:	48 8d 05 9a 8d ff ff 	lea    rax,[rip+0xffffffffffff8d9a]        # 102e5 <zeroes.0-0x35b>
   1754b:	48 89 44 24 68       	mov    QWORD PTR [rsp+0x68],rax
   17550:	b8 02 00 00 00       	mov    eax,0x2
   17555:	e9 3e fe ff ff       	jmp    17398 <_svfprintf_r+0x5e8>
   1755a:	48 8b 4c 24 38       	mov    rcx,QWORD PTR [rsp+0x38]
   1755f:	48 89 54 24 08       	mov    QWORD PTR [rsp+0x8],rdx
   17564:	8b 01                	mov    eax,DWORD PTR [rcx]
   17566:	83 f8 2f             	cmp    eax,0x2f
   17569:	0f 86 54 0e 00 00    	jbe    183c3 <_svfprintf_r+0x1613>
   1756f:	48 8b 4c 24 38       	mov    rcx,QWORD PTR [rsp+0x38]
   17574:	48 8b 51 08          	mov    rdx,QWORD PTR [rcx+0x8]
   17578:	48 8d 42 08          	lea    rax,[rdx+0x8]
   1757c:	48 89 41 08          	mov    QWORD PTR [rcx+0x8],rax
   17580:	8b 02                	mov    eax,DWORD PTR [rdx]
   17582:	c7 44 24 18 01 00 00 	mov    DWORD PTR [rsp+0x18],0x1
   17589:	00 
   1758a:	bb 01 00 00 00       	mov    ebx,0x1
   1758f:	48 8d 8c 24 60 01 00 	lea    rcx,[rsp+0x160]
   17596:	00 
   17597:	c6 84 24 9f 00 00 00 	mov    BYTE PTR [rsp+0x9f],0x0
   1759e:	00 
   1759f:	88 84 24 60 01 00 00 	mov    BYTE PTR [rsp+0x160],al
   175a6:	e9 e7 f9 ff ff       	jmp    16f92 <_svfprintf_r+0x1e2>
   175ab:	48 8b 44 24 38       	mov    rax,QWORD PTR [rsp+0x38]
   175b0:	48 89 54 24 08       	mov    QWORD PTR [rsp+0x8],rdx
   175b5:	41 83 cc 10          	or     r12d,0x10
   175b9:	8b 00                	mov    eax,DWORD PTR [rax]
   175bb:	83 f8 2f             	cmp    eax,0x2f
   175be:	0f 87 8c 0d 00 00    	ja     18350 <_svfprintf_r+0x15a0>
   175c4:	48 8b 7c 24 38       	mov    rdi,QWORD PTR [rsp+0x38]
   175c9:	89 c2                	mov    edx,eax
   175cb:	83 c0 08             	add    eax,0x8
   175ce:	89 07                	mov    DWORD PTR [rdi],eax
   175d0:	48 03 57 10          	add    rdx,QWORD PTR [rdi+0x10]
   175d4:	48 8b 32             	mov    rsi,QWORD PTR [rdx]
   175d7:	b8 01 00 00 00       	mov    eax,0x1
   175dc:	e9 b7 fd ff ff       	jmp    17398 <_svfprintf_r+0x5e8>
   175e1:	48 8b 44 24 38       	mov    rax,QWORD PTR [rsp+0x38]
   175e6:	48 89 54 24 08       	mov    QWORD PTR [rsp+0x8],rdx
   175eb:	41 83 cc 10          	or     r12d,0x10
   175ef:	8b 00                	mov    eax,DWORD PTR [rax]
   175f1:	83 f8 2f             	cmp    eax,0x2f
   175f4:	0f 86 6c 0d 00 00    	jbe    18366 <_svfprintf_r+0x15b6>
   175fa:	48 8b 7c 24 38       	mov    rdi,QWORD PTR [rsp+0x38]
   175ff:	48 8b 57 08          	mov    rdx,QWORD PTR [rdi+0x8]
   17603:	48 8d 42 08          	lea    rax,[rdx+0x8]
   17607:	48 89 47 08          	mov    QWORD PTR [rdi+0x8],rax
   1760b:	48 8b 32             	mov    rsi,QWORD PTR [rdx]
   1760e:	31 c0                	xor    eax,eax
   17610:	e9 83 fd ff ff       	jmp    17398 <_svfprintf_r+0x5e8>
   17615:	41 83 cc 08          	or     r12d,0x8
   17619:	e9 0a fb ff ff       	jmp    17128 <_svfprintf_r+0x378>
   1761e:	c6 84 24 9f 00 00 00 	mov    BYTE PTR [rsp+0x9f],0x2b
   17625:	2b 
   17626:	e9 fd fa ff ff       	jmp    17128 <_svfprintf_r+0x378>
   1762b:	41 83 cc 01          	or     r12d,0x1
   1762f:	e9 f4 fa ff ff       	jmp    17128 <_svfprintf_r+0x378>
   17634:	80 bc 24 9f 00 00 00 	cmp    BYTE PTR [rsp+0x9f],0x0
   1763b:	00 
   1763c:	0f 85 e6 fa ff ff    	jne    17128 <_svfprintf_r+0x378>
   17642:	c6 84 24 9f 00 00 00 	mov    BYTE PTR [rsp+0x9f],0x20
   17649:	20 
   1764a:	e9 d9 fa ff ff       	jmp    17128 <_svfprintf_r+0x378>
   1764f:	48 8b 44 24 38       	mov    rax,QWORD PTR [rsp+0x38]
   17654:	48 89 54 24 08       	mov    QWORD PTR [rsp+0x8],rdx
   17659:	41 83 cc 10          	or     r12d,0x10
   1765d:	8b 00                	mov    eax,DWORD PTR [rax]
   1765f:	83 f8 2f             	cmp    eax,0x2f
   17662:	0f 87 42 0c 00 00    	ja     182aa <_svfprintf_r+0x14fa>
   17668:	48 8b 4c 24 38       	mov    rcx,QWORD PTR [rsp+0x38]
   1766d:	89 c2                	mov    edx,eax
   1766f:	83 c0 08             	add    eax,0x8
   17672:	89 01                	mov    DWORD PTR [rcx],eax
   17674:	48 03 51 10          	add    rdx,QWORD PTR [rcx+0x10]
   17678:	48 8b 02             	mov    rax,QWORD PTR [rdx]
   1767b:	48 89 c6             	mov    rsi,rax
   1767e:	48 85 c0             	test   rax,rax
   17681:	0f 88 1a fc ff ff    	js     172a1 <_svfprintf_r+0x4f1>
   17687:	41 83 ff ff          	cmp    r15d,0xffffffff
   1768b:	0f 84 5f 0f 00 00    	je     185f0 <_svfprintf_r+0x1840>
   17691:	41 80 e4 7f          	and    r12b,0x7f
   17695:	44 89 24 24          	mov    DWORD PTR [rsp],r12d
   17699:	45 85 ff             	test   r15d,r15d
   1769c:	0f 85 46 0f 00 00    	jne    185e8 <_svfprintf_r+0x1838>
   176a2:	48 85 f6             	test   rsi,rsi
   176a5:	0f 85 3d 0f 00 00    	jne    185e8 <_svfprintf_r+0x1838>
   176ab:	c7 44 24 18 00 00 00 	mov    DWORD PTR [rsp+0x18],0x0
   176b2:	00 
   176b3:	48 8d 8c 24 88 01 00 	lea    rcx,[rsp+0x188]
   176ba:	00 
   176bb:	0f 1f 44 00 00       	nop    DWORD PTR [rax+rax*1+0x0]
   176c0:	8b 44 24 18          	mov    eax,DWORD PTR [rsp+0x18]
   176c4:	c7 44 24 40 00 00 00 	mov    DWORD PTR [rsp+0x40],0x0
   176cb:	00 
   176cc:	0f b6 94 24 9f 00 00 	movzx  edx,BYTE PTR [rsp+0x9f]
   176d3:	00 
   176d4:	41 39 c7             	cmp    r15d,eax
   176d7:	89 c3                	mov    ebx,eax
   176d9:	41 0f 4d df          	cmovge ebx,r15d
   176dd:	84 d2                	test   dl,dl
   176df:	0f 84 c3 f8 ff ff    	je     16fa8 <_svfprintf_r+0x1f8>
   176e5:	83 c3 01             	add    ebx,0x1
   176e8:	e9 bb f8 ff ff       	jmp    16fa8 <_svfprintf_r+0x1f8>
   176ed:	41 80 cc 80          	or     r12b,0x80
   176f1:	e9 32 fa ff ff       	jmp    17128 <_svfprintf_r+0x378>
   176f6:	0f be 2a             	movsx  ebp,BYTE PTR [rdx]
   176f9:	48 8d 4a 01          	lea    rcx,[rdx+0x1]
   176fd:	83 fd 2a             	cmp    ebp,0x2a
   17700:	0f 84 07 1b 00 00    	je     1920d <_svfprintf_r+0x245d>
   17706:	8d 45 d0             	lea    eax,[rbp-0x30]
   17709:	48 89 ca             	mov    rdx,rcx
   1770c:	45 31 ff             	xor    r15d,r15d
   1770f:	83 f8 09             	cmp    eax,0x9
   17712:	0f 87 00 f8 ff ff    	ja     16f18 <_svfprintf_r+0x168>
   17718:	0f 1f 84 00 00 00 00 	nop    DWORD PTR [rax+rax*1+0x0]
   1771f:	00 
   17720:	0f be 2a             	movsx  ebp,BYTE PTR [rdx]
   17723:	43 8d 0c bf          	lea    ecx,[r15+r15*4]
   17727:	48 83 c2 01          	add    rdx,0x1
   1772b:	44 8d 3c 48          	lea    r15d,[rax+rcx*2]
   1772f:	8d 45 d0             	lea    eax,[rbp-0x30]
   17732:	83 f8 09             	cmp    eax,0x9
   17735:	76 e9                	jbe    17720 <_svfprintf_r+0x970>
   17737:	e9 dc f7 ff ff       	jmp    16f18 <_svfprintf_r+0x168>
   1773c:	0f 1f 40 00          	nop    DWORD PTR [rax+0x0]
   17740:	83 fd 65             	cmp    ebp,0x65
   17743:	0f 8e 0f 04 00 00    	jle    17b58 <_svfprintf_r+0xda8>
   17749:	f2 0f 10 4c 24 50    	movsd  xmm1,QWORD PTR [rsp+0x50]
   1774f:	66 0f ef d2          	pxor   xmm2,xmm2
   17753:	66 0f 2e ca          	ucomisd xmm1,xmm2
   17757:	0f 8a 03 08 00 00    	jp     17f60 <_svfprintf_r+0x11b0>
   1775d:	0f 85 fd 07 00 00    	jne    17f60 <_svfprintf_r+0x11b0>
   17763:	8b b4 24 b8 00 00 00 	mov    esi,DWORD PTR [rsp+0xb8]
   1776a:	48 83 c0 01          	add    rax,0x1
   1776e:	49 83 c3 10          	add    r11,0x10
   17772:	48 8d 0d 2e 8b ff ff 	lea    rcx,[rip+0xffffffffffff8b2e]        # 102a7 <zeroes.0-0x399>
   17779:	49 89 4b f0          	mov    QWORD PTR [r11-0x10],rcx
   1777d:	8d 56 01             	lea    edx,[rsi+0x1]
   17780:	49 c7 43 f8 01 00 00 	mov    QWORD PTR [r11-0x8],0x1
   17787:	00 
   17788:	48 89 84 24 c0 00 00 	mov    QWORD PTR [rsp+0xc0],rax
   1778f:	00 
   17790:	89 94 24 b8 00 00 00 	mov    DWORD PTR [rsp+0xb8],edx
   17797:	83 fa 07             	cmp    edx,0x7
   1779a:	0f 8f 97 11 00 00    	jg     18937 <_svfprintf_r+0x1b87>
   177a0:	8b 4c 24 4c          	mov    ecx,DWORD PTR [rsp+0x4c]
   177a4:	39 8c 24 a0 00 00 00 	cmp    DWORD PTR [rsp+0xa0],ecx
   177ab:	7c 0a                	jl     177b7 <_svfprintf_r+0xa07>
   177ad:	f6 04 24 01          	test   BYTE PTR [rsp],0x1
   177b1:	0f 84 0f f9 ff ff    	je     170c6 <_svfprintf_r+0x316>
   177b7:	48 8b 74 24 60       	mov    rsi,QWORD PTR [rsp+0x60]
   177bc:	48 8b 4c 24 58       	mov    rcx,QWORD PTR [rsp+0x58]
   177c1:	49 83 c3 10          	add    r11,0x10
   177c5:	49 89 73 f0          	mov    QWORD PTR [r11-0x10],rsi
   177c9:	8b b4 24 b8 00 00 00 	mov    esi,DWORD PTR [rsp+0xb8]
   177d0:	48 01 c8             	add    rax,rcx
   177d3:	49 89 4b f8          	mov    QWORD PTR [r11-0x8],rcx
   177d7:	8d 56 01             	lea    edx,[rsi+0x1]
   177da:	48 89 84 24 c0 00 00 	mov    QWORD PTR [rsp+0xc0],rax
   177e1:	00 
   177e2:	89 94 24 b8 00 00 00 	mov    DWORD PTR [rsp+0xb8],edx
   177e9:	83 fa 07             	cmp    edx,0x7
   177ec:	0f 8f cc 11 00 00    	jg     189be <_svfprintf_r+0x1c0e>
   177f2:	8b 7c 24 4c          	mov    edi,DWORD PTR [rsp+0x4c]
   177f6:	44 8d 67 ff          	lea    r12d,[rdi-0x1]
   177fa:	45 85 e4             	test   r12d,r12d
   177fd:	0f 8e c3 f8 ff ff    	jle    170c6 <_svfprintf_r+0x316>
   17803:	8b 94 24 b8 00 00 00 	mov    edx,DWORD PTR [rsp+0xb8]
   1780a:	4c 8d 2d 2f 8e ff ff 	lea    r13,[rip+0xffffffffffff8e2f]        # 10640 <zeroes.0>
   17811:	41 83 fc 10          	cmp    r12d,0x10
   17815:	0f 8e 0a 11 00 00    	jle    18925 <_svfprintf_r+0x1b75>
   1781b:	4c 89 e9             	mov    rcx,r13
   1781e:	89 5c 24 18          	mov    DWORD PTR [rsp+0x18],ebx
   17822:	45 89 e5             	mov    r13d,r12d
   17825:	4c 8b 7c 24 28       	mov    r15,QWORD PTR [rsp+0x28]
   1782a:	48 8b 5c 24 20       	mov    rbx,QWORD PTR [rsp+0x20]
   1782f:	48 8d ac 24 b0 00 00 	lea    rbp,[rsp+0xb0]
   17836:	00 
   17837:	49 89 cc             	mov    r12,rcx
   1783a:	eb 12                	jmp    1784e <_svfprintf_r+0xa9e>
   1783c:	0f 1f 40 00          	nop    DWORD PTR [rax+0x0]
   17840:	41 83 ed 10          	sub    r13d,0x10
   17844:	41 83 fd 10          	cmp    r13d,0x10
   17848:	0f 8e ca 10 00 00    	jle    18918 <_svfprintf_r+0x1b68>
   1784e:	48 83 c0 10          	add    rax,0x10
   17852:	83 c2 01             	add    edx,0x1
   17855:	4d 89 23             	mov    QWORD PTR [r11],r12
   17858:	49 83 c3 10          	add    r11,0x10
   1785c:	49 c7 43 f8 10 00 00 	mov    QWORD PTR [r11-0x8],0x10
   17863:	00 
   17864:	48 89 84 24 c0 00 00 	mov    QWORD PTR [rsp+0xc0],rax
   1786b:	00 
   1786c:	89 94 24 b8 00 00 00 	mov    DWORD PTR [rsp+0xb8],edx
   17873:	83 fa 07             	cmp    edx,0x7
   17876:	7e c8                	jle    17840 <_svfprintf_r+0xa90>
   17878:	48 89 ea             	mov    rdx,rbp
   1787b:	4c 89 fe             	mov    rsi,r15
   1787e:	4c 89 f7             	mov    rdi,r14
   17881:	e8 0a 23 00 00       	call   19b90 <__ssprint_r>
   17886:	85 c0                	test   eax,eax
   17888:	0f 85 da f8 ff ff    	jne    17168 <_svfprintf_r+0x3b8>
   1788e:	48 8b 84 24 c0 00 00 	mov    rax,QWORD PTR [rsp+0xc0]
   17895:	00 
   17896:	8b 94 24 b8 00 00 00 	mov    edx,DWORD PTR [rsp+0xb8]
   1789d:	49 89 db             	mov    r11,rbx
   178a0:	eb 9e                	jmp    17840 <_svfprintf_r+0xa90>
   178a2:	66 0f 1f 44 00 00    	nop    WORD PTR [rax+rax*1+0x0]
   178a8:	44 8b 64 24 14       	mov    r12d,DWORD PTR [rsp+0x14]
   178ad:	41 29 dc             	sub    r12d,ebx
   178b0:	45 85 e4             	test   r12d,r12d
   178b3:	0f 8e bd f7 ff ff    	jle    17076 <_svfprintf_r+0x2c6>
   178b9:	8b 94 24 b8 00 00 00 	mov    edx,DWORD PTR [rsp+0xb8]
   178c0:	4c 8d 2d 79 8d ff ff 	lea    r13,[rip+0xffffffffffff8d79]        # 10640 <zeroes.0>
   178c7:	41 83 fc 10          	cmp    r12d,0x10
   178cb:	0f 8e b8 00 00 00    	jle    17989 <_svfprintf_r+0xbd9>
   178d1:	48 8d bc 24 b0 00 00 	lea    rdi,[rsp+0xb0]
   178d8:	00 
   178d9:	89 6c 24 30          	mov    DWORD PTR [rsp+0x30],ebp
   178dd:	44 89 7c 24 78       	mov    DWORD PTR [rsp+0x78],r15d
   178e2:	48 89 fd             	mov    rbp,rdi
   178e5:	4d 89 ef             	mov    r15,r13
   178e8:	4d 89 f5             	mov    r13,r14
   178eb:	89 9c 24 80 00 00 00 	mov    DWORD PTR [rsp+0x80],ebx
   178f2:	4c 8b 74 24 20       	mov    r14,QWORD PTR [rsp+0x20]
   178f7:	48 89 4c 24 70       	mov    QWORD PTR [rsp+0x70],rcx
   178fc:	48 8b 5c 24 28       	mov    rbx,QWORD PTR [rsp+0x28]
   17901:	eb 0f                	jmp    17912 <_svfprintf_r+0xb62>
   17903:	0f 1f 44 00 00       	nop    DWORD PTR [rax+rax*1+0x0]
   17908:	41 83 ec 10          	sub    r12d,0x10
   1790c:	41 83 fc 10          	cmp    r12d,0x10
   17910:	7e 5c                	jle    1796e <_svfprintf_r+0xbbe>
   17912:	48 83 c0 10          	add    rax,0x10
   17916:	83 c2 01             	add    edx,0x1
   17919:	4d 89 3b             	mov    QWORD PTR [r11],r15
   1791c:	49 83 c3 10          	add    r11,0x10
   17920:	49 c7 43 f8 10 00 00 	mov    QWORD PTR [r11-0x8],0x10
   17927:	00 
   17928:	48 89 84 24 c0 00 00 	mov    QWORD PTR [rsp+0xc0],rax
   1792f:	00 
   17930:	89 94 24 b8 00 00 00 	mov    DWORD PTR [rsp+0xb8],edx
   17937:	83 fa 07             	cmp    edx,0x7
   1793a:	7e cc                	jle    17908 <_svfprintf_r+0xb58>
   1793c:	48 89 ea             	mov    rdx,rbp
   1793f:	48 89 de             	mov    rsi,rbx
   17942:	4c 89 ef             	mov    rdi,r13
   17945:	e8 46 22 00 00       	call   19b90 <__ssprint_r>
   1794a:	85 c0                	test   eax,eax
   1794c:	0f 85 16 f8 ff ff    	jne    17168 <_svfprintf_r+0x3b8>
   17952:	41 83 ec 10          	sub    r12d,0x10
   17956:	48 8b 84 24 c0 00 00 	mov    rax,QWORD PTR [rsp+0xc0]
   1795d:	00 
   1795e:	8b 94 24 b8 00 00 00 	mov    edx,DWORD PTR [rsp+0xb8]
   17965:	4d 89 f3             	mov    r11,r14
   17968:	41 83 fc 10          	cmp    r12d,0x10
   1796c:	7f a4                	jg     17912 <_svfprintf_r+0xb62>
   1796e:	4d 89 ee             	mov    r14,r13
   17971:	8b 6c 24 30          	mov    ebp,DWORD PTR [rsp+0x30]
   17975:	4d 89 fd             	mov    r13,r15
   17978:	48 8b 4c 24 70       	mov    rcx,QWORD PTR [rsp+0x70]
   1797d:	8b 9c 24 80 00 00 00 	mov    ebx,DWORD PTR [rsp+0x80]
   17984:	44 8b 7c 24 78       	mov    r15d,DWORD PTR [rsp+0x78]
   17989:	49 63 f4             	movsxd rsi,r12d
   1798c:	83 c2 01             	add    edx,0x1
   1798f:	4d 89 2b             	mov    QWORD PTR [r11],r13
   17992:	49 83 c3 10          	add    r11,0x10
   17996:	48 01 f0             	add    rax,rsi
   17999:	49 89 73 f8          	mov    QWORD PTR [r11-0x8],rsi
   1799d:	48 89 84 24 c0 00 00 	mov    QWORD PTR [rsp+0xc0],rax
   179a4:	00 
   179a5:	89 94 24 b8 00 00 00 	mov    DWORD PTR [rsp+0xb8],edx
   179ac:	83 fa 07             	cmp    edx,0x7
   179af:	0f 8e c1 f6 ff ff    	jle    17076 <_svfprintf_r+0x2c6>
   179b5:	48 8b 74 24 28       	mov    rsi,QWORD PTR [rsp+0x28]
   179ba:	48 8d 94 24 b0 00 00 	lea    rdx,[rsp+0xb0]
   179c1:	00 
   179c2:	4c 89 f7             	mov    rdi,r14
   179c5:	48 89 4c 24 30       	mov    QWORD PTR [rsp+0x30],rcx
   179ca:	e8 c1 21 00 00       	call   19b90 <__ssprint_r>
   179cf:	85 c0                	test   eax,eax
   179d1:	0f 85 91 f7 ff ff    	jne    17168 <_svfprintf_r+0x3b8>
   179d7:	44 2b 7c 24 18       	sub    r15d,DWORD PTR [rsp+0x18]
   179dc:	48 8b 84 24 c0 00 00 	mov    rax,QWORD PTR [rsp+0xc0]
   179e3:	00 
   179e4:	4c 8b 5c 24 20       	mov    r11,QWORD PTR [rsp+0x20]
   179e9:	48 8b 4c 24 30       	mov    rcx,QWORD PTR [rsp+0x30]
   179ee:	45 85 ff             	test   r15d,r15d
   179f1:	0f 8e 8d f6 ff ff    	jle    17084 <_svfprintf_r+0x2d4>
   179f7:	66 0f 1f 84 00 00 00 	nop    WORD PTR [rax+rax*1+0x0]
   179fe:	00 00 
   17a00:	8b 94 24 b8 00 00 00 	mov    edx,DWORD PTR [rsp+0xb8]
   17a07:	4c 8d 2d 32 8c ff ff 	lea    r13,[rip+0xffffffffffff8c32]        # 10640 <zeroes.0>
   17a0e:	41 83 ff 10          	cmp    r15d,0x10
   17a12:	0f 8e ac 00 00 00    	jle    17ac4 <_svfprintf_r+0xd14>
   17a18:	4c 8d a4 24 b0 00 00 	lea    r12,[rsp+0xb0]
   17a1f:	00 
   17a20:	4c 89 ee             	mov    rsi,r13
   17a23:	89 6c 24 30          	mov    DWORD PTR [rsp+0x30],ebp
   17a27:	45 89 fd             	mov    r13d,r15d
   17a2a:	89 5c 24 78          	mov    DWORD PTR [rsp+0x78],ebx
   17a2e:	48 8b 6c 24 20       	mov    rbp,QWORD PTR [rsp+0x20]
   17a33:	4c 89 e3             	mov    rbx,r12
   17a36:	49 89 f7             	mov    r15,rsi
   17a39:	48 89 4c 24 70       	mov    QWORD PTR [rsp+0x70],rcx
   17a3e:	4c 8b 64 24 28       	mov    r12,QWORD PTR [rsp+0x28]
   17a43:	eb 0d                	jmp    17a52 <_svfprintf_r+0xca2>
   17a45:	0f 1f 00             	nop    DWORD PTR [rax]
   17a48:	41 83 ed 10          	sub    r13d,0x10
   17a4c:	41 83 fd 10          	cmp    r13d,0x10
   17a50:	7e 5c                	jle    17aae <_svfprintf_r+0xcfe>
   17a52:	48 83 c0 10          	add    rax,0x10
   17a56:	83 c2 01             	add    edx,0x1
   17a59:	4d 89 3b             	mov    QWORD PTR [r11],r15
   17a5c:	49 83 c3 10          	add    r11,0x10
   17a60:	49 c7 43 f8 10 00 00 	mov    QWORD PTR [r11-0x8],0x10
   17a67:	00 
   17a68:	48 89 84 24 c0 00 00 	mov    QWORD PTR [rsp+0xc0],rax
   17a6f:	00 
   17a70:	89 94 24 b8 00 00 00 	mov    DWORD PTR [rsp+0xb8],edx
   17a77:	83 fa 07             	cmp    edx,0x7
   17a7a:	7e cc                	jle    17a48 <_svfprintf_r+0xc98>
   17a7c:	48 89 da             	mov    rdx,rbx
   17a7f:	4c 89 e6             	mov    rsi,r12
   17a82:	4c 89 f7             	mov    rdi,r14
   17a85:	e8 06 21 00 00       	call   19b90 <__ssprint_r>
   17a8a:	85 c0                	test   eax,eax
   17a8c:	0f 85 d6 f6 ff ff    	jne    17168 <_svfprintf_r+0x3b8>
   17a92:	41 83 ed 10          	sub    r13d,0x10
   17a96:	48 8b 84 24 c0 00 00 	mov    rax,QWORD PTR [rsp+0xc0]
   17a9d:	00 
   17a9e:	8b 94 24 b8 00 00 00 	mov    edx,DWORD PTR [rsp+0xb8]
   17aa5:	49 89 eb             	mov    r11,rbp
   17aa8:	41 83 fd 10          	cmp    r13d,0x10
   17aac:	7f a4                	jg     17a52 <_svfprintf_r+0xca2>
   17aae:	4c 89 fe             	mov    rsi,r15
   17ab1:	8b 6c 24 30          	mov    ebp,DWORD PTR [rsp+0x30]
   17ab5:	48 8b 4c 24 70       	mov    rcx,QWORD PTR [rsp+0x70]
   17aba:	45 89 ef             	mov    r15d,r13d
   17abd:	8b 5c 24 78          	mov    ebx,DWORD PTR [rsp+0x78]
   17ac1:	49 89 f5             	mov    r13,rsi
   17ac4:	4d 63 ff             	movsxd r15,r15d
   17ac7:	83 c2 01             	add    edx,0x1
   17aca:	4d 89 2b             	mov    QWORD PTR [r11],r13
   17acd:	49 83 c3 10          	add    r11,0x10
   17ad1:	4c 01 f8             	add    rax,r15
   17ad4:	4d 89 7b f8          	mov    QWORD PTR [r11-0x8],r15
   17ad8:	48 89 84 24 c0 00 00 	mov    QWORD PTR [rsp+0xc0],rax
   17adf:	00 
   17ae0:	89 94 24 b8 00 00 00 	mov    DWORD PTR [rsp+0xb8],edx
   17ae7:	83 fa 07             	cmp    edx,0x7
   17aea:	0f 8e 94 f5 ff ff    	jle    17084 <_svfprintf_r+0x2d4>
   17af0:	48 8b 74 24 28       	mov    rsi,QWORD PTR [rsp+0x28]
   17af5:	48 8d 94 24 b0 00 00 	lea    rdx,[rsp+0xb0]
   17afc:	00 
   17afd:	4c 89 f7             	mov    rdi,r14
   17b00:	48 89 4c 24 30       	mov    QWORD PTR [rsp+0x30],rcx
   17b05:	e8 86 20 00 00       	call   19b90 <__ssprint_r>
   17b0a:	85 c0                	test   eax,eax
   17b0c:	0f 85 56 f6 ff ff    	jne    17168 <_svfprintf_r+0x3b8>
   17b12:	48 8b 84 24 c0 00 00 	mov    rax,QWORD PTR [rsp+0xc0]
   17b19:	00 
   17b1a:	4c 8b 5c 24 20       	mov    r11,QWORD PTR [rsp+0x20]
   17b1f:	48 8b 4c 24 30       	mov    rcx,QWORD PTR [rsp+0x30]
   17b24:	e9 5b f5 ff ff       	jmp    17084 <_svfprintf_r+0x2d4>
   17b29:	0f 1f 80 00 00 00 00 	nop    DWORD PTR [rax+0x0]
   17b30:	48 8b 74 24 28       	mov    rsi,QWORD PTR [rsp+0x28]
   17b35:	48 8d 94 24 b0 00 00 	lea    rdx,[rsp+0xb0]
   17b3c:	00 
   17b3d:	4c 89 f7             	mov    rdi,r14
   17b40:	e8 4b 20 00 00       	call   19b90 <__ssprint_r>
   17b45:	85 c0                	test   eax,eax
   17b47:	0f 84 a6 f5 ff ff    	je     170f3 <_svfprintf_r+0x343>
   17b4d:	e9 16 f6 ff ff       	jmp    17168 <_svfprintf_r+0x3b8>
   17b52:	66 0f 1f 44 00 00    	nop    WORD PTR [rax+rax*1+0x0]
   17b58:	8b b4 24 b8 00 00 00 	mov    esi,DWORD PTR [rsp+0xb8]
   17b5f:	48 83 c0 01          	add    rax,0x1
   17b63:	83 7c 24 4c 01       	cmp    DWORD PTR [rsp+0x4c],0x1
   17b68:	8d 56 01             	lea    edx,[rsi+0x1]
   17b6b:	49 8d 73 10          	lea    rsi,[r11+0x10]
   17b6f:	0f 8e ad 05 00 00    	jle    18122 <_svfprintf_r+0x1372>
   17b75:	49 89 0b             	mov    QWORD PTR [r11],rcx
   17b78:	49 c7 43 08 01 00 00 	mov    QWORD PTR [r11+0x8],0x1
   17b7f:	00 
   17b80:	48 89 84 24 c0 00 00 	mov    QWORD PTR [rsp+0xc0],rax
   17b87:	00 
   17b88:	89 94 24 b8 00 00 00 	mov    DWORD PTR [rsp+0xb8],edx
   17b8f:	83 fa 07             	cmp    edx,0x7
   17b92:	0f 8f d2 06 00 00    	jg     1826a <_svfprintf_r+0x14ba>
   17b98:	48 8b 7c 24 60       	mov    rdi,QWORD PTR [rsp+0x60]
   17b9d:	83 c2 01             	add    edx,0x1
   17ba0:	48 83 c6 10          	add    rsi,0x10
   17ba4:	89 94 24 b8 00 00 00 	mov    DWORD PTR [rsp+0xb8],edx
   17bab:	48 89 7e f0          	mov    QWORD PTR [rsi-0x10],rdi
   17baf:	48 8b 7c 24 58       	mov    rdi,QWORD PTR [rsp+0x58]
   17bb4:	48 01 f8             	add    rax,rdi
   17bb7:	48 89 7e f8          	mov    QWORD PTR [rsi-0x8],rdi
   17bbb:	48 89 84 24 c0 00 00 	mov    QWORD PTR [rsp+0xc0],rax
   17bc2:	00 
   17bc3:	83 fa 07             	cmp    edx,0x7
   17bc6:	0f 8f 5e 06 00 00    	jg     1822a <_svfprintf_r+0x147a>
   17bcc:	f2 0f 10 5c 24 50    	movsd  xmm3,QWORD PTR [rsp+0x50]
   17bd2:	66 0f ef e4          	pxor   xmm4,xmm4
   17bd6:	8b 7c 24 4c          	mov    edi,DWORD PTR [rsp+0x4c]
   17bda:	66 0f 2e dc          	ucomisd xmm3,xmm4
   17bde:	44 8d 67 ff          	lea    r12d,[rdi-0x1]
   17be2:	7a 06                	jp     17bea <_svfprintf_r+0xe3a>
   17be4:	0f 84 9b 05 00 00    	je     18185 <_svfprintf_r+0x13d5>
   17bea:	4d 63 e4             	movsxd r12,r12d
   17bed:	83 c2 01             	add    edx,0x1
   17bf0:	48 83 c1 01          	add    rcx,0x1
   17bf4:	4c 01 e0             	add    rax,r12
   17bf7:	48 89 0e             	mov    QWORD PTR [rsi],rcx
   17bfa:	4c 89 66 08          	mov    QWORD PTR [rsi+0x8],r12
   17bfe:	48 89 84 24 c0 00 00 	mov    QWORD PTR [rsp+0xc0],rax
   17c05:	00 
   17c06:	89 94 24 b8 00 00 00 	mov    DWORD PTR [rsp+0xb8],edx
   17c0d:	83 fa 07             	cmp    edx,0x7
   17c10:	0f 8f 39 05 00 00    	jg     1814f <_svfprintf_r+0x139f>
   17c16:	48 83 c6 10          	add    rsi,0x10
   17c1a:	48 8d 8c 24 52 01 00 	lea    rcx,[rsp+0x152]
   17c21:	00 
   17c22:	83 c2 01             	add    edx,0x1
   17c25:	4c 8d 5e 10          	lea    r11,[rsi+0x10]
   17c29:	48 89 0e             	mov    QWORD PTR [rsi],rcx
   17c2c:	48 63 4c 24 7c       	movsxd rcx,DWORD PTR [rsp+0x7c]
   17c31:	89 94 24 b8 00 00 00 	mov    DWORD PTR [rsp+0xb8],edx
   17c38:	48 01 c8             	add    rax,rcx
   17c3b:	48 89 4e 08          	mov    QWORD PTR [rsi+0x8],rcx
   17c3f:	48 89 84 24 c0 00 00 	mov    QWORD PTR [rsp+0xc0],rax
   17c46:	00 
   17c47:	83 fa 07             	cmp    edx,0x7
   17c4a:	0f 8e 76 f4 ff ff    	jle    170c6 <_svfprintf_r+0x316>
   17c50:	48 8b 74 24 28       	mov    rsi,QWORD PTR [rsp+0x28]
   17c55:	48 8d 94 24 b0 00 00 	lea    rdx,[rsp+0xb0]
   17c5c:	00 
   17c5d:	4c 89 f7             	mov    rdi,r14
   17c60:	e8 2b 1f 00 00       	call   19b90 <__ssprint_r>
   17c65:	85 c0                	test   eax,eax
   17c67:	0f 85 fb f4 ff ff    	jne    17168 <_svfprintf_r+0x3b8>
   17c6d:	48 8b 84 24 c0 00 00 	mov    rax,QWORD PTR [rsp+0xc0]
   17c74:	00 
   17c75:	4c 8b 5c 24 20       	mov    r11,QWORD PTR [rsp+0x20]
   17c7a:	e9 47 f4 ff ff       	jmp    170c6 <_svfprintf_r+0x316>
   17c7f:	90                   	nop
   17c80:	8b 94 24 b8 00 00 00 	mov    edx,DWORD PTR [rsp+0xb8]
   17c87:	4c 8d 2d c2 89 ff ff 	lea    r13,[rip+0xffffffffffff89c2]        # 10650 <blanks.1>
   17c8e:	41 83 f8 10          	cmp    r8d,0x10
   17c92:	0f 8e d7 00 00 00    	jle    17d6f <_svfprintf_r+0xfbf>
   17c98:	48 8d bc 24 b0 00 00 	lea    rdi,[rsp+0xb0]
   17c9f:	00 
   17ca0:	44 89 64 24 70       	mov    DWORD PTR [rsp+0x70],r12d
   17ca5:	45 89 c4             	mov    r12d,r8d
   17ca8:	89 6c 24 78          	mov    DWORD PTR [rsp+0x78],ebp
   17cac:	48 89 fd             	mov    rbp,rdi
   17caf:	44 89 bc 24 88 00 00 	mov    DWORD PTR [rsp+0x88],r15d
   17cb6:	00 
   17cb7:	4d 89 ef             	mov    r15,r13
   17cba:	4d 89 f5             	mov    r13,r14
   17cbd:	4c 8b 74 24 20       	mov    r14,QWORD PTR [rsp+0x20]
   17cc2:	89 9c 24 8c 00 00 00 	mov    DWORD PTR [rsp+0x8c],ebx
   17cc9:	48 8b 5c 24 28       	mov    rbx,QWORD PTR [rsp+0x28]
   17cce:	48 89 8c 24 80 00 00 	mov    QWORD PTR [rsp+0x80],rcx
   17cd5:	00 
   17cd6:	eb 12                	jmp    17cea <_svfprintf_r+0xf3a>
   17cd8:	0f 1f 84 00 00 00 00 	nop    DWORD PTR [rax+rax*1+0x0]
   17cdf:	00 
   17ce0:	41 83 ec 10          	sub    r12d,0x10
   17ce4:	41 83 fc 10          	cmp    r12d,0x10
   17ce8:	7e 5c                	jle    17d46 <_svfprintf_r+0xf96>
   17cea:	48 83 c0 10          	add    rax,0x10
   17cee:	83 c2 01             	add    edx,0x1
   17cf1:	4d 89 3b             	mov    QWORD PTR [r11],r15
   17cf4:	49 83 c3 10          	add    r11,0x10
   17cf8:	49 c7 43 f8 10 00 00 	mov    QWORD PTR [r11-0x8],0x10
   17cff:	00 
   17d00:	48 89 84 24 c0 00 00 	mov    QWORD PTR [rsp+0xc0],rax
   17d07:	00 
   17d08:	89 94 24 b8 00 00 00 	mov    DWORD PTR [rsp+0xb8],edx
   17d0f:	83 fa 07             	cmp    edx,0x7
   17d12:	7e cc                	jle    17ce0 <_svfprintf_r+0xf30>
   17d14:	48 89 ea             	mov    rdx,rbp
   17d17:	48 89 de             	mov    rsi,rbx
   17d1a:	4c 89 ef             	mov    rdi,r13
   17d1d:	e8 6e 1e 00 00       	call   19b90 <__ssprint_r>
   17d22:	85 c0                	test   eax,eax
   17d24:	0f 85 3e f4 ff ff    	jne    17168 <_svfprintf_r+0x3b8>
   17d2a:	41 83 ec 10          	sub    r12d,0x10
   17d2e:	48 8b 84 24 c0 00 00 	mov    rax,QWORD PTR [rsp+0xc0]
   17d35:	00 
   17d36:	8b 94 24 b8 00 00 00 	mov    edx,DWORD PTR [rsp+0xb8]
   17d3d:	4d 89 f3             	mov    r11,r14
   17d40:	41 83 fc 10          	cmp    r12d,0x10
   17d44:	7f a4                	jg     17cea <_svfprintf_r+0xf3a>
   17d46:	45 89 e0             	mov    r8d,r12d
   17d49:	4d 89 ee             	mov    r14,r13
   17d4c:	8b 6c 24 78          	mov    ebp,DWORD PTR [rsp+0x78]
   17d50:	4d 89 fd             	mov    r13,r15
   17d53:	48 8b 8c 24 80 00 00 	mov    rcx,QWORD PTR [rsp+0x80]
   17d5a:	00 
   17d5b:	44 8b 64 24 70       	mov    r12d,DWORD PTR [rsp+0x70]
   17d60:	8b 9c 24 8c 00 00 00 	mov    ebx,DWORD PTR [rsp+0x8c]
   17d67:	44 8b bc 24 88 00 00 	mov    r15d,DWORD PTR [rsp+0x88]
   17d6e:	00 
   17d6f:	4d 63 c0             	movsxd r8,r8d
   17d72:	83 c2 01             	add    edx,0x1
   17d75:	4d 89 2b             	mov    QWORD PTR [r11],r13
   17d78:	49 83 c3 10          	add    r11,0x10
   17d7c:	4c 01 c0             	add    rax,r8
   17d7f:	4d 89 43 f8          	mov    QWORD PTR [r11-0x8],r8
   17d83:	48 89 84 24 c0 00 00 	mov    QWORD PTR [rsp+0xc0],rax
   17d8a:	00 
   17d8b:	89 94 24 b8 00 00 00 	mov    DWORD PTR [rsp+0xb8],edx
   17d92:	83 fa 07             	cmp    edx,0x7
   17d95:	0f 8e 42 f2 ff ff    	jle    16fdd <_svfprintf_r+0x22d>
   17d9b:	48 8b 74 24 28       	mov    rsi,QWORD PTR [rsp+0x28]
   17da0:	48 8d 94 24 b0 00 00 	lea    rdx,[rsp+0xb0]
   17da7:	00 
   17da8:	4c 89 f7             	mov    rdi,r14
   17dab:	48 89 4c 24 70       	mov    QWORD PTR [rsp+0x70],rcx
   17db0:	e8 db 1d 00 00       	call   19b90 <__ssprint_r>
   17db5:	85 c0                	test   eax,eax
   17db7:	0f 85 ab f3 ff ff    	jne    17168 <_svfprintf_r+0x3b8>
   17dbd:	48 8b 84 24 c0 00 00 	mov    rax,QWORD PTR [rsp+0xc0]
   17dc4:	00 
   17dc5:	4c 8b 5c 24 20       	mov    r11,QWORD PTR [rsp+0x20]
   17dca:	48 8b 4c 24 70       	mov    rcx,QWORD PTR [rsp+0x70]
   17dcf:	e9 09 f2 ff ff       	jmp    16fdd <_svfprintf_r+0x22d>
   17dd4:	0f 1f 40 00          	nop    DWORD PTR [rax+0x0]
   17dd8:	48 8b 74 24 28       	mov    rsi,QWORD PTR [rsp+0x28]
   17ddd:	48 8d 94 24 b0 00 00 	lea    rdx,[rsp+0xb0]
   17de4:	00 
   17de5:	4c 89 f7             	mov    rdi,r14
   17de8:	48 89 4c 24 70       	mov    QWORD PTR [rsp+0x70],rcx
   17ded:	e8 9e 1d 00 00       	call   19b90 <__ssprint_r>
   17df2:	85 c0                	test   eax,eax
   17df4:	0f 85 6e f3 ff ff    	jne    17168 <_svfprintf_r+0x3b8>
   17dfa:	48 8b 84 24 c0 00 00 	mov    rax,QWORD PTR [rsp+0xc0]
   17e01:	00 
   17e02:	4c 8b 5c 24 20       	mov    r11,QWORD PTR [rsp+0x20]
   17e07:	48 8b 4c 24 70       	mov    rcx,QWORD PTR [rsp+0x70]
   17e0c:	e9 14 f2 ff ff       	jmp    17025 <_svfprintf_r+0x275>
   17e11:	0f 1f 80 00 00 00 00 	nop    DWORD PTR [rax+0x0]
   17e18:	48 8b 74 24 28       	mov    rsi,QWORD PTR [rsp+0x28]
   17e1d:	48 8d 94 24 b0 00 00 	lea    rdx,[rsp+0xb0]
   17e24:	00 
   17e25:	4c 89 f7             	mov    rdi,r14
   17e28:	48 89 4c 24 70       	mov    QWORD PTR [rsp+0x70],rcx
   17e2d:	e8 5e 1d 00 00       	call   19b90 <__ssprint_r>
   17e32:	85 c0                	test   eax,eax
   17e34:	0f 85 2e f3 ff ff    	jne    17168 <_svfprintf_r+0x3b8>
   17e3a:	48 8b 84 24 c0 00 00 	mov    rax,QWORD PTR [rsp+0xc0]
   17e41:	00 
   17e42:	4c 8b 5c 24 20       	mov    r11,QWORD PTR [rsp+0x20]
   17e47:	48 8b 4c 24 70       	mov    rcx,QWORD PTR [rsp+0x70]
   17e4c:	e9 17 f2 ff ff       	jmp    17068 <_svfprintf_r+0x2b8>
   17e51:	0f 1f 80 00 00 00 00 	nop    DWORD PTR [rax+0x0]
   17e58:	8b 94 24 b8 00 00 00 	mov    edx,DWORD PTR [rsp+0xb8]
   17e5f:	4c 8d 2d ea 87 ff ff 	lea    r13,[rip+0xffffffffffff87ea]        # 10650 <blanks.1>
   17e66:	41 83 fc 10          	cmp    r12d,0x10
   17e6a:	0f 8e 9d 00 00 00    	jle    17f0d <_svfprintf_r+0x115d>
   17e70:	4c 89 e9             	mov    rcx,r13
   17e73:	89 1c 24             	mov    DWORD PTR [rsp],ebx
   17e76:	45 89 e5             	mov    r13d,r12d
   17e79:	4c 8b 7c 24 28       	mov    r15,QWORD PTR [rsp+0x28]
   17e7e:	4d 89 f4             	mov    r12,r14
   17e81:	48 8b 5c 24 20       	mov    rbx,QWORD PTR [rsp+0x20]
   17e86:	48 8d ac 24 b0 00 00 	lea    rbp,[rsp+0xb0]
   17e8d:	00 
   17e8e:	49 89 ce             	mov    r14,rcx
   17e91:	eb 0f                	jmp    17ea2 <_svfprintf_r+0x10f2>
   17e93:	0f 1f 44 00 00       	nop    DWORD PTR [rax+rax*1+0x0]
   17e98:	41 83 ed 10          	sub    r13d,0x10
   17e9c:	41 83 fd 10          	cmp    r13d,0x10
   17ea0:	7e 5c                	jle    17efe <_svfprintf_r+0x114e>
   17ea2:	48 83 c0 10          	add    rax,0x10
   17ea6:	83 c2 01             	add    edx,0x1
   17ea9:	4d 89 33             	mov    QWORD PTR [r11],r14
   17eac:	49 83 c3 10          	add    r11,0x10
   17eb0:	49 c7 43 f8 10 00 00 	mov    QWORD PTR [r11-0x8],0x10
   17eb7:	00 
   17eb8:	48 89 84 24 c0 00 00 	mov    QWORD PTR [rsp+0xc0],rax
   17ebf:	00 
   17ec0:	89 94 24 b8 00 00 00 	mov    DWORD PTR [rsp+0xb8],edx
   17ec7:	83 fa 07             	cmp    edx,0x7
   17eca:	7e cc                	jle    17e98 <_svfprintf_r+0x10e8>
   17ecc:	48 89 ea             	mov    rdx,rbp
   17ecf:	4c 89 fe             	mov    rsi,r15
   17ed2:	4c 89 e7             	mov    rdi,r12
   17ed5:	e8 b6 1c 00 00       	call   19b90 <__ssprint_r>
   17eda:	85 c0                	test   eax,eax
   17edc:	0f 85 86 f2 ff ff    	jne    17168 <_svfprintf_r+0x3b8>
   17ee2:	41 83 ed 10          	sub    r13d,0x10
   17ee6:	48 8b 84 24 c0 00 00 	mov    rax,QWORD PTR [rsp+0xc0]
   17eed:	00 
   17eee:	8b 94 24 b8 00 00 00 	mov    edx,DWORD PTR [rsp+0xb8]
   17ef5:	49 89 db             	mov    r11,rbx
   17ef8:	41 83 fd 10          	cmp    r13d,0x10
   17efc:	7f a4                	jg     17ea2 <_svfprintf_r+0x10f2>
   17efe:	4c 89 f1             	mov    rcx,r14
   17f01:	8b 1c 24             	mov    ebx,DWORD PTR [rsp]
   17f04:	4d 89 e6             	mov    r14,r12
   17f07:	45 89 ec             	mov    r12d,r13d
   17f0a:	49 89 cd             	mov    r13,rcx
   17f0d:	4d 63 e4             	movsxd r12,r12d
   17f10:	83 c2 01             	add    edx,0x1
   17f13:	4d 89 2b             	mov    QWORD PTR [r11],r13
   17f16:	4c 01 e0             	add    rax,r12
   17f19:	4d 89 63 08          	mov    QWORD PTR [r11+0x8],r12
   17f1d:	48 89 84 24 c0 00 00 	mov    QWORD PTR [rsp+0xc0],rax
   17f24:	00 
   17f25:	89 94 24 b8 00 00 00 	mov    DWORD PTR [rsp+0xb8],edx
   17f2c:	83 fa 07             	cmp    edx,0x7
   17f2f:	0f 8e a8 f1 ff ff    	jle    170dd <_svfprintf_r+0x32d>
   17f35:	48 8b 74 24 28       	mov    rsi,QWORD PTR [rsp+0x28]
   17f3a:	48 8d 94 24 b0 00 00 	lea    rdx,[rsp+0xb0]
   17f41:	00 
   17f42:	4c 89 f7             	mov    rdi,r14
   17f45:	e8 46 1c 00 00       	call   19b90 <__ssprint_r>
   17f4a:	85 c0                	test   eax,eax
   17f4c:	0f 85 16 f2 ff ff    	jne    17168 <_svfprintf_r+0x3b8>
   17f52:	48 8b 84 24 c0 00 00 	mov    rax,QWORD PTR [rsp+0xc0]
   17f59:	00 
   17f5a:	e9 7e f1 ff ff       	jmp    170dd <_svfprintf_r+0x32d>
   17f5f:	90                   	nop
   17f60:	8b b4 24 a0 00 00 00 	mov    esi,DWORD PTR [rsp+0xa0]
   17f67:	85 f6                	test   esi,esi
   17f69:	0f 8e f3 06 00 00    	jle    18662 <_svfprintf_r+0x18b2>
   17f6f:	8b 7c 24 40          	mov    edi,DWORD PTR [rsp+0x40]
   17f73:	8b 6c 24 4c          	mov    ebp,DWORD PTR [rsp+0x4c]
   17f77:	39 ef                	cmp    edi,ebp
   17f79:	0f 4e ef             	cmovle ebp,edi
   17f7c:	85 ed                	test   ebp,ebp
   17f7e:	7e 33                	jle    17fb3 <_svfprintf_r+0x1203>
   17f80:	8b b4 24 b8 00 00 00 	mov    esi,DWORD PTR [rsp+0xb8]
   17f87:	48 63 d5             	movsxd rdx,ebp
   17f8a:	49 89 0b             	mov    QWORD PTR [r11],rcx
   17f8d:	49 83 c3 10          	add    r11,0x10
   17f91:	48 01 d0             	add    rax,rdx
   17f94:	49 89 53 f8          	mov    QWORD PTR [r11-0x8],rdx
   17f98:	8d 56 01             	lea    edx,[rsi+0x1]
   17f9b:	48 89 84 24 c0 00 00 	mov    QWORD PTR [rsp+0xc0],rax
   17fa2:	00 
   17fa3:	89 94 24 b8 00 00 00 	mov    DWORD PTR [rsp+0xb8],edx
   17faa:	83 fa 07             	cmp    edx,0x7
   17fad:	0f 8f 62 0e 00 00    	jg     18e15 <_svfprintf_r+0x2065>
   17fb3:	31 d2                	xor    edx,edx
   17fb5:	85 ed                	test   ebp,ebp
   17fb7:	44 8b 64 24 40       	mov    r12d,DWORD PTR [rsp+0x40]
   17fbc:	0f 48 ea             	cmovs  ebp,edx
   17fbf:	41 29 ec             	sub    r12d,ebp
   17fc2:	45 85 e4             	test   r12d,r12d
   17fc5:	0f 8f 06 05 00 00    	jg     184d1 <_svfprintf_r+0x1721>
   17fcb:	8b b4 24 a0 00 00 00 	mov    esi,DWORD PTR [rsp+0xa0]
   17fd2:	3b 74 24 4c          	cmp    esi,DWORD PTR [rsp+0x4c]
   17fd6:	0f 8d 1c 04 00 00    	jge    183f8 <_svfprintf_r+0x1648>
   17fdc:	48 8b 7c 24 60       	mov    rdi,QWORD PTR [rsp+0x60]
   17fe1:	49 83 c3 10          	add    r11,0x10
   17fe5:	49 89 7b f0          	mov    QWORD PTR [r11-0x10],rdi
   17fe9:	48 8b 7c 24 58       	mov    rdi,QWORD PTR [rsp+0x58]
   17fee:	48 01 f8             	add    rax,rdi
   17ff1:	49 89 7b f8          	mov    QWORD PTR [r11-0x8],rdi
   17ff5:	8b bc 24 b8 00 00 00 	mov    edi,DWORD PTR [rsp+0xb8]
   17ffc:	48 89 84 24 c0 00 00 	mov    QWORD PTR [rsp+0xc0],rax
   18003:	00 
   18004:	8d 57 01             	lea    edx,[rdi+0x1]
   18007:	89 94 24 b8 00 00 00 	mov    DWORD PTR [rsp+0xb8],edx
   1800e:	83 fa 07             	cmp    edx,0x7
   18011:	0f 8f be 0d 00 00    	jg     18dd5 <_svfprintf_r+0x2025>
   18017:	8b 6c 24 4c          	mov    ebp,DWORD PTR [rsp+0x4c]
   1801b:	41 89 ec             	mov    r12d,ebp
   1801e:	41 29 f4             	sub    r12d,esi
   18021:	8b 74 24 40          	mov    esi,DWORD PTR [rsp+0x40]
   18025:	29 f5                	sub    ebp,esi
   18027:	44 39 e5             	cmp    ebp,r12d
   1802a:	41 0f 4f ec          	cmovg  ebp,r12d
   1802e:	85 ed                	test   ebp,ebp
   18030:	7e 3a                	jle    1806c <_svfprintf_r+0x12bc>
   18032:	48 63 d6             	movsxd rdx,esi
   18035:	49 83 c3 10          	add    r11,0x10
   18039:	48 01 ca             	add    rdx,rcx
   1803c:	8b 8c 24 b8 00 00 00 	mov    ecx,DWORD PTR [rsp+0xb8]
   18043:	49 89 53 f0          	mov    QWORD PTR [r11-0x10],rdx
   18047:	48 63 d5             	movsxd rdx,ebp
   1804a:	48 01 d0             	add    rax,rdx
   1804d:	49 89 53 f8          	mov    QWORD PTR [r11-0x8],rdx
   18051:	8d 51 01             	lea    edx,[rcx+0x1]
   18054:	48 89 84 24 c0 00 00 	mov    QWORD PTR [rsp+0xc0],rax
   1805b:	00 
   1805c:	89 94 24 b8 00 00 00 	mov    DWORD PTR [rsp+0xb8],edx
   18063:	83 fa 07             	cmp    edx,0x7
   18066:	0f 8f f9 0e 00 00    	jg     18f65 <_svfprintf_r+0x21b5>
   1806c:	31 d2                	xor    edx,edx
   1806e:	85 ed                	test   ebp,ebp
   18070:	0f 49 d5             	cmovns edx,ebp
   18073:	41 29 d4             	sub    r12d,edx
   18076:	45 85 e4             	test   r12d,r12d
   18079:	0f 8e 47 f0 ff ff    	jle    170c6 <_svfprintf_r+0x316>
   1807f:	8b 94 24 b8 00 00 00 	mov    edx,DWORD PTR [rsp+0xb8]
   18086:	4c 8d 2d b3 85 ff ff 	lea    r13,[rip+0xffffffffffff85b3]        # 10640 <zeroes.0>
   1808d:	41 83 fc 10          	cmp    r12d,0x10
   18091:	0f 8e 8e 08 00 00    	jle    18925 <_svfprintf_r+0x1b75>
   18097:	4c 89 ef             	mov    rdi,r13
   1809a:	89 5c 24 18          	mov    DWORD PTR [rsp+0x18],ebx
   1809e:	45 89 e5             	mov    r13d,r12d
   180a1:	4c 8b 7c 24 28       	mov    r15,QWORD PTR [rsp+0x28]
   180a6:	48 8b 5c 24 20       	mov    rbx,QWORD PTR [rsp+0x20]
   180ab:	48 8d ac 24 b0 00 00 	lea    rbp,[rsp+0xb0]
   180b2:	00 
   180b3:	49 89 fc             	mov    r12,rdi
   180b6:	eb 16                	jmp    180ce <_svfprintf_r+0x131e>
   180b8:	0f 1f 84 00 00 00 00 	nop    DWORD PTR [rax+rax*1+0x0]
   180bf:	00 
   180c0:	41 83 ed 10          	sub    r13d,0x10
   180c4:	41 83 fd 10          	cmp    r13d,0x10
   180c8:	0f 8e f5 0c 00 00    	jle    18dc3 <_svfprintf_r+0x2013>
   180ce:	48 83 c0 10          	add    rax,0x10
   180d2:	83 c2 01             	add    edx,0x1
   180d5:	4d 89 23             	mov    QWORD PTR [r11],r12
   180d8:	49 83 c3 10          	add    r11,0x10
   180dc:	49 c7 43 f8 10 00 00 	mov    QWORD PTR [r11-0x8],0x10
   180e3:	00 
   180e4:	48 89 84 24 c0 00 00 	mov    QWORD PTR [rsp+0xc0],rax
   180eb:	00 
   180ec:	89 94 24 b8 00 00 00 	mov    DWORD PTR [rsp+0xb8],edx
   180f3:	83 fa 07             	cmp    edx,0x7
   180f6:	7e c8                	jle    180c0 <_svfprintf_r+0x1310>
   180f8:	48 89 ea             	mov    rdx,rbp
   180fb:	4c 89 fe             	mov    rsi,r15
   180fe:	4c 89 f7             	mov    rdi,r14
   18101:	e8 8a 1a 00 00       	call   19b90 <__ssprint_r>
   18106:	85 c0                	test   eax,eax
   18108:	0f 85 5a f0 ff ff    	jne    17168 <_svfprintf_r+0x3b8>
   1810e:	48 8b 84 24 c0 00 00 	mov    rax,QWORD PTR [rsp+0xc0]
   18115:	00 
   18116:	8b 94 24 b8 00 00 00 	mov    edx,DWORD PTR [rsp+0xb8]
   1811d:	49 89 db             	mov    r11,rbx
   18120:	eb 9e                	jmp    180c0 <_svfprintf_r+0x1310>
   18122:	f6 04 24 01          	test   BYTE PTR [rsp],0x1
   18126:	0f 85 49 fa ff ff    	jne    17b75 <_svfprintf_r+0xdc5>
   1812c:	49 89 0b             	mov    QWORD PTR [r11],rcx
   1812f:	49 c7 43 08 01 00 00 	mov    QWORD PTR [r11+0x8],0x1
   18136:	00 
   18137:	48 89 84 24 c0 00 00 	mov    QWORD PTR [rsp+0xc0],rax
   1813e:	00 
   1813f:	89 94 24 b8 00 00 00 	mov    DWORD PTR [rsp+0xb8],edx
   18146:	83 fa 07             	cmp    edx,0x7
   18149:	0f 8e cb fa ff ff    	jle    17c1a <_svfprintf_r+0xe6a>
   1814f:	48 8b 74 24 28       	mov    rsi,QWORD PTR [rsp+0x28]
   18154:	48 8d 94 24 b0 00 00 	lea    rdx,[rsp+0xb0]
   1815b:	00 
   1815c:	4c 89 f7             	mov    rdi,r14
   1815f:	e8 2c 1a 00 00       	call   19b90 <__ssprint_r>
   18164:	85 c0                	test   eax,eax
   18166:	0f 85 fc ef ff ff    	jne    17168 <_svfprintf_r+0x3b8>
   1816c:	48 8b 84 24 c0 00 00 	mov    rax,QWORD PTR [rsp+0xc0]
   18173:	00 
   18174:	8b 94 24 b8 00 00 00 	mov    edx,DWORD PTR [rsp+0xb8]
   1817b:	48 8b 74 24 20       	mov    rsi,QWORD PTR [rsp+0x20]
   18180:	e9 95 fa ff ff       	jmp    17c1a <_svfprintf_r+0xe6a>
   18185:	45 85 e4             	test   r12d,r12d
   18188:	0f 8e 8c fa ff ff    	jle    17c1a <_svfprintf_r+0xe6a>
   1818e:	4c 8d 2d ab 84 ff ff 	lea    r13,[rip+0xffffffffffff84ab]        # 10640 <zeroes.0>
   18195:	41 83 fc 10          	cmp    r12d,0x10
   18199:	0f 8e c2 08 00 00    	jle    18a61 <_svfprintf_r+0x1cb1>
   1819f:	4c 89 e9             	mov    rcx,r13
   181a2:	89 5c 24 18          	mov    DWORD PTR [rsp+0x18],ebx
   181a6:	45 89 e5             	mov    r13d,r12d
   181a9:	4c 8b 7c 24 28       	mov    r15,QWORD PTR [rsp+0x28]
   181ae:	4d 89 f4             	mov    r12,r14
   181b1:	48 8b 5c 24 20       	mov    rbx,QWORD PTR [rsp+0x20]
   181b6:	48 8d ac 24 b0 00 00 	lea    rbp,[rsp+0xb0]
   181bd:	00 
   181be:	49 89 ce             	mov    r14,rcx
   181c1:	eb 13                	jmp    181d6 <_svfprintf_r+0x1426>
   181c3:	0f 1f 44 00 00       	nop    DWORD PTR [rax+rax*1+0x0]
   181c8:	41 83 ed 10          	sub    r13d,0x10
   181cc:	41 83 fd 10          	cmp    r13d,0x10
   181d0:	0f 8e 7b 08 00 00    	jle    18a51 <_svfprintf_r+0x1ca1>
   181d6:	48 83 c0 10          	add    rax,0x10
   181da:	83 c2 01             	add    edx,0x1
   181dd:	4c 89 36             	mov    QWORD PTR [rsi],r14
   181e0:	48 83 c6 10          	add    rsi,0x10
   181e4:	48 c7 46 f8 10 00 00 	mov    QWORD PTR [rsi-0x8],0x10
   181eb:	00 
   181ec:	48 89 84 24 c0 00 00 	mov    QWORD PTR [rsp+0xc0],rax
   181f3:	00 
   181f4:	89 94 24 b8 00 00 00 	mov    DWORD PTR [rsp+0xb8],edx
   181fb:	83 fa 07             	cmp    edx,0x7
   181fe:	7e c8                	jle    181c8 <_svfprintf_r+0x1418>
   18200:	48 89 ea             	mov    rdx,rbp
   18203:	4c 89 fe             	mov    rsi,r15
   18206:	4c 89 e7             	mov    rdi,r12
   18209:	e8 82 19 00 00       	call   19b90 <__ssprint_r>
   1820e:	85 c0                	test   eax,eax
   18210:	0f 85 52 ef ff ff    	jne    17168 <_svfprintf_r+0x3b8>
   18216:	48 8b 84 24 c0 00 00 	mov    rax,QWORD PTR [rsp+0xc0]
   1821d:	00 
   1821e:	8b 94 24 b8 00 00 00 	mov    edx,DWORD PTR [rsp+0xb8]
   18225:	48 89 de             	mov    rsi,rbx
   18228:	eb 9e                	jmp    181c8 <_svfprintf_r+0x1418>
   1822a:	48 8b 74 24 28       	mov    rsi,QWORD PTR [rsp+0x28]
   1822f:	48 8d 94 24 b0 00 00 	lea    rdx,[rsp+0xb0]
   18236:	00 
   18237:	4c 89 f7             	mov    rdi,r14
   1823a:	48 89 4c 24 18       	mov    QWORD PTR [rsp+0x18],rcx
   1823f:	e8 4c 19 00 00       	call   19b90 <__ssprint_r>
   18244:	85 c0                	test   eax,eax
   18246:	0f 85 1c ef ff ff    	jne    17168 <_svfprintf_r+0x3b8>
   1824c:	48 8b 84 24 c0 00 00 	mov    rax,QWORD PTR [rsp+0xc0]
   18253:	00 
   18254:	8b 94 24 b8 00 00 00 	mov    edx,DWORD PTR [rsp+0xb8]
   1825b:	48 8b 74 24 20       	mov    rsi,QWORD PTR [rsp+0x20]
   18260:	48 8b 4c 24 18       	mov    rcx,QWORD PTR [rsp+0x18]
   18265:	e9 62 f9 ff ff       	jmp    17bcc <_svfprintf_r+0xe1c>
   1826a:	48 8b 74 24 28       	mov    rsi,QWORD PTR [rsp+0x28]
   1826f:	48 8d 94 24 b0 00 00 	lea    rdx,[rsp+0xb0]
   18276:	00 
   18277:	4c 89 f7             	mov    rdi,r14
   1827a:	48 89 4c 24 18       	mov    QWORD PTR [rsp+0x18],rcx
   1827f:	e8 0c 19 00 00       	call   19b90 <__ssprint_r>
   18284:	85 c0                	test   eax,eax
   18286:	0f 85 dc ee ff ff    	jne    17168 <_svfprintf_r+0x3b8>
   1828c:	48 8b 84 24 c0 00 00 	mov    rax,QWORD PTR [rsp+0xc0]
   18293:	00 
   18294:	8b 94 24 b8 00 00 00 	mov    edx,DWORD PTR [rsp+0xb8]
   1829b:	48 8b 74 24 20       	mov    rsi,QWORD PTR [rsp+0x20]
   182a0:	48 8b 4c 24 18       	mov    rcx,QWORD PTR [rsp+0x18]
   182a5:	e9 ee f8 ff ff       	jmp    17b98 <_svfprintf_r+0xde8>
   182aa:	48 8b 7c 24 38       	mov    rdi,QWORD PTR [rsp+0x38]
   182af:	48 8b 57 08          	mov    rdx,QWORD PTR [rdi+0x8]
   182b3:	48 8d 42 08          	lea    rax,[rdx+0x8]
   182b7:	48 89 47 08          	mov    QWORD PTR [rdi+0x8],rax
   182bb:	e9 b8 f3 ff ff       	jmp    17678 <_svfprintf_r+0x8c8>
   182c0:	83 f8 2f             	cmp    eax,0x2f
   182c3:	0f 87 5a 08 00 00    	ja     18b23 <_svfprintf_r+0x1d73>
   182c9:	48 8b 74 24 38       	mov    rsi,QWORD PTR [rsp+0x38]
   182ce:	89 c2                	mov    edx,eax
   182d0:	83 c0 08             	add    eax,0x8
   182d3:	89 06                	mov    DWORD PTR [rsi],eax
   182d5:	48 03 56 10          	add    rdx,QWORD PTR [rsi+0x10]
   182d9:	48 63 32             	movsxd rsi,DWORD PTR [rdx]
   182dc:	48 89 f0             	mov    rax,rsi
   182df:	e9 9a f3 ff ff       	jmp    1767e <_svfprintf_r+0x8ce>
   182e4:	48 8b 74 24 38       	mov    rsi,QWORD PTR [rsp+0x38]
   182e9:	48 8b 4e 08          	mov    rcx,QWORD PTR [rsi+0x8]
   182ed:	48 8d 41 08          	lea    rax,[rcx+0x8]
   182f1:	48 89 46 08          	mov    QWORD PTR [rsi+0x8],rax
   182f5:	e9 31 f0 ff ff       	jmp    1732b <_svfprintf_r+0x57b>
   182fa:	48 8b 46 08          	mov    rax,QWORD PTR [rsi+0x8]
   182fe:	48 89 04 24          	mov    QWORD PTR [rsp],rax
   18302:	48 83 c0 0f          	add    rax,0xf
   18306:	48 83 e0 f0          	and    rax,0xfffffffffffffff0
   1830a:	48 8d 50 10          	lea    rdx,[rax+0x10]
   1830e:	48 89 56 08          	mov    QWORD PTR [rsi+0x8],rdx
   18312:	db 28                	fld    TBYTE PTR [rax]
   18314:	dd 5c 24 50          	fstp   QWORD PTR [rsp+0x50]
   18318:	e9 cb ee ff ff       	jmp    171e8 <_svfprintf_r+0x438>
   1831d:	41 83 e4 40          	and    r12d,0x40
   18321:	0f 84 a9 07 00 00    	je     18ad0 <_svfprintf_r+0x1d20>
   18327:	83 f8 2f             	cmp    eax,0x2f
   1832a:	0f 87 1e 0b 00 00    	ja     18e4e <_svfprintf_r+0x209e>
   18330:	48 8b 4c 24 38       	mov    rcx,QWORD PTR [rsp+0x38]
   18335:	89 c2                	mov    edx,eax
   18337:	83 c0 08             	add    eax,0x8
   1833a:	89 01                	mov    DWORD PTR [rcx],eax
   1833c:	48 03 51 10          	add    rdx,QWORD PTR [rcx+0x10]
   18340:	48 8b 02             	mov    rax,QWORD PTR [rdx]
   18343:	0f b7 4c 24 48       	movzx  ecx,WORD PTR [rsp+0x48]
   18348:	66 89 08             	mov    WORD PTR [rax],cx
   1834b:	e9 21 eb ff ff       	jmp    16e71 <_svfprintf_r+0xc1>
   18350:	48 8b 74 24 38       	mov    rsi,QWORD PTR [rsp+0x38]
   18355:	48 8b 56 08          	mov    rdx,QWORD PTR [rsi+0x8]
   18359:	48 8d 42 08          	lea    rax,[rdx+0x8]
   1835d:	48 89 46 08          	mov    QWORD PTR [rsi+0x8],rax
   18361:	e9 6e f2 ff ff       	jmp    175d4 <_svfprintf_r+0x824>
   18366:	48 8b 4c 24 38       	mov    rcx,QWORD PTR [rsp+0x38]
   1836b:	89 c2                	mov    edx,eax
   1836d:	83 c0 08             	add    eax,0x8
   18370:	89 01                	mov    DWORD PTR [rcx],eax
   18372:	48 03 51 10          	add    rdx,QWORD PTR [rcx+0x10]
   18376:	e9 90 f2 ff ff       	jmp    1760b <_svfprintf_r+0x85b>
   1837b:	83 f8 2f             	cmp    eax,0x2f
   1837e:	0f 87 20 07 00 00    	ja     18aa4 <_svfprintf_r+0x1cf4>
   18384:	48 8b 4c 24 38       	mov    rcx,QWORD PTR [rsp+0x38]
   18389:	89 c2                	mov    edx,eax
   1838b:	83 c0 08             	add    eax,0x8
   1838e:	89 01                	mov    DWORD PTR [rcx],eax
   18390:	48 03 51 10          	add    rdx,QWORD PTR [rcx+0x10]
   18394:	8b 32                	mov    esi,DWORD PTR [rdx]
   18396:	31 c0                	xor    eax,eax
   18398:	e9 fb ef ff ff       	jmp    17398 <_svfprintf_r+0x5e8>
   1839d:	48 8b 4c 24 38       	mov    rcx,QWORD PTR [rsp+0x38]
   183a2:	48 8b 51 08          	mov    rdx,QWORD PTR [rcx+0x8]
   183a6:	48 8d 42 08          	lea    rax,[rdx+0x8]
   183aa:	48 89 41 08          	mov    QWORD PTR [rcx+0x8],rax
   183ae:	e9 62 f0 ff ff       	jmp    17415 <_svfprintf_r+0x665>
   183b3:	89 c2                	mov    edx,eax
   183b5:	83 c0 08             	add    eax,0x8
   183b8:	48 03 51 10          	add    rdx,QWORD PTR [rcx+0x10]
   183bc:	89 01                	mov    DWORD PTR [rcx],eax
   183be:	e9 68 f1 ff ff       	jmp    1752b <_svfprintf_r+0x77b>
   183c3:	89 c2                	mov    edx,eax
   183c5:	83 c0 08             	add    eax,0x8
   183c8:	48 03 51 10          	add    rdx,QWORD PTR [rcx+0x10]
   183cc:	89 01                	mov    DWORD PTR [rcx],eax
   183ce:	e9 ad f1 ff ff       	jmp    17580 <_svfprintf_r+0x7d0>
   183d3:	83 f8 2f             	cmp    eax,0x2f
   183d6:	0f 87 1b 07 00 00    	ja     18af7 <_svfprintf_r+0x1d47>
   183dc:	48 8b 7c 24 38       	mov    rdi,QWORD PTR [rsp+0x38]
   183e1:	89 c2                	mov    edx,eax
   183e3:	83 c0 08             	add    eax,0x8
   183e6:	89 07                	mov    DWORD PTR [rdi],eax
   183e8:	48 03 57 10          	add    rdx,QWORD PTR [rdi+0x10]
   183ec:	8b 32                	mov    esi,DWORD PTR [rdx]
   183ee:	b8 01 00 00 00       	mov    eax,0x1
   183f3:	e9 a0 ef ff ff       	jmp    17398 <_svfprintf_r+0x5e8>
   183f8:	f6 04 24 01          	test   BYTE PTR [rsp],0x1
   183fc:	0f 85 da fb ff ff    	jne    17fdc <_svfprintf_r+0x122c>
   18402:	8b 4c 24 4c          	mov    ecx,DWORD PTR [rsp+0x4c]
   18406:	41 89 cc             	mov    r12d,ecx
   18409:	2b 4c 24 40          	sub    ecx,DWORD PTR [rsp+0x40]
   1840d:	41 29 f4             	sub    r12d,esi
   18410:	89 cd                	mov    ebp,ecx
   18412:	44 39 e1             	cmp    ecx,r12d
   18415:	41 0f 4f ec          	cmovg  ebp,r12d
   18419:	e9 4e fc ff ff       	jmp    1806c <_svfprintf_r+0x12bc>
   1841e:	48 8d 05 c0 7e ff ff 	lea    rax,[rip+0xffffffffffff7ec0]        # 102e5 <zeroes.0-0x35b>
   18425:	48 89 54 24 08       	mov    QWORD PTR [rsp+0x8],rdx
   1842a:	48 89 44 24 68       	mov    QWORD PTR [rsp+0x68],rax
   1842f:	48 8b 74 24 38       	mov    rsi,QWORD PTR [rsp+0x38]
   18434:	8b 06                	mov    eax,DWORD PTR [rsi]
   18436:	41 f6 c4 10          	test   r12b,0x10
   1843a:	0f 84 ee 01 00 00    	je     1862e <_svfprintf_r+0x187e>
   18440:	83 f8 2f             	cmp    eax,0x2f
   18443:	0f 87 99 04 00 00    	ja     188e2 <_svfprintf_r+0x1b32>
   18449:	89 c2                	mov    edx,eax
   1844b:	83 c0 08             	add    eax,0x8
   1844e:	48 03 56 10          	add    rdx,QWORD PTR [rsi+0x10]
   18452:	89 06                	mov    DWORD PTR [rsi],eax
   18454:	48 8b 32             	mov    rsi,QWORD PTR [rdx]
   18457:	b8 02 00 00 00       	mov    eax,0x2
   1845c:	41 f6 c4 01          	test   r12b,0x1
   18460:	0f 84 32 ef ff ff    	je     17398 <_svfprintf_r+0x5e8>
   18466:	48 85 f6             	test   rsi,rsi
   18469:	0f 84 29 ef ff ff    	je     17398 <_svfprintf_r+0x5e8>
   1846f:	c6 84 24 50 01 00 00 	mov    BYTE PTR [rsp+0x150],0x30
   18476:	30 
   18477:	41 83 cc 02          	or     r12d,0x2
   1847b:	40 88 ac 24 51 01 00 	mov    BYTE PTR [rsp+0x151],bpl
   18482:	00 
   18483:	e9 10 ef ff ff       	jmp    17398 <_svfprintf_r+0x5e8>
   18488:	be 40 00 00 00       	mov    esi,0x40
   1848d:	4c 89 ef             	mov    rdi,r13
   18490:	e8 eb db ff ff       	call   16080 <_malloc_r>
   18495:	48 8b 4c 24 28       	mov    rcx,QWORD PTR [rsp+0x28]
   1849a:	48 89 01             	mov    QWORD PTR [rcx],rax
   1849d:	48 89 41 18          	mov    QWORD PTR [rcx+0x18],rax
   184a1:	48 85 c0             	test   rax,rax
   184a4:	0f 84 43 0e 00 00    	je     192ed <_svfprintf_r+0x253d>
   184aa:	48 8b 44 24 28       	mov    rax,QWORD PTR [rsp+0x28]
   184af:	c7 40 20 40 00 00 00 	mov    DWORD PTR [rax+0x20],0x40
   184b6:	e9 5d e9 ff ff       	jmp    16e18 <_svfprintf_r+0x68>
   184bb:	48 8d 05 8b 7e ff ff 	lea    rax,[rip+0xffffffffffff7e8b]        # 1034d <zeroes.0-0x2f3>
   184c2:	48 89 54 24 08       	mov    QWORD PTR [rsp+0x8],rdx
   184c7:	48 89 44 24 68       	mov    QWORD PTR [rsp+0x68],rax
   184cc:	e9 5e ff ff ff       	jmp    1842f <_svfprintf_r+0x167f>
   184d1:	8b 94 24 b8 00 00 00 	mov    edx,DWORD PTR [rsp+0xb8]
   184d8:	4c 8d 2d 61 81 ff ff 	lea    r13,[rip+0xffffffffffff8161]        # 10640 <zeroes.0>
   184df:	41 83 fc 10          	cmp    r12d,0x10
   184e3:	0f 8e 35 08 00 00    	jle    18d1e <_svfprintf_r+0x1f6e>
   184e9:	48 8d ac 24 b0 00 00 	lea    rbp,[rsp+0xb0]
   184f0:	00 
   184f1:	48 89 4c 24 18       	mov    QWORD PTR [rsp+0x18],rcx
   184f6:	4c 8b 7c 24 28       	mov    r15,QWORD PTR [rsp+0x28]
   184fb:	48 89 e9             	mov    rcx,rbp
   184fe:	89 5c 24 30          	mov    DWORD PTR [rsp+0x30],ebx
   18502:	4c 89 f5             	mov    rbp,r14
   18505:	48 8b 5c 24 20       	mov    rbx,QWORD PTR [rsp+0x20]
   1850a:	4d 89 ee             	mov    r14,r13
   1850d:	45 89 e5             	mov    r13d,r12d
   18510:	49 89 cc             	mov    r12,rcx
   18513:	eb 11                	jmp    18526 <_svfprintf_r+0x1776>
   18515:	0f 1f 00             	nop    DWORD PTR [rax]
   18518:	41 83 ed 10          	sub    r13d,0x10
   1851c:	41 83 fd 10          	cmp    r13d,0x10
   18520:	0f 8e e6 07 00 00    	jle    18d0c <_svfprintf_r+0x1f5c>
   18526:	48 83 c0 10          	add    rax,0x10
   1852a:	83 c2 01             	add    edx,0x1
   1852d:	4d 89 33             	mov    QWORD PTR [r11],r14
   18530:	49 83 c3 10          	add    r11,0x10
   18534:	49 c7 43 f8 10 00 00 	mov    QWORD PTR [r11-0x8],0x10
   1853b:	00 
   1853c:	48 89 84 24 c0 00 00 	mov    QWORD PTR [rsp+0xc0],rax
   18543:	00 
   18544:	89 94 24 b8 00 00 00 	mov    DWORD PTR [rsp+0xb8],edx
   1854b:	83 fa 07             	cmp    edx,0x7
   1854e:	7e c8                	jle    18518 <_svfprintf_r+0x1768>
   18550:	4c 89 e2             	mov    rdx,r12
   18553:	4c 89 fe             	mov    rsi,r15
   18556:	48 89 ef             	mov    rdi,rbp
   18559:	e8 32 16 00 00       	call   19b90 <__ssprint_r>
   1855e:	85 c0                	test   eax,eax
   18560:	0f 85 02 ec ff ff    	jne    17168 <_svfprintf_r+0x3b8>
   18566:	48 8b 84 24 c0 00 00 	mov    rax,QWORD PTR [rsp+0xc0]
   1856d:	00 
   1856e:	8b 94 24 b8 00 00 00 	mov    edx,DWORD PTR [rsp+0xb8]
   18575:	49 89 db             	mov    r11,rbx
   18578:	eb 9e                	jmp    18518 <_svfprintf_r+0x1768>
   1857a:	66 0f 1f 44 00 00    	nop    WORD PTR [rax+rax*1+0x0]
   18580:	89 f0                	mov    eax,esi
   18582:	48 89 ca             	mov    rdx,rcx
   18585:	48 83 e9 01          	sub    rcx,0x1
   18589:	83 e0 07             	and    eax,0x7
   1858c:	83 c0 30             	add    eax,0x30
   1858f:	48 c1 ee 03          	shr    rsi,0x3
   18593:	88 01                	mov    BYTE PTR [rcx],al
   18595:	75 e9                	jne    18580 <_svfprintf_r+0x17d0>
   18597:	3c 30                	cmp    al,0x30
   18599:	0f 84 5f ed ff ff    	je     172fe <_svfprintf_r+0x54e>
   1859f:	41 f6 c4 01          	test   r12b,0x1
   185a3:	0f 84 55 ed ff ff    	je     172fe <_svfprintf_r+0x54e>
   185a9:	48 83 ea 02          	sub    rdx,0x2
   185ad:	44 89 c8             	mov    eax,r9d
   185b0:	c6 41 ff 30          	mov    BYTE PTR [rcx-0x1],0x30
   185b4:	29 d0                	sub    eax,edx
   185b6:	44 89 24 24          	mov    DWORD PTR [rsp],r12d
   185ba:	48 89 d1             	mov    rcx,rdx
   185bd:	89 44 24 18          	mov    DWORD PTR [rsp+0x18],eax
   185c1:	e9 fa f0 ff ff       	jmp    176c0 <_svfprintf_r+0x910>
   185c6:	66 2e 0f 1f 84 00 00 	cs nop WORD PTR [rax+rax*1+0x0]
   185cd:	00 00 00 
   185d0:	c7 44 24 18 00 00 00 	mov    DWORD PTR [rsp+0x18],0x0
   185d7:	00 
   185d8:	45 31 ff             	xor    r15d,r15d
   185db:	48 8d 8c 24 88 01 00 	lea    rcx,[rsp+0x188]
   185e2:	00 
   185e3:	e9 d8 f0 ff ff       	jmp    176c0 <_svfprintf_r+0x910>
   185e8:	44 8b 24 24          	mov    r12d,DWORD PTR [rsp]
   185ec:	0f 1f 40 00          	nop    DWORD PTR [rax+0x0]
   185f0:	48 83 fe 09          	cmp    rsi,0x9
   185f4:	0f 87 6c 03 00 00    	ja     18966 <_svfprintf_r+0x1bb6>
   185fa:	83 c6 30             	add    esi,0x30
   185fd:	44 89 24 24          	mov    DWORD PTR [rsp],r12d
   18601:	48 8d 8c 24 87 01 00 	lea    rcx,[rsp+0x187]
   18608:	00 
   18609:	40 88 b4 24 87 01 00 	mov    BYTE PTR [rsp+0x187],sil
   18610:	00 
   18611:	c7 44 24 18 01 00 00 	mov    DWORD PTR [rsp+0x18],0x1
   18618:	00 
   18619:	e9 a2 f0 ff ff       	jmp    176c0 <_svfprintf_r+0x910>
   1861e:	45 31 ff             	xor    r15d,r15d
   18621:	48 8d 8c 24 88 01 00 	lea    rcx,[rsp+0x188]
   18628:	00 
   18629:	e9 92 f0 ff ff       	jmp    176c0 <_svfprintf_r+0x910>
   1862e:	41 f6 c4 40          	test   r12b,0x40
   18632:	0f 84 c0 02 00 00    	je     188f8 <_svfprintf_r+0x1b48>
   18638:	83 f8 2f             	cmp    eax,0x2f
   1863b:	0f 87 3c 05 00 00    	ja     18b7d <_svfprintf_r+0x1dcd>
   18641:	48 8b 4c 24 38       	mov    rcx,QWORD PTR [rsp+0x38]
   18646:	89 c2                	mov    edx,eax
   18648:	83 c0 08             	add    eax,0x8
   1864b:	89 01                	mov    DWORD PTR [rcx],eax
   1864d:	48 03 51 10          	add    rdx,QWORD PTR [rcx+0x10]
   18651:	0f b7 32             	movzx  esi,WORD PTR [rdx]
   18654:	e9 fe fd ff ff       	jmp    18457 <_svfprintf_r+0x16a7>
   18659:	44 8b 24 24          	mov    r12d,DWORD PTR [rsp]
   1865d:	e9 5e ec ff ff       	jmp    172c0 <_svfprintf_r+0x510>
   18662:	48 8d 3d 3e 7c ff ff 	lea    rdi,[rip+0xffffffffffff7c3e]        # 102a7 <zeroes.0-0x399>
   18669:	48 83 c0 01          	add    rax,0x1
   1866d:	49 c7 43 08 01 00 00 	mov    QWORD PTR [r11+0x8],0x1
   18674:	00 
   18675:	49 83 c3 10          	add    r11,0x10
   18679:	49 89 7b f0          	mov    QWORD PTR [r11-0x10],rdi
   1867d:	8b bc 24 b8 00 00 00 	mov    edi,DWORD PTR [rsp+0xb8]
   18684:	48 89 84 24 c0 00 00 	mov    QWORD PTR [rsp+0xc0],rax
   1868b:	00 
   1868c:	8d 57 01             	lea    edx,[rdi+0x1]
   1868f:	89 94 24 b8 00 00 00 	mov    DWORD PTR [rsp+0xb8],edx
   18696:	83 fa 07             	cmp    edx,0x7
   18699:	0f 8f e4 06 00 00    	jg     18d83 <_svfprintf_r+0x1fd3>
   1869f:	8b 7c 24 4c          	mov    edi,DWORD PTR [rsp+0x4c]
   186a3:	09 f7                	or     edi,esi
   186a5:	0f 84 71 08 00 00    	je     18f1c <_svfprintf_r+0x216c>
   186ab:	48 8b 7c 24 60       	mov    rdi,QWORD PTR [rsp+0x60]
   186b0:	49 83 c3 10          	add    r11,0x10
   186b4:	49 89 7b f0          	mov    QWORD PTR [r11-0x10],rdi
   186b8:	48 8b 7c 24 58       	mov    rdi,QWORD PTR [rsp+0x58]
   186bd:	48 01 f8             	add    rax,rdi
   186c0:	49 89 7b f8          	mov    QWORD PTR [r11-0x8],rdi
   186c4:	8b bc 24 b8 00 00 00 	mov    edi,DWORD PTR [rsp+0xb8]
   186cb:	48 89 84 24 c0 00 00 	mov    QWORD PTR [rsp+0xc0],rax
   186d2:	00 
   186d3:	8d 57 01             	lea    edx,[rdi+0x1]
   186d6:	89 94 24 b8 00 00 00 	mov    DWORD PTR [rsp+0xb8],edx
   186dd:	83 fa 07             	cmp    edx,0x7
   186e0:	0f 8f ef 07 00 00    	jg     18ed5 <_svfprintf_r+0x2125>
   186e6:	85 f6                	test   esi,esi
   186e8:	0f 88 35 09 00 00    	js     19023 <_svfprintf_r+0x2273>
   186ee:	49 89 0b             	mov    QWORD PTR [r11],rcx
   186f1:	48 63 4c 24 4c       	movsxd rcx,DWORD PTR [rsp+0x4c]
   186f6:	49 89 4b 08          	mov    QWORD PTR [r11+0x8],rcx
   186fa:	48 01 c8             	add    rax,rcx
   186fd:	83 c2 01             	add    edx,0x1
   18700:	48 89 84 24 c0 00 00 	mov    QWORD PTR [rsp+0xc0],rax
   18707:	00 
   18708:	89 94 24 b8 00 00 00 	mov    DWORD PTR [rsp+0xb8],edx
   1870f:	83 fa 07             	cmp    edx,0x7
   18712:	0f 8e aa e9 ff ff    	jle    170c2 <_svfprintf_r+0x312>
   18718:	e9 33 f5 ff ff       	jmp    17c50 <_svfprintf_r+0xea0>
   1871d:	f2 0f 10 74 24 50    	movsd  xmm6,QWORD PTR [rsp+0x50]
   18723:	66 0f 2e f6          	ucomisd xmm6,xmm6
   18727:	0f 8a 73 0a 00 00    	jp     191a0 <_svfprintf_r+0x23f0>
   1872d:	89 eb                	mov    ebx,ebp
   1872f:	83 e3 df             	and    ebx,0xffffffdf
   18732:	41 83 ff ff          	cmp    r15d,0xffffffff
   18736:	0f 84 57 04 00 00    	je     18b93 <_svfprintf_r+0x1de3>
   1873c:	45 85 ff             	test   r15d,r15d
   1873f:	0f 85 54 04 00 00    	jne    18b99 <_svfprintf_r+0x1de9>
   18745:	83 fb 47             	cmp    ebx,0x47
   18748:	0f 85 4b 04 00 00    	jne    18b99 <_svfprintf_r+0x1de9>
   1874e:	44 89 e0             	mov    eax,r12d
   18751:	80 cc 01             	or     ah,0x1
   18754:	89 04 24             	mov    DWORD PTR [rsp],eax
   18757:	48 8b 44 24 50       	mov    rax,QWORD PTR [rsp+0x50]
   1875c:	48 c1 e8 20          	shr    rax,0x20
   18760:	85 c0                	test   eax,eax
   18762:	0f 88 73 05 00 00    	js     18cdb <_svfprintf_r+0x1f2b>
   18768:	f2 0f 10 44 24 50    	movsd  xmm0,QWORD PTR [rsp+0x50]
   1876e:	ba 01 00 00 00       	mov    edx,0x1
   18773:	4c 89 f7             	mov    rdi,r14
   18776:	48 8d 8c 24 a0 00 00 	lea    rcx,[rsp+0xa0]
   1877d:	00 
   1877e:	4c 8d 8c 24 a8 00 00 	lea    r9,[rsp+0xa8]
   18785:	00 
   18786:	4c 8d 84 24 a4 00 00 	lea    r8,[rsp+0xa4]
   1878d:	00 
   1878e:	be 02 00 00 00       	mov    esi,0x2
   18793:	4c 89 5c 24 18       	mov    QWORD PTR [rsp+0x18],r11
   18798:	e8 13 32 00 00       	call   1b9b0 <_dtoa_r>
   1879d:	f2 0f 10 44 24 50    	movsd  xmm0,QWORD PTR [rsp+0x50]
   187a3:	4c 8b 5c 24 18       	mov    r11,QWORD PTR [rsp+0x18]
   187a8:	45 31 ed             	xor    r13d,r13d
   187ab:	48 89 c1             	mov    rcx,rax
   187ae:	41 bf 01 00 00 00    	mov    r15d,0x1
   187b4:	b8 01 00 00 00       	mov    eax,0x1
   187b9:	41 f6 c4 01          	test   r12b,0x1
   187bd:	0f 85 72 04 00 00    	jne    18c35 <_svfprintf_r+0x1e85>
   187c3:	48 8b 84 24 a8 00 00 	mov    rax,QWORD PTR [rsp+0xa8]
   187ca:	00 
   187cb:	8b b4 24 a0 00 00 00 	mov    esi,DWORD PTR [rsp+0xa0]
   187d2:	48 29 c8             	sub    rax,rcx
   187d5:	89 74 24 40          	mov    DWORD PTR [rsp+0x40],esi
   187d9:	89 44 24 4c          	mov    DWORD PTR [rsp+0x4c],eax
   187dd:	8b 74 24 40          	mov    esi,DWORD PTR [rsp+0x40]
   187e1:	83 fe fd             	cmp    esi,0xfffffffd
   187e4:	7c 09                	jl     187ef <_svfprintf_r+0x1a3f>
   187e6:	41 39 f7             	cmp    r15d,esi
   187e9:	0f 8d b5 06 00 00    	jge    18ea4 <_svfprintf_r+0x20f4>
   187ef:	83 ed 02             	sub    ebp,0x2
   187f2:	8b 7c 24 40          	mov    edi,DWORD PTR [rsp+0x40]
   187f6:	40 88 ac 24 52 01 00 	mov    BYTE PTR [rsp+0x152],bpl
   187fd:	00 
   187fe:	b8 2b 00 00 00       	mov    eax,0x2b
   18803:	8d 57 ff             	lea    edx,[rdi-0x1]
   18806:	89 94 24 a0 00 00 00 	mov    DWORD PTR [rsp+0xa0],edx
   1880d:	85 d2                	test   edx,edx
   1880f:	79 0c                	jns    1881d <_svfprintf_r+0x1a6d>
   18811:	ba 01 00 00 00       	mov    edx,0x1
   18816:	b8 2d 00 00 00       	mov    eax,0x2d
   1881b:	29 fa                	sub    edx,edi
   1881d:	88 84 24 53 01 00 00 	mov    BYTE PTR [rsp+0x153],al
   18824:	83 fa 09             	cmp    edx,0x9
   18827:	0f 8e 97 08 00 00    	jle    190c4 <_svfprintf_r+0x2314>
   1882d:	48 8d 9c 24 60 01 00 	lea    rbx,[rsp+0x160]
   18834:	00 
   18835:	49 89 d9             	mov    r9,rbx
   18838:	48 63 c2             	movsxd rax,edx
   1883b:	89 d6                	mov    esi,edx
   1883d:	4d 89 c8             	mov    r8,r9
   18840:	48 69 c0 67 66 66 66 	imul   rax,rax,0x66666667
   18847:	c1 fe 1f             	sar    esi,0x1f
   1884a:	4d 8d 49 ff          	lea    r9,[r9-0x1]
   1884e:	48 c1 f8 22          	sar    rax,0x22
   18852:	29 f0                	sub    eax,esi
   18854:	89 d6                	mov    esi,edx
   18856:	8d 3c 80             	lea    edi,[rax+rax*4]
   18859:	01 ff                	add    edi,edi
   1885b:	29 fe                	sub    esi,edi
   1885d:	83 c6 30             	add    esi,0x30
   18860:	41 88 70 ff          	mov    BYTE PTR [r8-0x1],sil
   18864:	89 d6                	mov    esi,edx
   18866:	89 c2                	mov    edx,eax
   18868:	83 fe 63             	cmp    esi,0x63
   1886b:	7f cb                	jg     18838 <_svfprintf_r+0x1a88>
   1886d:	83 c2 30             	add    edx,0x30
   18870:	49 8d 40 fe          	lea    rax,[r8-0x2]
   18874:	41 88 51 ff          	mov    BYTE PTR [r9-0x1],dl
   18878:	48 39 d8             	cmp    rax,rbx
   1887b:	0f 83 ce 09 00 00    	jae    1924f <_svfprintf_r+0x249f>
   18881:	48 8d bc 24 54 01 00 	lea    rdi,[rsp+0x154]
   18888:	00 
   18889:	48 89 fe             	mov    rsi,rdi
   1888c:	eb 03                	jmp    18891 <_svfprintf_r+0x1ae1>
   1888e:	0f b6 10             	movzx  edx,BYTE PTR [rax]
   18891:	48 83 c0 01          	add    rax,0x1
   18895:	48 83 c6 01          	add    rsi,0x1
   18899:	88 56 ff             	mov    BYTE PTR [rsi-0x1],dl
   1889c:	48 39 d8             	cmp    rax,rbx
   1889f:	75 ed                	jne    1888e <_svfprintf_r+0x1ade>
   188a1:	4c 29 c7             	sub    rdi,r8
   188a4:	8d 47 10             	lea    eax,[rdi+0x10]
   188a7:	89 44 24 7c          	mov    DWORD PTR [rsp+0x7c],eax
   188ab:	8b 44 24 7c          	mov    eax,DWORD PTR [rsp+0x7c]
   188af:	8b 74 24 4c          	mov    esi,DWORD PTR [rsp+0x4c]
   188b3:	01 f0                	add    eax,esi
   188b5:	89 44 24 18          	mov    DWORD PTR [rsp+0x18],eax
   188b9:	83 fe 01             	cmp    esi,0x1
   188bc:	0f 8e c3 08 00 00    	jle    19185 <_svfprintf_r+0x23d5>
   188c2:	8b 7c 24 58          	mov    edi,DWORD PTR [rsp+0x58]
   188c6:	01 7c 24 18          	add    DWORD PTR [rsp+0x18],edi
   188ca:	31 db                	xor    ebx,ebx
   188cc:	8b 44 24 18          	mov    eax,DWORD PTR [rsp+0x18]
   188d0:	c7 44 24 40 00 00 00 	mov    DWORD PTR [rsp+0x40],0x0
   188d7:	00 
   188d8:	85 c0                	test   eax,eax
   188da:	0f 49 d8             	cmovns ebx,eax
   188dd:	e9 e0 03 00 00       	jmp    18cc2 <_svfprintf_r+0x1f12>
   188e2:	48 8b 4c 24 38       	mov    rcx,QWORD PTR [rsp+0x38]
   188e7:	48 8b 51 08          	mov    rdx,QWORD PTR [rcx+0x8]
   188eb:	48 8d 42 08          	lea    rax,[rdx+0x8]
   188ef:	48 89 41 08          	mov    QWORD PTR [rcx+0x8],rax
   188f3:	e9 5c fb ff ff       	jmp    18454 <_svfprintf_r+0x16a4>
   188f8:	83 f8 2f             	cmp    eax,0x2f
   188fb:	0f 87 64 02 00 00    	ja     18b65 <_svfprintf_r+0x1db5>
   18901:	48 8b 74 24 38       	mov    rsi,QWORD PTR [rsp+0x38]
   18906:	89 c2                	mov    edx,eax
   18908:	83 c0 08             	add    eax,0x8
   1890b:	48 03 56 10          	add    rdx,QWORD PTR [rsi+0x10]
   1890f:	89 06                	mov    DWORD PTR [rsi],eax
   18911:	8b 32                	mov    esi,DWORD PTR [rdx]
   18913:	e9 3f fb ff ff       	jmp    18457 <_svfprintf_r+0x16a7>
   18918:	4c 89 e1             	mov    rcx,r12
   1891b:	8b 5c 24 18          	mov    ebx,DWORD PTR [rsp+0x18]
   1891f:	45 89 ec             	mov    r12d,r13d
   18922:	49 89 cd             	mov    r13,rcx
   18925:	4d 63 e4             	movsxd r12,r12d
   18928:	4d 89 2b             	mov    QWORD PTR [r11],r13
   1892b:	4d 89 63 08          	mov    QWORD PTR [r11+0x8],r12
   1892f:	4c 01 e0             	add    rax,r12
   18932:	e9 c6 fd ff ff       	jmp    186fd <_svfprintf_r+0x194d>
   18937:	48 8b 74 24 28       	mov    rsi,QWORD PTR [rsp+0x28]
   1893c:	48 8d 94 24 b0 00 00 	lea    rdx,[rsp+0xb0]
   18943:	00 
   18944:	4c 89 f7             	mov    rdi,r14
   18947:	e8 44 12 00 00       	call   19b90 <__ssprint_r>
   1894c:	85 c0                	test   eax,eax
   1894e:	0f 85 14 e8 ff ff    	jne    17168 <_svfprintf_r+0x3b8>
   18954:	48 8b 84 24 c0 00 00 	mov    rax,QWORD PTR [rsp+0xc0]
   1895b:	00 
   1895c:	4c 8b 5c 24 20       	mov    r11,QWORD PTR [rsp+0x20]
   18961:	e9 3a ee ff ff       	jmp    177a0 <_svfprintf_r+0x9f0>
   18966:	4c 8d 8c 24 88 01 00 	lea    r9,[rsp+0x188]
   1896d:	00 
   1896e:	48 bf cd cc cc cc cc 	movabs rdi,0xcccccccccccccccd
   18975:	cc cc cc 
   18978:	4c 89 c9             	mov    rcx,r9
   1897b:	0f 1f 44 00 00       	nop    DWORD PTR [rax+rax*1+0x0]
   18980:	48 89 f0             	mov    rax,rsi
   18983:	48 83 e9 01          	sub    rcx,0x1
   18987:	48 f7 e7             	mul    rdi
   1898a:	48 89 f0             	mov    rax,rsi
   1898d:	48 c1 ea 03          	shr    rdx,0x3
   18991:	4c 8d 04 92          	lea    r8,[rdx+rdx*4]
   18995:	4d 01 c0             	add    r8,r8
   18998:	4c 29 c0             	sub    rax,r8
   1899b:	83 c0 30             	add    eax,0x30
   1899e:	88 01                	mov    BYTE PTR [rcx],al
   189a0:	48 89 f0             	mov    rax,rsi
   189a3:	48 89 d6             	mov    rsi,rdx
   189a6:	48 83 f8 09          	cmp    rax,0x9
   189aa:	77 d4                	ja     18980 <_svfprintf_r+0x1bd0>
   189ac:	44 89 c8             	mov    eax,r9d
   189af:	44 89 24 24          	mov    DWORD PTR [rsp],r12d
   189b3:	29 c8                	sub    eax,ecx
   189b5:	89 44 24 18          	mov    DWORD PTR [rsp+0x18],eax
   189b9:	e9 02 ed ff ff       	jmp    176c0 <_svfprintf_r+0x910>
   189be:	48 8b 74 24 28       	mov    rsi,QWORD PTR [rsp+0x28]
   189c3:	48 8d 94 24 b0 00 00 	lea    rdx,[rsp+0xb0]
   189ca:	00 
   189cb:	4c 89 f7             	mov    rdi,r14
   189ce:	e8 bd 11 00 00       	call   19b90 <__ssprint_r>
   189d3:	85 c0                	test   eax,eax
   189d5:	0f 85 8d e7 ff ff    	jne    17168 <_svfprintf_r+0x3b8>
   189db:	48 8b 84 24 c0 00 00 	mov    rax,QWORD PTR [rsp+0xc0]
   189e2:	00 
   189e3:	4c 8b 5c 24 20       	mov    r11,QWORD PTR [rsp+0x20]
   189e8:	e9 05 ee ff ff       	jmp    177f2 <_svfprintf_r+0xa42>
   189ed:	b8 06 00 00 00       	mov    eax,0x6
   189f2:	48 8d 0d b5 79 ff ff 	lea    rcx,[rip+0xffffffffffff79b5]        # 103ae <zeroes.0-0x292>
   189f9:	41 39 c7             	cmp    r15d,eax
   189fc:	41 0f 46 c7          	cmovbe eax,r15d
   18a00:	89 44 24 18          	mov    DWORD PTR [rsp+0x18],eax
   18a04:	89 c3                	mov    ebx,eax
   18a06:	e9 87 e5 ff ff       	jmp    16f92 <_svfprintf_r+0x1e2>
   18a0b:	48 89 cf             	mov    rdi,rcx
   18a0e:	4c 89 5c 24 70       	mov    QWORD PTR [rsp+0x70],r11
   18a13:	48 89 4c 24 30       	mov    QWORD PTR [rsp+0x30],rcx
   18a18:	e8 b3 c7 ff ff       	call   151d0 <strlen>
   18a1d:	44 89 24 24          	mov    DWORD PTR [rsp],r12d
   18a21:	48 8b 4c 24 30       	mov    rcx,QWORD PTR [rsp+0x30]
   18a26:	48 89 c3             	mov    rbx,rax
   18a29:	89 44 24 18          	mov    DWORD PTR [rsp+0x18],eax
   18a2d:	31 c0                	xor    eax,eax
   18a2f:	0f b6 94 24 9f 00 00 	movzx  edx,BYTE PTR [rsp+0x9f]
   18a36:	00 
   18a37:	85 db                	test   ebx,ebx
   18a39:	c7 44 24 40 00 00 00 	mov    DWORD PTR [rsp+0x40],0x0
   18a40:	00 
   18a41:	4c 8b 5c 24 70       	mov    r11,QWORD PTR [rsp+0x70]
   18a46:	0f 48 d8             	cmovs  ebx,eax
   18a49:	45 31 ff             	xor    r15d,r15d
   18a4c:	e9 8c ec ff ff       	jmp    176dd <_svfprintf_r+0x92d>
   18a51:	4c 89 f1             	mov    rcx,r14
   18a54:	8b 5c 24 18          	mov    ebx,DWORD PTR [rsp+0x18]
   18a58:	4d 89 e6             	mov    r14,r12
   18a5b:	45 89 ec             	mov    r12d,r13d
   18a5e:	49 89 cd             	mov    r13,rcx
   18a61:	4d 63 e4             	movsxd r12,r12d
   18a64:	83 c2 01             	add    edx,0x1
   18a67:	4c 89 2e             	mov    QWORD PTR [rsi],r13
   18a6a:	4c 01 e0             	add    rax,r12
   18a6d:	4c 89 66 08          	mov    QWORD PTR [rsi+0x8],r12
   18a71:	48 89 84 24 c0 00 00 	mov    QWORD PTR [rsp+0xc0],rax
   18a78:	00 
   18a79:	89 94 24 b8 00 00 00 	mov    DWORD PTR [rsp+0xb8],edx
   18a80:	83 fa 07             	cmp    edx,0x7
   18a83:	0f 8e 8d f1 ff ff    	jle    17c16 <_svfprintf_r+0xe66>
   18a89:	e9 c1 f6 ff ff       	jmp    1814f <_svfprintf_r+0x139f>
   18a8e:	48 8b 4c 24 38       	mov    rcx,QWORD PTR [rsp+0x38]
   18a93:	48 8b 51 08          	mov    rdx,QWORD PTR [rcx+0x8]
   18a97:	48 8d 42 08          	lea    rax,[rdx+0x8]
   18a9b:	48 89 41 08          	mov    QWORD PTR [rcx+0x8],rax
   18a9f:	e9 51 ea ff ff       	jmp    174f5 <_svfprintf_r+0x745>
   18aa4:	48 8b 7c 24 38       	mov    rdi,QWORD PTR [rsp+0x38]
   18aa9:	48 8b 57 08          	mov    rdx,QWORD PTR [rdi+0x8]
   18aad:	48 8d 42 08          	lea    rax,[rdx+0x8]
   18ab1:	48 89 47 08          	mov    QWORD PTR [rdi+0x8],rax
   18ab5:	e9 da f8 ff ff       	jmp    18394 <_svfprintf_r+0x15e4>
   18aba:	48 8b 74 24 38       	mov    rsi,QWORD PTR [rsp+0x38]
   18abf:	48 8b 56 08          	mov    rdx,QWORD PTR [rsi+0x8]
   18ac3:	48 8d 42 08          	lea    rax,[rdx+0x8]
   18ac7:	48 89 46 08          	mov    QWORD PTR [rsi+0x8],rax
   18acb:	e9 f1 e9 ff ff       	jmp    174c1 <_svfprintf_r+0x711>
   18ad0:	83 f8 2f             	cmp    eax,0x2f
   18ad3:	0f 87 8b 03 00 00    	ja     18e64 <_svfprintf_r+0x20b4>
   18ad9:	48 8b 74 24 38       	mov    rsi,QWORD PTR [rsp+0x38]
   18ade:	89 c2                	mov    edx,eax
   18ae0:	83 c0 08             	add    eax,0x8
   18ae3:	89 06                	mov    DWORD PTR [rsi],eax
   18ae5:	48 03 56 10          	add    rdx,QWORD PTR [rsi+0x10]
   18ae9:	48 8b 02             	mov    rax,QWORD PTR [rdx]
   18aec:	8b 4c 24 48          	mov    ecx,DWORD PTR [rsp+0x48]
   18af0:	89 08                	mov    DWORD PTR [rax],ecx
   18af2:	e9 7a e3 ff ff       	jmp    16e71 <_svfprintf_r+0xc1>
   18af7:	48 8b 74 24 38       	mov    rsi,QWORD PTR [rsp+0x38]
   18afc:	48 8b 56 08          	mov    rdx,QWORD PTR [rsi+0x8]
   18b00:	48 8d 42 08          	lea    rax,[rdx+0x8]
   18b04:	48 89 46 08          	mov    QWORD PTR [rsi+0x8],rax
   18b08:	e9 df f8 ff ff       	jmp    183ec <_svfprintf_r+0x163c>
   18b0d:	48 8b 4c 24 38       	mov    rcx,QWORD PTR [rsp+0x38]
   18b12:	48 8b 51 08          	mov    rdx,QWORD PTR [rcx+0x8]
   18b16:	48 8d 42 08          	lea    rax,[rdx+0x8]
   18b1a:	48 89 41 08          	mov    QWORD PTR [rcx+0x8],rax
   18b1e:	e9 67 e8 ff ff       	jmp    1738a <_svfprintf_r+0x5da>
   18b23:	48 8b 4c 24 38       	mov    rcx,QWORD PTR [rsp+0x38]
   18b28:	48 8b 51 08          	mov    rdx,QWORD PTR [rcx+0x8]
   18b2c:	48 8d 42 08          	lea    rax,[rdx+0x8]
   18b30:	48 89 41 08          	mov    QWORD PTR [rcx+0x8],rax
   18b34:	e9 a0 f7 ff ff       	jmp    182d9 <_svfprintf_r+0x1529>
   18b39:	48 8b 4c 24 38       	mov    rcx,QWORD PTR [rsp+0x38]
   18b3e:	48 8b 51 08          	mov    rdx,QWORD PTR [rcx+0x8]
   18b42:	48 8d 42 08          	lea    rax,[rdx+0x8]
   18b46:	48 89 41 08          	mov    QWORD PTR [rcx+0x8],rax
   18b4a:	e9 42 e7 ff ff       	jmp    17291 <_svfprintf_r+0x4e1>
   18b4f:	48 8b 7c 24 38       	mov    rdi,QWORD PTR [rsp+0x38]
   18b54:	48 8b 57 08          	mov    rdx,QWORD PTR [rdi+0x8]
   18b58:	48 8d 42 08          	lea    rax,[rdx+0x8]
   18b5c:	48 89 47 08          	mov    QWORD PTR [rdi+0x8],rax
   18b60:	e9 79 e6 ff ff       	jmp    171de <_svfprintf_r+0x42e>
   18b65:	48 8b 4c 24 38       	mov    rcx,QWORD PTR [rsp+0x38]
   18b6a:	48 8b 51 08          	mov    rdx,QWORD PTR [rcx+0x8]
   18b6e:	48 8d 42 08          	lea    rax,[rdx+0x8]
   18b72:	48 89 41 08          	mov    QWORD PTR [rcx+0x8],rax
   18b76:	8b 32                	mov    esi,DWORD PTR [rdx]
   18b78:	e9 da f8 ff ff       	jmp    18457 <_svfprintf_r+0x16a7>
   18b7d:	48 8b 7c 24 38       	mov    rdi,QWORD PTR [rsp+0x38]
   18b82:	48 8b 57 08          	mov    rdx,QWORD PTR [rdi+0x8]
   18b86:	48 8d 42 08          	lea    rax,[rdx+0x8]
   18b8a:	48 89 47 08          	mov    QWORD PTR [rdi+0x8],rax
   18b8e:	e9 be fa ff ff       	jmp    18651 <_svfprintf_r+0x18a1>
   18b93:	41 bf 06 00 00 00    	mov    r15d,0x6
   18b99:	f2 0f 10 44 24 50    	movsd  xmm0,QWORD PTR [rsp+0x50]
   18b9f:	44 89 e0             	mov    eax,r12d
   18ba2:	45 31 ed             	xor    r13d,r13d
   18ba5:	80 cc 01             	or     ah,0x1
   18ba8:	89 04 24             	mov    DWORD PTR [rsp],eax
   18bab:	66 48 0f 7e c0       	movq   rax,xmm0
   18bb0:	48 c1 e8 20          	shr    rax,0x20
   18bb4:	85 c0                	test   eax,eax
   18bb6:	0f 88 25 01 00 00    	js     18ce1 <_svfprintf_r+0x1f31>
   18bbc:	83 fb 46             	cmp    ebx,0x46
   18bbf:	0f 85 00 04 00 00    	jne    18fc5 <_svfprintf_r+0x2215>
   18bc5:	44 89 fa             	mov    edx,r15d
   18bc8:	be 03 00 00 00       	mov    esi,0x3
   18bcd:	4c 89 f7             	mov    rdi,r14
   18bd0:	4c 89 5c 24 30       	mov    QWORD PTR [rsp+0x30],r11
   18bd5:	48 8d 8c 24 a0 00 00 	lea    rcx,[rsp+0xa0]
   18bdc:	00 
   18bdd:	4c 8d 8c 24 a8 00 00 	lea    r9,[rsp+0xa8]
   18be4:	00 
   18be5:	f2 0f 11 44 24 18    	movsd  QWORD PTR [rsp+0x18],xmm0
   18beb:	4c 8d 84 24 a4 00 00 	lea    r8,[rsp+0xa4]
   18bf2:	00 
   18bf3:	e8 b8 2d 00 00       	call   1b9b0 <_dtoa_r>
   18bf8:	f2 0f 10 44 24 18    	movsd  xmm0,QWORD PTR [rsp+0x18]
   18bfe:	4c 8b 5c 24 30       	mov    r11,QWORD PTR [rsp+0x30]
   18c03:	49 63 d7             	movsxd rdx,r15d
   18c06:	80 38 30             	cmp    BYTE PTR [rax],0x30
   18c09:	48 89 c1             	mov    rcx,rax
   18c0c:	75 1b                	jne    18c29 <_svfprintf_r+0x1e79>
   18c0e:	66 0f ef f6          	pxor   xmm6,xmm6
   18c12:	be 01 00 00 00       	mov    esi,0x1
   18c17:	66 0f 2e c6          	ucomisd xmm0,xmm6
   18c1b:	0f 9a c0             	setp   al
   18c1e:	0f 45 c6             	cmovne eax,esi
   18c21:	84 c0                	test   al,al
   18c23:	0f 85 12 06 00 00    	jne    1923b <_svfprintf_r+0x248b>
   18c29:	8b 84 24 a0 00 00 00 	mov    eax,DWORD PTR [rsp+0xa0]
   18c30:	48 98                	cdqe   
   18c32:	48 01 d0             	add    rax,rdx
   18c35:	48 01 c8             	add    rax,rcx
   18c38:	66 0f ef ff          	pxor   xmm7,xmm7
   18c3c:	66 0f 2e c7          	ucomisd xmm0,xmm7
   18c40:	7a 05                	jp     18c47 <_svfprintf_r+0x1e97>
   18c42:	48 89 c6             	mov    rsi,rax
   18c45:	74 2d                	je     18c74 <_svfprintf_r+0x1ec4>
   18c47:	48 8b b4 24 a8 00 00 	mov    rsi,QWORD PTR [rsp+0xa8]
   18c4e:	00 
   18c4f:	48 39 c6             	cmp    rsi,rax
   18c52:	73 20                	jae    18c74 <_svfprintf_r+0x1ec4>
   18c54:	0f 1f 40 00          	nop    DWORD PTR [rax+0x0]
   18c58:	48 8d 56 01          	lea    rdx,[rsi+0x1]
   18c5c:	48 89 94 24 a8 00 00 	mov    QWORD PTR [rsp+0xa8],rdx
   18c63:	00 
   18c64:	c6 06 30             	mov    BYTE PTR [rsi],0x30
   18c67:	48 8b b4 24 a8 00 00 	mov    rsi,QWORD PTR [rsp+0xa8]
   18c6e:	00 
   18c6f:	48 39 f0             	cmp    rax,rsi
   18c72:	77 e4                	ja     18c58 <_svfprintf_r+0x1ea8>
   18c74:	48 89 f0             	mov    rax,rsi
   18c77:	8b b4 24 a0 00 00 00 	mov    esi,DWORD PTR [rsp+0xa0]
   18c7e:	48 29 c8             	sub    rax,rcx
   18c81:	89 44 24 4c          	mov    DWORD PTR [rsp+0x4c],eax
   18c85:	89 74 24 40          	mov    DWORD PTR [rsp+0x40],esi
   18c89:	83 fb 47             	cmp    ebx,0x47
   18c8c:	0f 84 4b fb ff ff    	je     187dd <_svfprintf_r+0x1a2d>
   18c92:	83 fd 66             	cmp    ebp,0x66
   18c95:	0f 85 57 fb ff ff    	jne    187f2 <_svfprintf_r+0x1a42>
   18c9b:	44 89 e0             	mov    eax,r12d
   18c9e:	8b 74 24 40          	mov    esi,DWORD PTR [rsp+0x40]
   18ca2:	83 e0 01             	and    eax,0x1
   18ca5:	44 09 f8             	or     eax,r15d
   18ca8:	85 f6                	test   esi,esi
   18caa:	0f 8e ac 05 00 00    	jle    1925c <_svfprintf_r+0x24ac>
   18cb0:	85 c0                	test   eax,eax
   18cb2:	8b 44 24 40          	mov    eax,DWORD PTR [rsp+0x40]
   18cb6:	0f 85 2a 05 00 00    	jne    191e6 <_svfprintf_r+0x2436>
   18cbc:	89 44 24 18          	mov    DWORD PTR [rsp+0x18],eax
   18cc0:	89 c3                	mov    ebx,eax
   18cc2:	45 84 ed             	test   r13b,r13b
   18cc5:	0f 84 c9 01 00 00    	je     18e94 <_svfprintf_r+0x20e4>
   18ccb:	c6 84 24 9f 00 00 00 	mov    BYTE PTR [rsp+0x9f],0x2d
   18cd2:	2d 
   18cd3:	45 31 ff             	xor    r15d,r15d
   18cd6:	e9 0a ea ff ff       	jmp    176e5 <_svfprintf_r+0x935>
   18cdb:	41 bf 01 00 00 00    	mov    r15d,0x1
   18ce1:	f2 0f 10 44 24 50    	movsd  xmm0,QWORD PTR [rsp+0x50]
   18ce7:	41 bd 2d 00 00 00    	mov    r13d,0x2d
   18ced:	66 0f 57 05 8b 79 ff 	xorpd  xmm0,XMMWORD PTR [rip+0xffffffffffff798b]        # 10680 <blanks.1+0x30>
   18cf4:	ff 
   18cf5:	e9 c2 fe ff ff       	jmp    18bbc <_svfprintf_r+0x1e0c>
   18cfa:	c6 84 24 9f 00 00 00 	mov    BYTE PTR [rsp+0x9f],0x2d
   18d01:	2d 
   18d02:	ba 2d 00 00 00       	mov    edx,0x2d
   18d07:	e9 12 e5 ff ff       	jmp    1721e <_svfprintf_r+0x46e>
   18d0c:	48 8b 4c 24 18       	mov    rcx,QWORD PTR [rsp+0x18]
   18d11:	8b 5c 24 30          	mov    ebx,DWORD PTR [rsp+0x30]
   18d15:	45 89 ec             	mov    r12d,r13d
   18d18:	4d 89 f5             	mov    r13,r14
   18d1b:	49 89 ee             	mov    r14,rbp
   18d1e:	4d 63 e4             	movsxd r12,r12d
   18d21:	83 c2 01             	add    edx,0x1
   18d24:	4d 89 2b             	mov    QWORD PTR [r11],r13
   18d27:	49 83 c3 10          	add    r11,0x10
   18d2b:	4c 01 e0             	add    rax,r12
   18d2e:	4d 89 63 f8          	mov    QWORD PTR [r11-0x8],r12
   18d32:	48 89 84 24 c0 00 00 	mov    QWORD PTR [rsp+0xc0],rax
   18d39:	00 
   18d3a:	89 94 24 b8 00 00 00 	mov    DWORD PTR [rsp+0xb8],edx
   18d41:	83 fa 07             	cmp    edx,0x7
   18d44:	0f 8e 81 f2 ff ff    	jle    17fcb <_svfprintf_r+0x121b>
   18d4a:	48 8b 74 24 28       	mov    rsi,QWORD PTR [rsp+0x28]
   18d4f:	48 8d 94 24 b0 00 00 	lea    rdx,[rsp+0xb0]
   18d56:	00 
   18d57:	4c 89 f7             	mov    rdi,r14
   18d5a:	48 89 4c 24 18       	mov    QWORD PTR [rsp+0x18],rcx
   18d5f:	e8 2c 0e 00 00       	call   19b90 <__ssprint_r>
   18d64:	85 c0                	test   eax,eax
   18d66:	0f 85 fc e3 ff ff    	jne    17168 <_svfprintf_r+0x3b8>
   18d6c:	48 8b 84 24 c0 00 00 	mov    rax,QWORD PTR [rsp+0xc0]
   18d73:	00 
   18d74:	4c 8b 5c 24 20       	mov    r11,QWORD PTR [rsp+0x20]
   18d79:	48 8b 4c 24 18       	mov    rcx,QWORD PTR [rsp+0x18]
   18d7e:	e9 48 f2 ff ff       	jmp    17fcb <_svfprintf_r+0x121b>
   18d83:	48 8b 74 24 28       	mov    rsi,QWORD PTR [rsp+0x28]
   18d88:	48 8d 94 24 b0 00 00 	lea    rdx,[rsp+0xb0]
   18d8f:	00 
   18d90:	4c 89 f7             	mov    rdi,r14
   18d93:	48 89 4c 24 18       	mov    QWORD PTR [rsp+0x18],rcx
   18d98:	e8 f3 0d 00 00       	call   19b90 <__ssprint_r>
   18d9d:	85 c0                	test   eax,eax
   18d9f:	0f 85 c3 e3 ff ff    	jne    17168 <_svfprintf_r+0x3b8>
   18da5:	8b b4 24 a0 00 00 00 	mov    esi,DWORD PTR [rsp+0xa0]
   18dac:	48 8b 84 24 c0 00 00 	mov    rax,QWORD PTR [rsp+0xc0]
   18db3:	00 
   18db4:	4c 8b 5c 24 20       	mov    r11,QWORD PTR [rsp+0x20]
   18db9:	48 8b 4c 24 18       	mov    rcx,QWORD PTR [rsp+0x18]
   18dbe:	e9 dc f8 ff ff       	jmp    1869f <_svfprintf_r+0x18ef>
   18dc3:	4c 89 e6             	mov    rsi,r12
   18dc6:	8b 5c 24 18          	mov    ebx,DWORD PTR [rsp+0x18]
   18dca:	45 89 ec             	mov    r12d,r13d
   18dcd:	49 89 f5             	mov    r13,rsi
   18dd0:	e9 50 fb ff ff       	jmp    18925 <_svfprintf_r+0x1b75>
   18dd5:	48 8b 74 24 28       	mov    rsi,QWORD PTR [rsp+0x28]
   18dda:	48 8d 94 24 b0 00 00 	lea    rdx,[rsp+0xb0]
   18de1:	00 
   18de2:	4c 89 f7             	mov    rdi,r14
   18de5:	48 89 4c 24 18       	mov    QWORD PTR [rsp+0x18],rcx
   18dea:	e8 a1 0d 00 00       	call   19b90 <__ssprint_r>
   18def:	85 c0                	test   eax,eax
   18df1:	0f 85 71 e3 ff ff    	jne    17168 <_svfprintf_r+0x3b8>
   18df7:	8b b4 24 a0 00 00 00 	mov    esi,DWORD PTR [rsp+0xa0]
   18dfe:	48 8b 84 24 c0 00 00 	mov    rax,QWORD PTR [rsp+0xc0]
   18e05:	00 
   18e06:	4c 8b 5c 24 20       	mov    r11,QWORD PTR [rsp+0x20]
   18e0b:	48 8b 4c 24 18       	mov    rcx,QWORD PTR [rsp+0x18]
   18e10:	e9 02 f2 ff ff       	jmp    18017 <_svfprintf_r+0x1267>
   18e15:	48 8b 74 24 28       	mov    rsi,QWORD PTR [rsp+0x28]
   18e1a:	48 8d 94 24 b0 00 00 	lea    rdx,[rsp+0xb0]
   18e21:	00 
   18e22:	4c 89 f7             	mov    rdi,r14
   18e25:	48 89 4c 24 18       	mov    QWORD PTR [rsp+0x18],rcx
   18e2a:	e8 61 0d 00 00       	call   19b90 <__ssprint_r>
   18e2f:	85 c0                	test   eax,eax
   18e31:	0f 85 31 e3 ff ff    	jne    17168 <_svfprintf_r+0x3b8>
   18e37:	48 8b 84 24 c0 00 00 	mov    rax,QWORD PTR [rsp+0xc0]
   18e3e:	00 
   18e3f:	4c 8b 5c 24 20       	mov    r11,QWORD PTR [rsp+0x20]
   18e44:	48 8b 4c 24 18       	mov    rcx,QWORD PTR [rsp+0x18]
   18e49:	e9 65 f1 ff ff       	jmp    17fb3 <_svfprintf_r+0x1203>
   18e4e:	48 8b 7c 24 38       	mov    rdi,QWORD PTR [rsp+0x38]
   18e53:	48 8b 57 08          	mov    rdx,QWORD PTR [rdi+0x8]
   18e57:	48 8d 42 08          	lea    rax,[rdx+0x8]
   18e5b:	48 89 47 08          	mov    QWORD PTR [rdi+0x8],rax
   18e5f:	e9 dc f4 ff ff       	jmp    18340 <_svfprintf_r+0x1590>
   18e64:	48 8b 4c 24 38       	mov    rcx,QWORD PTR [rsp+0x38]
   18e69:	48 8b 51 08          	mov    rdx,QWORD PTR [rcx+0x8]
   18e6d:	48 8d 42 08          	lea    rax,[rdx+0x8]
   18e71:	48 89 41 08          	mov    QWORD PTR [rcx+0x8],rax
   18e75:	e9 6f fc ff ff       	jmp    18ae9 <_svfprintf_r+0x1d39>
   18e7a:	48 8b 74 24 28       	mov    rsi,QWORD PTR [rsp+0x28]
   18e7f:	48 8d 94 24 b0 00 00 	lea    rdx,[rsp+0xb0]
   18e86:	00 
   18e87:	4c 89 f7             	mov    rdi,r14
   18e8a:	e8 01 0d 00 00       	call   19b90 <__ssprint_r>
   18e8f:	e9 d4 e2 ff ff       	jmp    17168 <_svfprintf_r+0x3b8>
   18e94:	0f b6 94 24 9f 00 00 	movzx  edx,BYTE PTR [rsp+0x9f]
   18e9b:	00 
   18e9c:	45 31 ff             	xor    r15d,r15d
   18e9f:	e9 39 e8 ff ff       	jmp    176dd <_svfprintf_r+0x92d>
   18ea4:	8b 74 24 40          	mov    esi,DWORD PTR [rsp+0x40]
   18ea8:	39 74 24 4c          	cmp    DWORD PTR [rsp+0x4c],esi
   18eac:	0f 8f 31 02 00 00    	jg     190e3 <_svfprintf_r+0x2333>
   18eb2:	41 83 e4 01          	and    r12d,0x1
   18eb6:	8b 44 24 40          	mov    eax,DWORD PTR [rsp+0x40]
   18eba:	0f 85 0c 03 00 00    	jne    191cc <_svfprintf_r+0x241c>
   18ec0:	31 db                	xor    ebx,ebx
   18ec2:	85 c0                	test   eax,eax
   18ec4:	89 44 24 18          	mov    DWORD PTR [rsp+0x18],eax
   18ec8:	bd 67 00 00 00       	mov    ebp,0x67
   18ecd:	0f 49 d8             	cmovns ebx,eax
   18ed0:	e9 ed fd ff ff       	jmp    18cc2 <_svfprintf_r+0x1f12>
   18ed5:	48 8b 74 24 28       	mov    rsi,QWORD PTR [rsp+0x28]
   18eda:	48 8d 94 24 b0 00 00 	lea    rdx,[rsp+0xb0]
   18ee1:	00 
   18ee2:	4c 89 f7             	mov    rdi,r14
   18ee5:	48 89 4c 24 18       	mov    QWORD PTR [rsp+0x18],rcx
   18eea:	e8 a1 0c 00 00       	call   19b90 <__ssprint_r>
   18eef:	85 c0                	test   eax,eax
   18ef1:	0f 85 71 e2 ff ff    	jne    17168 <_svfprintf_r+0x3b8>
   18ef7:	8b b4 24 a0 00 00 00 	mov    esi,DWORD PTR [rsp+0xa0]
   18efe:	48 8b 84 24 c0 00 00 	mov    rax,QWORD PTR [rsp+0xc0]
   18f05:	00 
   18f06:	8b 94 24 b8 00 00 00 	mov    edx,DWORD PTR [rsp+0xb8]
   18f0d:	4c 8b 5c 24 20       	mov    r11,QWORD PTR [rsp+0x20]
   18f12:	48 8b 4c 24 18       	mov    rcx,QWORD PTR [rsp+0x18]
   18f17:	e9 ca f7 ff ff       	jmp    186e6 <_svfprintf_r+0x1936>
   18f1c:	f6 04 24 01          	test   BYTE PTR [rsp],0x1
   18f20:	0f 84 a0 e1 ff ff    	je     170c6 <_svfprintf_r+0x316>
   18f26:	48 8b 7c 24 60       	mov    rdi,QWORD PTR [rsp+0x60]
   18f2b:	8b b4 24 b8 00 00 00 	mov    esi,DWORD PTR [rsp+0xb8]
   18f32:	49 89 3b             	mov    QWORD PTR [r11],rdi
   18f35:	48 8b 7c 24 58       	mov    rdi,QWORD PTR [rsp+0x58]
   18f3a:	8d 56 01             	lea    edx,[rsi+0x1]
   18f3d:	89 94 24 b8 00 00 00 	mov    DWORD PTR [rsp+0xb8],edx
   18f44:	48 01 f8             	add    rax,rdi
   18f47:	49 89 7b 08          	mov    QWORD PTR [r11+0x8],rdi
   18f4b:	48 89 84 24 c0 00 00 	mov    QWORD PTR [rsp+0xc0],rax
   18f52:	00 
   18f53:	83 fa 07             	cmp    edx,0x7
   18f56:	0f 8f 79 ff ff ff    	jg     18ed5 <_svfprintf_r+0x2125>
   18f5c:	49 83 c3 10          	add    r11,0x10
   18f60:	e9 89 f7 ff ff       	jmp    186ee <_svfprintf_r+0x193e>
   18f65:	48 8b 74 24 28       	mov    rsi,QWORD PTR [rsp+0x28]
   18f6a:	48 8d 94 24 b0 00 00 	lea    rdx,[rsp+0xb0]
   18f71:	00 
   18f72:	4c 89 f7             	mov    rdi,r14
   18f75:	e8 16 0c 00 00       	call   19b90 <__ssprint_r>
   18f7a:	85 c0                	test   eax,eax
   18f7c:	0f 85 e6 e1 ff ff    	jne    17168 <_svfprintf_r+0x3b8>
   18f82:	44 8b 64 24 4c       	mov    r12d,DWORD PTR [rsp+0x4c]
   18f87:	48 8b 84 24 c0 00 00 	mov    rax,QWORD PTR [rsp+0xc0]
   18f8e:	00 
   18f8f:	4c 8b 5c 24 20       	mov    r11,QWORD PTR [rsp+0x20]
   18f94:	44 2b a4 24 a0 00 00 	sub    r12d,DWORD PTR [rsp+0xa0]
   18f9b:	00 
   18f9c:	e9 cb f0 ff ff       	jmp    1806c <_svfprintf_r+0x12bc>
   18fa1:	44 89 7c 24 18       	mov    DWORD PTR [rsp+0x18],r15d
   18fa6:	44 89 fb             	mov    ebx,r15d
   18fa9:	0f b6 94 24 9f 00 00 	movzx  edx,BYTE PTR [rsp+0x9f]
   18fb0:	00 
   18fb1:	45 31 ff             	xor    r15d,r15d
   18fb4:	44 89 24 24          	mov    DWORD PTR [rsp],r12d
   18fb8:	c7 44 24 40 00 00 00 	mov    DWORD PTR [rsp+0x40],0x0
   18fbf:	00 
   18fc0:	e9 18 e7 ff ff       	jmp    176dd <_svfprintf_r+0x92d>
   18fc5:	83 fb 45             	cmp    ebx,0x45
   18fc8:	0f 85 ca 02 00 00    	jne    19298 <_svfprintf_r+0x24e8>
   18fce:	41 8d 57 01          	lea    edx,[r15+0x1]
   18fd2:	be 02 00 00 00       	mov    esi,0x2
   18fd7:	4c 89 f7             	mov    rdi,r14
   18fda:	4c 89 5c 24 40       	mov    QWORD PTR [rsp+0x40],r11
   18fdf:	48 8d 8c 24 a0 00 00 	lea    rcx,[rsp+0xa0]
   18fe6:	00 
   18fe7:	4c 8d 8c 24 a8 00 00 	lea    r9,[rsp+0xa8]
   18fee:	00 
   18fef:	89 54 24 30          	mov    DWORD PTR [rsp+0x30],edx
   18ff3:	4c 8d 84 24 a4 00 00 	lea    r8,[rsp+0xa4]
   18ffa:	00 
   18ffb:	f2 0f 11 44 24 18    	movsd  QWORD PTR [rsp+0x18],xmm0
   19001:	e8 aa 29 00 00       	call   1b9b0 <_dtoa_r>
   19006:	f2 0f 10 44 24 18    	movsd  xmm0,QWORD PTR [rsp+0x18]
   1900c:	8b 54 24 30          	mov    edx,DWORD PTR [rsp+0x30]
   19010:	4c 8b 5c 24 40       	mov    r11,QWORD PTR [rsp+0x40]
   19015:	48 89 c1             	mov    rcx,rax
   19018:	48 63 c2             	movsxd rax,edx
   1901b:	48 01 c8             	add    rax,rcx
   1901e:	e9 15 fc ff ff       	jmp    18c38 <_svfprintf_r+0x1e88>
   19023:	89 f5                	mov    ebp,esi
   19025:	4c 8d 2d 14 76 ff ff 	lea    r13,[rip+0xffffffffffff7614]        # 10640 <zeroes.0>
   1902c:	f7 dd                	neg    ebp
   1902e:	83 fe f0             	cmp    esi,0xfffffff0
   19031:	0f 8d e6 00 00 00    	jge    1911d <_svfprintf_r+0x236d>
   19037:	4c 8d a4 24 b0 00 00 	lea    r12,[rsp+0xb0]
   1903e:	00 
   1903f:	48 89 4c 24 18       	mov    QWORD PTR [rsp+0x18],rcx
   19044:	4c 8b 7c 24 28       	mov    r15,QWORD PTR [rsp+0x28]
   19049:	4c 89 e1             	mov    rcx,r12
   1904c:	41 89 ec             	mov    r12d,ebp
   1904f:	89 dd                	mov    ebp,ebx
   19051:	48 89 cb             	mov    rbx,rcx
   19054:	eb 18                	jmp    1906e <_svfprintf_r+0x22be>
   19056:	66 2e 0f 1f 84 00 00 	cs nop WORD PTR [rax+rax*1+0x0]
   1905d:	00 00 00 
   19060:	41 83 ec 10          	sub    r12d,0x10
   19064:	41 83 fc 10          	cmp    r12d,0x10
   19068:	0f 8e a5 00 00 00    	jle    19113 <_svfprintf_r+0x2363>
   1906e:	48 83 c0 10          	add    rax,0x10
   19072:	83 c2 01             	add    edx,0x1
   19075:	4d 89 2b             	mov    QWORD PTR [r11],r13
   19078:	49 83 c3 10          	add    r11,0x10
   1907c:	49 c7 43 f8 10 00 00 	mov    QWORD PTR [r11-0x8],0x10
   19083:	00 
   19084:	48 89 84 24 c0 00 00 	mov    QWORD PTR [rsp+0xc0],rax
   1908b:	00 
   1908c:	89 94 24 b8 00 00 00 	mov    DWORD PTR [rsp+0xb8],edx
   19093:	83 fa 07             	cmp    edx,0x7
   19096:	7e c8                	jle    19060 <_svfprintf_r+0x22b0>
   19098:	48 89 da             	mov    rdx,rbx
   1909b:	4c 89 fe             	mov    rsi,r15
   1909e:	4c 89 f7             	mov    rdi,r14
   190a1:	e8 ea 0a 00 00       	call   19b90 <__ssprint_r>
   190a6:	85 c0                	test   eax,eax
   190a8:	0f 85 ba e0 ff ff    	jne    17168 <_svfprintf_r+0x3b8>
   190ae:	48 8b 84 24 c0 00 00 	mov    rax,QWORD PTR [rsp+0xc0]
   190b5:	00 
   190b6:	8b 94 24 b8 00 00 00 	mov    edx,DWORD PTR [rsp+0xb8]
   190bd:	4c 8b 5c 24 20       	mov    r11,QWORD PTR [rsp+0x20]
   190c2:	eb 9c                	jmp    19060 <_svfprintf_r+0x22b0>
   190c4:	83 c2 30             	add    edx,0x30
   190c7:	c6 84 24 54 01 00 00 	mov    BYTE PTR [rsp+0x154],0x30
   190ce:	30 
   190cf:	88 94 24 55 01 00 00 	mov    BYTE PTR [rsp+0x155],dl
   190d6:	c7 44 24 7c 04 00 00 	mov    DWORD PTR [rsp+0x7c],0x4
   190dd:	00 
   190de:	e9 c8 f7 ff ff       	jmp    188ab <_svfprintf_r+0x1afb>
   190e3:	8b 54 24 40          	mov    edx,DWORD PTR [rsp+0x40]
   190e7:	03 44 24 58          	add    eax,DWORD PTR [rsp+0x58]
   190eb:	89 44 24 18          	mov    DWORD PTR [rsp+0x18],eax
   190ef:	85 d2                	test   edx,edx
   190f1:	7f 0f                	jg     19102 <_svfprintf_r+0x2352>
   190f3:	8b 6c 24 18          	mov    ebp,DWORD PTR [rsp+0x18]
   190f7:	2b 6c 24 40          	sub    ebp,DWORD PTR [rsp+0x40]
   190fb:	8d 45 01             	lea    eax,[rbp+0x1]
   190fe:	89 44 24 18          	mov    DWORD PTR [rsp+0x18],eax
   19102:	31 db                	xor    ebx,ebx
   19104:	85 c0                	test   eax,eax
   19106:	bd 67 00 00 00       	mov    ebp,0x67
   1910b:	0f 49 d8             	cmovns ebx,eax
   1910e:	e9 af fb ff ff       	jmp    18cc2 <_svfprintf_r+0x1f12>
   19113:	48 8b 4c 24 18       	mov    rcx,QWORD PTR [rsp+0x18]
   19118:	89 eb                	mov    ebx,ebp
   1911a:	44 89 e5             	mov    ebp,r12d
   1911d:	48 63 ed             	movsxd rbp,ebp
   19120:	83 c2 01             	add    edx,0x1
   19123:	4d 89 2b             	mov    QWORD PTR [r11],r13
   19126:	48 01 e8             	add    rax,rbp
   19129:	49 89 6b 08          	mov    QWORD PTR [r11+0x8],rbp
   1912d:	48 89 84 24 c0 00 00 	mov    QWORD PTR [rsp+0xc0],rax
   19134:	00 
   19135:	89 94 24 b8 00 00 00 	mov    DWORD PTR [rsp+0xb8],edx
   1913c:	83 fa 07             	cmp    edx,0x7
   1913f:	0f 8e 17 fe ff ff    	jle    18f5c <_svfprintf_r+0x21ac>
   19145:	48 8b 74 24 28       	mov    rsi,QWORD PTR [rsp+0x28]
   1914a:	48 8d 94 24 b0 00 00 	lea    rdx,[rsp+0xb0]
   19151:	00 
   19152:	4c 89 f7             	mov    rdi,r14
   19155:	48 89 4c 24 18       	mov    QWORD PTR [rsp+0x18],rcx
   1915a:	e8 31 0a 00 00       	call   19b90 <__ssprint_r>
   1915f:	85 c0                	test   eax,eax
   19161:	0f 85 01 e0 ff ff    	jne    17168 <_svfprintf_r+0x3b8>
   19167:	48 8b 84 24 c0 00 00 	mov    rax,QWORD PTR [rsp+0xc0]
   1916e:	00 
   1916f:	8b 94 24 b8 00 00 00 	mov    edx,DWORD PTR [rsp+0xb8]
   19176:	4c 8b 5c 24 20       	mov    r11,QWORD PTR [rsp+0x20]
   1917b:	48 8b 4c 24 18       	mov    rcx,QWORD PTR [rsp+0x18]
   19180:	e9 69 f5 ff ff       	jmp    186ee <_svfprintf_r+0x193e>
   19185:	41 83 e4 01          	and    r12d,0x1
   19189:	44 89 64 24 40       	mov    DWORD PTR [rsp+0x40],r12d
   1918e:	0f 85 2e f7 ff ff    	jne    188c2 <_svfprintf_r+0x1b12>
   19194:	31 db                	xor    ebx,ebx
   19196:	85 c0                	test   eax,eax
   19198:	0f 49 d8             	cmovns ebx,eax
   1919b:	e9 22 fb ff ff       	jmp    18cc2 <_svfprintf_r+0x1f12>
   191a0:	f2 0f 10 7c 24 50    	movsd  xmm7,QWORD PTR [rsp+0x50]
   191a6:	66 0f 50 c7          	movmskpd eax,xmm7
   191aa:	a8 01                	test   al,0x1
   191ac:	75 50                	jne    191fe <_svfprintf_r+0x244e>
   191ae:	0f b6 94 24 9f 00 00 	movzx  edx,BYTE PTR [rsp+0x9f]
   191b5:	00 
   191b6:	83 fd 48             	cmp    ebp,0x48
   191b9:	48 8d 0d 21 71 ff ff 	lea    rcx,[rip+0xffffffffffff7121]        # 102e1 <zeroes.0-0x35f>
   191c0:	48 8d 05 16 71 ff ff 	lea    rax,[rip+0xffffffffffff7116]        # 102dd <zeroes.0-0x363>
   191c7:	e9 63 e0 ff ff       	jmp    1722f <_svfprintf_r+0x47f>
   191cc:	03 44 24 58          	add    eax,DWORD PTR [rsp+0x58]
   191d0:	bb 00 00 00 00       	mov    ebx,0x0
   191d5:	bd 67 00 00 00       	mov    ebp,0x67
   191da:	89 44 24 18          	mov    DWORD PTR [rsp+0x18],eax
   191de:	0f 49 d8             	cmovns ebx,eax
   191e1:	e9 dc fa ff ff       	jmp    18cc2 <_svfprintf_r+0x1f12>
   191e6:	03 44 24 58          	add    eax,DWORD PTR [rsp+0x58]
   191ea:	bb 00 00 00 00       	mov    ebx,0x0
   191ef:	44 01 f8             	add    eax,r15d
   191f2:	89 44 24 18          	mov    DWORD PTR [rsp+0x18],eax
   191f6:	0f 49 d8             	cmovns ebx,eax
   191f9:	e9 c4 fa ff ff       	jmp    18cc2 <_svfprintf_r+0x1f12>
   191fe:	c6 84 24 9f 00 00 00 	mov    BYTE PTR [rsp+0x9f],0x2d
   19205:	2d 
   19206:	ba 2d 00 00 00       	mov    edx,0x2d
   1920b:	eb a9                	jmp    191b6 <_svfprintf_r+0x2406>
   1920d:	48 8b 74 24 38       	mov    rsi,QWORD PTR [rsp+0x38]
   19212:	8b 16                	mov    edx,DWORD PTR [rsi]
   19214:	83 fa 2f             	cmp    edx,0x2f
   19217:	77 6c                	ja     19285 <_svfprintf_r+0x24d5>
   19219:	89 d0                	mov    eax,edx
   1921b:	83 c2 08             	add    edx,0x8
   1921e:	48 03 46 10          	add    rax,QWORD PTR [rsi+0x10]
   19222:	89 16                	mov    DWORD PTR [rsi],edx
   19224:	44 8b 38             	mov    r15d,DWORD PTR [rax]
   19227:	b8 ff ff ff ff       	mov    eax,0xffffffff
   1922c:	48 89 ca             	mov    rdx,rcx
   1922f:	45 85 ff             	test   r15d,r15d
   19232:	44 0f 48 f8          	cmovs  r15d,eax
   19236:	e9 ed de ff ff       	jmp    17128 <_svfprintf_r+0x378>
   1923b:	b8 01 00 00 00       	mov    eax,0x1
   19240:	44 29 f8             	sub    eax,r15d
   19243:	89 84 24 a0 00 00 00 	mov    DWORD PTR [rsp+0xa0],eax
   1924a:	e9 e1 f9 ff ff       	jmp    18c30 <_svfprintf_r+0x1e80>
   1924f:	c7 44 24 7c 02 00 00 	mov    DWORD PTR [rsp+0x7c],0x2
   19256:	00 
   19257:	e9 4f f6 ff ff       	jmp    188ab <_svfprintf_r+0x1afb>
   1925c:	85 c0                	test   eax,eax
   1925e:	75 12                	jne    19272 <_svfprintf_r+0x24c2>
   19260:	c7 44 24 18 01 00 00 	mov    DWORD PTR [rsp+0x18],0x1
   19267:	00 
   19268:	bb 01 00 00 00       	mov    ebx,0x1
   1926d:	e9 50 fa ff ff       	jmp    18cc2 <_svfprintf_r+0x1f12>
   19272:	48 8b 44 24 58       	mov    rax,QWORD PTR [rsp+0x58]
   19277:	41 8d 44 07 01       	lea    eax,[r15+rax*1+0x1]
   1927c:	89 44 24 18          	mov    DWORD PTR [rsp+0x18],eax
   19280:	e9 0f ff ff ff       	jmp    19194 <_svfprintf_r+0x23e4>
   19285:	48 8b 74 24 38       	mov    rsi,QWORD PTR [rsp+0x38]
   1928a:	48 8b 46 08          	mov    rax,QWORD PTR [rsi+0x8]
   1928e:	48 8d 50 08          	lea    rdx,[rax+0x8]
   19292:	48 89 56 08          	mov    QWORD PTR [rsi+0x8],rdx
   19296:	eb 8c                	jmp    19224 <_svfprintf_r+0x2474>
   19298:	44 89 fa             	mov    edx,r15d
   1929b:	be 02 00 00 00       	mov    esi,0x2
   192a0:	4c 89 f7             	mov    rdi,r14
   192a3:	4c 89 5c 24 30       	mov    QWORD PTR [rsp+0x30],r11
   192a8:	48 8d 8c 24 a0 00 00 	lea    rcx,[rsp+0xa0]
   192af:	00 
   192b0:	4c 8d 8c 24 a8 00 00 	lea    r9,[rsp+0xa8]
   192b7:	00 
   192b8:	f2 0f 11 44 24 18    	movsd  QWORD PTR [rsp+0x18],xmm0
   192be:	4c 8d 84 24 a4 00 00 	lea    r8,[rsp+0xa4]
   192c5:	00 
   192c6:	e8 e5 26 00 00       	call   1b9b0 <_dtoa_r>
   192cb:	83 fb 47             	cmp    ebx,0x47
   192ce:	4c 8b 5c 24 30       	mov    r11,QWORD PTR [rsp+0x30]
   192d3:	44 89 fa             	mov    edx,r15d
   192d6:	48 89 c1             	mov    rcx,rax
   192d9:	f2 0f 10 44 24 18    	movsd  xmm0,QWORD PTR [rsp+0x18]
   192df:	49 63 c7             	movsxd rax,r15d
   192e2:	0f 85 30 fd ff ff    	jne    19018 <_svfprintf_r+0x2268>
   192e8:	e9 cc f4 ff ff       	jmp    187b9 <_svfprintf_r+0x1a09>
   192ed:	41 c7 45 00 0c 00 00 	mov    DWORD PTR [r13+0x0],0xc
   192f4:	00 
   192f5:	c7 44 24 48 ff ff ff 	mov    DWORD PTR [rsp+0x48],0xffffffff
   192fc:	ff 
   192fd:	e9 7d de ff ff       	jmp    1717f <_svfprintf_r+0x3cf>
   19302:	e8 79 02 00 00       	call   19580 <__stack_chk_fail>
   19307:	cc                   	int3   
   19308:	cc                   	int3   
   19309:	cc                   	int3   
   1930a:	cc                   	int3   
   1930b:	cc                   	int3   
   1930c:	cc                   	int3   
   1930d:	cc                   	int3   
   1930e:	cc                   	int3   
   1930f:	cc                   	int3   

0000000000019310 <__localeconv_l>:
   19310:	f3 0f 1e fa          	endbr64 
   19314:	48 8d 87 00 01 00 00 	lea    rax,[rdi+0x100]
   1931b:	c3                   	ret    
   1931c:	0f 1f 40 00          	nop    DWORD PTR [rax+0x0]

0000000000019320 <_localeconv_r>:
   19320:	f3 0f 1e fa          	endbr64 
   19324:	48 8d 05 b5 b5 00 00 	lea    rax,[rip+0xb5b5]        # 248e0 <__global_locale+0x100>
   1932b:	c3                   	ret    
   1932c:	0f 1f 40 00          	nop    DWORD PTR [rax+0x0]

0000000000019330 <localeconv>:
   19330:	f3 0f 1e fa          	endbr64 
   19334:	48 8d 05 a5 b5 00 00 	lea    rax,[rip+0xb5a5]        # 248e0 <__global_locale+0x100>
   1933b:	c3                   	ret    
   1933c:	cc                   	int3   
   1933d:	cc                   	int3   
   1933e:	cc                   	int3   
   1933f:	cc                   	int3   

0000000000019340 <_setlocale_r>:
   19340:	f3 0f 1e fa          	endbr64 
   19344:	48 85 d2             	test   rdx,rdx
   19347:	74 27                	je     19370 <_setlocale_r+0x30>
   19349:	55                   	push   rbp
   1934a:	48 8d 35 a9 6e ff ff 	lea    rsi,[rip+0xffffffffffff6ea9]        # 101fa <zeroes.0-0x446>
   19351:	48 89 d7             	mov    rdi,rdx
   19354:	48 89 d5             	mov    rbp,rdx
   19357:	e8 d4 00 00 00       	call   19430 <strcmp>
   1935c:	85 c0                	test   eax,eax
   1935e:	75 20                	jne    19380 <_setlocale_r+0x40>
   19360:	48 8d 05 65 6e ff ff 	lea    rax,[rip+0xffffffffffff6e65]        # 101cc <zeroes.0-0x474>
   19367:	5d                   	pop    rbp
   19368:	c3                   	ret    
   19369:	0f 1f 80 00 00 00 00 	nop    DWORD PTR [rax+0x0]
   19370:	48 8d 05 55 6e ff ff 	lea    rax,[rip+0xffffffffffff6e55]        # 101cc <zeroes.0-0x474>
   19377:	c3                   	ret    
   19378:	0f 1f 84 00 00 00 00 	nop    DWORD PTR [rax+rax*1+0x0]
   1937f:	00 
   19380:	48 8d 35 45 6e ff ff 	lea    rsi,[rip+0xffffffffffff6e45]        # 101cc <zeroes.0-0x474>
   19387:	48 89 ef             	mov    rdi,rbp
   1938a:	e8 a1 00 00 00       	call   19430 <strcmp>
   1938f:	85 c0                	test   eax,eax
   19391:	74 cd                	je     19360 <_setlocale_r+0x20>
   19393:	48 8d 35 5e 70 ff ff 	lea    rsi,[rip+0xffffffffffff705e]        # 103f8 <zeroes.0-0x248>
   1939a:	48 89 ef             	mov    rdi,rbp
   1939d:	e8 8e 00 00 00       	call   19430 <strcmp>
   193a2:	85 c0                	test   eax,eax
   193a4:	74 ba                	je     19360 <_setlocale_r+0x20>
   193a6:	31 c0                	xor    eax,eax
   193a8:	5d                   	pop    rbp
   193a9:	c3                   	ret    
   193aa:	66 0f 1f 44 00 00    	nop    WORD PTR [rax+rax*1+0x0]

00000000000193b0 <__locale_mb_cur_max>:
   193b0:	f3 0f 1e fa          	endbr64 
   193b4:	0f be 05 85 b5 00 00 	movsx  eax,BYTE PTR [rip+0xb585]        # 24940 <__global_locale+0x160>
   193bb:	c3                   	ret    
   193bc:	0f 1f 40 00          	nop    DWORD PTR [rax+0x0]

00000000000193c0 <setlocale>:
   193c0:	f3 0f 1e fa          	endbr64 
   193c4:	48 85 f6             	test   rsi,rsi
   193c7:	74 27                	je     193f0 <setlocale+0x30>
   193c9:	55                   	push   rbp
   193ca:	48 89 f5             	mov    rbp,rsi
   193cd:	48 8d 35 26 6e ff ff 	lea    rsi,[rip+0xffffffffffff6e26]        # 101fa <zeroes.0-0x446>
   193d4:	48 89 ef             	mov    rdi,rbp
   193d7:	e8 54 00 00 00       	call   19430 <strcmp>
   193dc:	85 c0                	test   eax,eax
   193de:	75 20                	jne    19400 <setlocale+0x40>
   193e0:	48 8d 05 e5 6d ff ff 	lea    rax,[rip+0xffffffffffff6de5]        # 101cc <zeroes.0-0x474>
   193e7:	5d                   	pop    rbp
   193e8:	c3                   	ret    
   193e9:	0f 1f 80 00 00 00 00 	nop    DWORD PTR [rax+0x0]
   193f0:	48 8d 05 d5 6d ff ff 	lea    rax,[rip+0xffffffffffff6dd5]        # 101cc <zeroes.0-0x474>
   193f7:	c3                   	ret    
   193f8:	0f 1f 84 00 00 00 00 	nop    DWORD PTR [rax+rax*1+0x0]
   193ff:	00 
   19400:	48 8d 35 c5 6d ff ff 	lea    rsi,[rip+0xffffffffffff6dc5]        # 101cc <zeroes.0-0x474>
   19407:	48 89 ef             	mov    rdi,rbp
   1940a:	e8 21 00 00 00       	call   19430 <strcmp>
   1940f:	85 c0                	test   eax,eax
   19411:	74 cd                	je     193e0 <setlocale+0x20>
   19413:	48 8d 35 de 6f ff ff 	lea    rsi,[rip+0xffffffffffff6fde]        # 103f8 <zeroes.0-0x248>
   1941a:	48 89 ef             	mov    rdi,rbp
   1941d:	e8 0e 00 00 00       	call   19430 <strcmp>
   19422:	85 c0                	test   eax,eax
   19424:	74 ba                	je     193e0 <setlocale+0x20>
   19426:	31 c0                	xor    eax,eax
   19428:	5d                   	pop    rbp
   19429:	c3                   	ret    
   1942a:	cc                   	int3   
   1942b:	cc                   	int3   
   1942c:	cc                   	int3   
   1942d:	cc                   	int3   
   1942e:	cc                   	int3   
   1942f:	cc                   	int3   

0000000000019430 <strcmp>:
   19430:	f3 0f 1e fa          	endbr64 
   19434:	48 89 f8             	mov    rax,rdi
   19437:	48 09 f0             	or     rax,rsi
   1943a:	a8 07                	test   al,0x7
   1943c:	75 66                	jne    194a4 <strcmp+0x74>
   1943e:	49 b8 ff fe fe fe fe 	movabs r8,0xfefefefefefefeff
   19445:	fe fe fe 
   19448:	48 8b 07             	mov    rax,QWORD PTR [rdi]
   1944b:	48 b9 80 80 80 80 80 	movabs rcx,0x8080808080808080
   19452:	80 80 80 
   19455:	48 3b 06             	cmp    rax,QWORD PTR [rsi]
   19458:	75 4a                	jne    194a4 <strcmp+0x74>
   1945a:	4a 8d 14 00          	lea    rdx,[rax+r8*1]
   1945e:	48 f7 d0             	not    rax
   19461:	48 21 d0             	and    rax,rdx
   19464:	48 85 c8             	test   rax,rcx
   19467:	75 26                	jne    1948f <strcmp+0x5f>
   19469:	0f 1f 80 00 00 00 00 	nop    DWORD PTR [rax+0x0]
   19470:	48 83 c6 08          	add    rsi,0x8
   19474:	48 83 c7 08          	add    rdi,0x8
   19478:	48 8b 07             	mov    rax,QWORD PTR [rdi]
   1947b:	48 3b 06             	cmp    rax,QWORD PTR [rsi]
   1947e:	75 24                	jne    194a4 <strcmp+0x74>
   19480:	4a 8d 14 00          	lea    rdx,[rax+r8*1]
   19484:	48 f7 d0             	not    rax
   19487:	48 21 d0             	and    rax,rdx
   1948a:	48 85 c8             	test   rax,rcx
   1948d:	74 e1                	je     19470 <strcmp+0x40>
   1948f:	31 c0                	xor    eax,eax
   19491:	c3                   	ret    
   19492:	66 0f 1f 44 00 00    	nop    WORD PTR [rax+rax*1+0x0]
   19498:	38 06                	cmp    BYTE PTR [rsi],al
   1949a:	75 11                	jne    194ad <strcmp+0x7d>
   1949c:	48 83 c7 01          	add    rdi,0x1
   194a0:	48 83 c6 01          	add    rsi,0x1
   194a4:	0f b6 07             	movzx  eax,BYTE PTR [rdi]
   194a7:	84 c0                	test   al,al
   194a9:	75 ed                	jne    19498 <strcmp+0x68>
   194ab:	31 c0                	xor    eax,eax
   194ad:	0f b6 16             	movzx  edx,BYTE PTR [rsi]
   194b0:	29 d0                	sub    eax,edx
   194b2:	c3                   	ret    
   194b3:	cc                   	int3   
   194b4:	cc                   	int3   
   194b5:	cc                   	int3   
   194b6:	cc                   	int3   
   194b7:	cc                   	int3   
   194b8:	cc                   	int3   
   194b9:	cc                   	int3   
   194ba:	cc                   	int3   
   194bb:	cc                   	int3   
   194bc:	cc                   	int3   
   194bd:	cc                   	int3   
   194be:	cc                   	int3   
   194bf:	cc                   	int3   

00000000000194c0 <_wctomb_r>:
   194c0:	f3 0f 1e fa          	endbr64 
   194c4:	ff 25 f6 b3 00 00    	jmp    QWORD PTR [rip+0xb3f6]        # 248c0 <__global_locale+0xe0>
   194ca:	66 0f 1f 44 00 00    	nop    WORD PTR [rax+rax*1+0x0]

00000000000194d0 <__ascii_wctomb>:
   194d0:	f3 0f 1e fa          	endbr64 
   194d4:	48 85 f6             	test   rsi,rsi
   194d7:	74 27                	je     19500 <__ascii_wctomb+0x30>
   194d9:	81 fa ff 00 00 00    	cmp    edx,0xff
   194df:	77 0f                	ja     194f0 <__ascii_wctomb+0x20>
   194e1:	88 16                	mov    BYTE PTR [rsi],dl
   194e3:	b8 01 00 00 00       	mov    eax,0x1
   194e8:	c3                   	ret    
   194e9:	0f 1f 80 00 00 00 00 	nop    DWORD PTR [rax+0x0]
   194f0:	c7 07 8a 00 00 00    	mov    DWORD PTR [rdi],0x8a
   194f6:	b8 ff ff ff ff       	mov    eax,0xffffffff
   194fb:	c3                   	ret    
   194fc:	0f 1f 40 00          	nop    DWORD PTR [rax+0x0]
   19500:	31 c0                	xor    eax,eax
   19502:	c3                   	ret    
   19503:	cc                   	int3   
   19504:	cc                   	int3   
   19505:	cc                   	int3   
   19506:	cc                   	int3   
   19507:	cc                   	int3   
   19508:	cc                   	int3   
   19509:	cc                   	int3   
   1950a:	cc                   	int3   
   1950b:	cc                   	int3   
   1950c:	cc                   	int3   
   1950d:	cc                   	int3   
   1950e:	cc                   	int3   
   1950f:	cc                   	int3   

0000000000019510 <_mbtowc_r>:
   19510:	f3 0f 1e fa          	endbr64 
   19514:	ff 25 ae b3 00 00    	jmp    QWORD PTR [rip+0xb3ae]        # 248c8 <__global_locale+0xe8>
   1951a:	66 0f 1f 44 00 00    	nop    WORD PTR [rax+rax*1+0x0]

0000000000019520 <__ascii_mbtowc>:
   19520:	f3 0f 1e fa          	endbr64 
   19524:	48 83 ec 18          	sub    rsp,0x18
   19528:	64 48 8b 04 25 28 00 	mov    rax,QWORD PTR fs:0x28
   1952f:	00 00 
   19531:	48 89 44 24 08       	mov    QWORD PTR [rsp+0x8],rax
   19536:	31 c0                	xor    eax,eax
   19538:	48 8d 44 24 04       	lea    rax,[rsp+0x4]
   1953d:	48 85 f6             	test   rsi,rsi
   19540:	48 0f 44 f0          	cmove  rsi,rax
   19544:	48 85 d2             	test   rdx,rdx
   19547:	74 27                	je     19570 <__ascii_mbtowc+0x50>
   19549:	48 85 c9             	test   rcx,rcx
   1954c:	74 26                	je     19574 <__ascii_mbtowc+0x54>
   1954e:	0f b6 02             	movzx  eax,BYTE PTR [rdx]
   19551:	89 06                	mov    DWORD PTR [rsi],eax
   19553:	31 c0                	xor    eax,eax
   19555:	80 3a 00             	cmp    BYTE PTR [rdx],0x0
   19558:	0f 95 c0             	setne  al
   1955b:	48 8b 54 24 08       	mov    rdx,QWORD PTR [rsp+0x8]
   19560:	64 48 2b 14 25 28 00 	sub    rdx,QWORD PTR fs:0x28
   19567:	00 00 
   19569:	75 10                	jne    1957b <__ascii_mbtowc+0x5b>
   1956b:	48 83 c4 18          	add    rsp,0x18
   1956f:	c3                   	ret    
   19570:	31 c0                	xor    eax,eax
   19572:	eb e7                	jmp    1955b <__ascii_mbtowc+0x3b>
   19574:	b8 fe ff ff ff       	mov    eax,0xfffffffe
   19579:	eb e0                	jmp    1955b <__ascii_mbtowc+0x3b>
   1957b:	e8 00 00 00 00       	call   19580 <__stack_chk_fail>

0000000000019580 <__stack_chk_fail>:
   19580:	f3 0f 1e fa          	endbr64 
   19584:	55                   	push   rbp
   19585:	48 83 ec 40          	sub    rsp,0x40
   19589:	66 0f 6f 05 df 70 ff 	movdqa xmm0,XMMWORD PTR [rip+0xffffffffffff70df]        # 10670 <blanks.1+0x20>
   19590:	ff 
   19591:	64 48 8b 04 25 28 00 	mov    rax,QWORD PTR fs:0x28
   19598:	00 00 
   1959a:	48 89 44 24 38       	mov    QWORD PTR [rsp+0x38],rax
   1959f:	31 c0                	xor    eax,eax
   195a1:	48 89 e5             	mov    rbp,rsp
   195a4:	c7 44 24 28 74 65 64 	mov    DWORD PTR [rsp+0x28],0xa646574
   195ab:	0a 
   195ac:	48 b8 20 74 65 72 6d 	movabs rax,0x616e696d72657420
   195b3:	69 6e 61 
   195b6:	0f 29 04 24          	movaps XMMWORD PTR [rsp],xmm0
   195ba:	66 0f 6f 05 ce 70 ff 	movdqa xmm0,XMMWORD PTR [rip+0xffffffffffff70ce]        # 10690 <blanks.1+0x40>
   195c1:	ff 
   195c2:	48 89 ef             	mov    rdi,rbp
   195c5:	48 89 44 24 20       	mov    QWORD PTR [rsp+0x20],rax
   195ca:	0f 29 44 24 10       	movaps XMMWORD PTR [rsp+0x10],xmm0
   195cf:	c6 44 24 2c 00       	mov    BYTE PTR [rsp+0x2c],0x0
   195d4:	e8 f7 bb ff ff       	call   151d0 <strlen>
   195d9:	48 89 ee             	mov    rsi,rbp
   195dc:	bf 02 00 00 00       	mov    edi,0x2
   195e1:	48 89 c2             	mov    rdx,rax
   195e4:	e8 af 7d 00 00       	call   21398 <write>
   195e9:	bf 06 00 00 00       	mov    edi,0x6
   195ee:	e8 bd 02 00 00       	call   198b0 <raise>
   195f3:	bf 7f 00 00 00       	mov    edi,0x7f
   195f8:	e8 d0 7d 00 00       	call   213cd <_exit>
   195fd:	0f 1f 00             	nop    DWORD PTR [rax]

0000000000019600 <__stack_chk_fail_local>:
   19600:	f3 0f 1e fa          	endbr64 
   19604:	50                   	push   rax
   19605:	58                   	pop    rax
   19606:	48 83 ec 08          	sub    rsp,0x8
   1960a:	e8 71 ff ff ff       	call   19580 <__stack_chk_fail>
   1960f:	cc                   	int3   

0000000000019610 <__stack_chk_init>:
   19610:	f3 0f 1e fa          	endbr64 
   19614:	48 83 3d b4 12 11 00 	cmp    QWORD PTR [rip+0x1112b4],0x0        # 12a8d0 <__stack_chk_guard>
   1961b:	00 
   1961c:	75 0a                	jne    19628 <__stack_chk_init+0x18>
   1961e:	c7 05 a8 12 11 00 00 	mov    DWORD PTR [rip+0x1112a8],0xff0a0000        # 12a8d0 <__stack_chk_guard>
   19625:	00 0a ff 
   19628:	c3                   	ret    
   19629:	cc                   	int3   
   1962a:	cc                   	int3   
   1962b:	cc                   	int3   
   1962c:	cc                   	int3   
   1962d:	cc                   	int3   
   1962e:	cc                   	int3   
   1962f:	cc                   	int3   

0000000000019630 <_init_signal_r>:
   19630:	f3 0f 1e fa          	endbr64 
   19634:	48 83 bf 50 01 00 00 	cmp    QWORD PTR [rdi+0x150],0x0
   1963b:	00 
   1963c:	74 0a                	je     19648 <_init_signal_r+0x18>
   1963e:	31 c0                	xor    eax,eax
   19640:	c3                   	ret    
   19641:	0f 1f 80 00 00 00 00 	nop    DWORD PTR [rax+0x0]
   19648:	53                   	push   rbx
   19649:	be 00 01 00 00       	mov    esi,0x100
   1964e:	48 89 fb             	mov    rbx,rdi
   19651:	e8 2a ca ff ff       	call   16080 <_malloc_r>
   19656:	48 89 83 50 01 00 00 	mov    QWORD PTR [rbx+0x150],rax
   1965d:	48 85 c0             	test   rax,rax
   19660:	74 22                	je     19684 <_init_signal_r+0x54>
   19662:	48 8d 90 00 01 00 00 	lea    rdx,[rax+0x100]
   19669:	0f 1f 80 00 00 00 00 	nop    DWORD PTR [rax+0x0]
   19670:	48 c7 00 00 00 00 00 	mov    QWORD PTR [rax],0x0
   19677:	48 83 c0 08          	add    rax,0x8
   1967b:	48 39 d0             	cmp    rax,rdx
   1967e:	75 f0                	jne    19670 <_init_signal_r+0x40>
   19680:	31 c0                	xor    eax,eax
   19682:	5b                   	pop    rbx
   19683:	c3                   	ret    
   19684:	83 c8 ff             	or     eax,0xffffffff
   19687:	5b                   	pop    rbx
   19688:	c3                   	ret    
   19689:	0f 1f 80 00 00 00 00 	nop    DWORD PTR [rax+0x0]

0000000000019690 <_signal_r>:
   19690:	f3 0f 1e fa          	endbr64 
   19694:	53                   	push   rbx
   19695:	48 63 de             	movsxd rbx,esi
   19698:	48 83 ec 10          	sub    rsp,0x10
   1969c:	83 fb 1f             	cmp    ebx,0x1f
   1969f:	77 1f                	ja     196c0 <_signal_r+0x30>
   196a1:	48 8b 87 50 01 00 00 	mov    rax,QWORD PTR [rdi+0x150]
   196a8:	48 85 c0             	test   rax,rax
   196ab:	74 2b                	je     196d8 <_signal_r+0x48>
   196ad:	48 8d 0c d8          	lea    rcx,[rax+rbx*8]
   196b1:	48 8b 01             	mov    rax,QWORD PTR [rcx]
   196b4:	48 89 11             	mov    QWORD PTR [rcx],rdx
   196b7:	48 83 c4 10          	add    rsp,0x10
   196bb:	5b                   	pop    rbx
   196bc:	c3                   	ret    
   196bd:	0f 1f 00             	nop    DWORD PTR [rax]
   196c0:	c7 07 16 00 00 00    	mov    DWORD PTR [rdi],0x16
   196c6:	48 83 c4 10          	add    rsp,0x10
   196ca:	48 c7 c0 ff ff ff ff 	mov    rax,0xffffffffffffffff
   196d1:	5b                   	pop    rbx
   196d2:	c3                   	ret    
   196d3:	0f 1f 44 00 00       	nop    DWORD PTR [rax+rax*1+0x0]
   196d8:	be 00 01 00 00       	mov    esi,0x100
   196dd:	48 89 3c 24          	mov    QWORD PTR [rsp],rdi
   196e1:	48 89 54 24 08       	mov    QWORD PTR [rsp+0x8],rdx
   196e6:	e8 95 c9 ff ff       	call   16080 <_malloc_r>
   196eb:	48 8b 3c 24          	mov    rdi,QWORD PTR [rsp]
   196ef:	48 89 87 50 01 00 00 	mov    QWORD PTR [rdi+0x150],rax
   196f6:	48 85 c0             	test   rax,rax
   196f9:	74 27                	je     19722 <_signal_r+0x92>
   196fb:	48 8b 54 24 08       	mov    rdx,QWORD PTR [rsp+0x8]
   19700:	48 89 c1             	mov    rcx,rax
   19703:	48 8d b0 00 01 00 00 	lea    rsi,[rax+0x100]
   1970a:	66 0f 1f 44 00 00    	nop    WORD PTR [rax+rax*1+0x0]
   19710:	48 c7 01 00 00 00 00 	mov    QWORD PTR [rcx],0x0
   19717:	48 83 c1 08          	add    rcx,0x8
   1971b:	48 39 ce             	cmp    rsi,rcx
   1971e:	75 f0                	jne    19710 <_signal_r+0x80>
   19720:	eb 8b                	jmp    196ad <_signal_r+0x1d>
   19722:	48 83 c8 ff          	or     rax,0xffffffffffffffff
   19726:	eb 8f                	jmp    196b7 <_signal_r+0x27>
   19728:	0f 1f 84 00 00 00 00 	nop    DWORD PTR [rax+rax*1+0x0]
   1972f:	00 

0000000000019730 <_raise_r>:
   19730:	f3 0f 1e fa          	endbr64 
   19734:	41 54                	push   r12
   19736:	49 89 fc             	mov    r12,rdi
   19739:	55                   	push   rbp
   1973a:	48 83 ec 08          	sub    rsp,0x8
   1973e:	83 fe 1f             	cmp    esi,0x1f
   19741:	0f 87 89 00 00 00    	ja     197d0 <_raise_r+0xa0>
   19747:	48 8b 87 50 01 00 00 	mov    rax,QWORD PTR [rdi+0x150]
   1974e:	89 f5                	mov    ebp,esi
   19750:	48 85 c0             	test   rax,rax
   19753:	74 33                	je     19788 <_raise_r+0x58>
   19755:	48 63 d6             	movsxd rdx,esi
   19758:	48 8d 14 d0          	lea    rdx,[rax+rdx*8]
   1975c:	48 8b 02             	mov    rax,QWORD PTR [rdx]
   1975f:	48 85 c0             	test   rax,rax
   19762:	74 24                	je     19788 <_raise_r+0x58>
   19764:	48 83 f8 01          	cmp    rax,0x1
   19768:	74 56                	je     197c0 <_raise_r+0x90>
   1976a:	48 83 f8 ff          	cmp    rax,0xffffffffffffffff
   1976e:	74 38                	je     197a8 <_raise_r+0x78>
   19770:	48 c7 02 00 00 00 00 	mov    QWORD PTR [rdx],0x0
   19777:	89 f7                	mov    edi,esi
   19779:	ff d0                	call   rax
   1977b:	31 c0                	xor    eax,eax
   1977d:	48 83 c4 08          	add    rsp,0x8
   19781:	5d                   	pop    rbp
   19782:	41 5c                	pop    r12
   19784:	c3                   	ret    
   19785:	0f 1f 00             	nop    DWORD PTR [rax]
   19788:	4c 89 e7             	mov    rdi,r12
   1978b:	e8 f0 03 00 00       	call   19b80 <_getpid_r>
   19790:	48 83 c4 08          	add    rsp,0x8
   19794:	89 ea                	mov    edx,ebp
   19796:	4c 89 e7             	mov    rdi,r12
   19799:	5d                   	pop    rbp
   1979a:	89 c6                	mov    esi,eax
   1979c:	41 5c                	pop    r12
   1979e:	e9 9d 03 00 00       	jmp    19b40 <_kill_r>
   197a3:	0f 1f 44 00 00       	nop    DWORD PTR [rax+rax*1+0x0]
   197a8:	c7 07 16 00 00 00    	mov    DWORD PTR [rdi],0x16
   197ae:	48 83 c4 08          	add    rsp,0x8
   197b2:	b8 01 00 00 00       	mov    eax,0x1
   197b7:	5d                   	pop    rbp
   197b8:	41 5c                	pop    r12
   197ba:	c3                   	ret    
   197bb:	0f 1f 44 00 00       	nop    DWORD PTR [rax+rax*1+0x0]
   197c0:	48 83 c4 08          	add    rsp,0x8
   197c4:	31 c0                	xor    eax,eax
   197c6:	5d                   	pop    rbp
   197c7:	41 5c                	pop    r12
   197c9:	c3                   	ret    
   197ca:	66 0f 1f 44 00 00    	nop    WORD PTR [rax+rax*1+0x0]
   197d0:	c7 07 16 00 00 00    	mov    DWORD PTR [rdi],0x16
   197d6:	b8 ff ff ff ff       	mov    eax,0xffffffff
   197db:	eb a0                	jmp    1977d <_raise_r+0x4d>
   197dd:	0f 1f 00             	nop    DWORD PTR [rax]

00000000000197e0 <__sigtramp_r>:
   197e0:	f3 0f 1e fa          	endbr64 
   197e4:	83 fe 1f             	cmp    esi,0x1f
   197e7:	0f 87 b9 00 00 00    	ja     198a6 <__sigtramp_r+0xc6>
   197ed:	55                   	push   rbp
   197ee:	89 f5                	mov    ebp,esi
   197f0:	53                   	push   rbx
   197f1:	48 89 fb             	mov    rbx,rdi
   197f4:	48 83 ec 08          	sub    rsp,0x8
   197f8:	48 8b 87 50 01 00 00 	mov    rax,QWORD PTR [rdi+0x150]
   197ff:	48 85 c0             	test   rax,rax
   19802:	74 44                	je     19848 <__sigtramp_r+0x68>
   19804:	48 63 d5             	movsxd rdx,ebp
   19807:	48 8d 14 d0          	lea    rdx,[rax+rdx*8]
   1980b:	48 8b 02             	mov    rax,QWORD PTR [rdx]
   1980e:	48 85 c0             	test   rax,rax
   19811:	74 25                	je     19838 <__sigtramp_r+0x58>
   19813:	48 83 f8 ff          	cmp    rax,0xffffffffffffffff
   19817:	74 7f                	je     19898 <__sigtramp_r+0xb8>
   19819:	48 83 f8 01          	cmp    rax,0x1
   1981d:	74 69                	je     19888 <__sigtramp_r+0xa8>
   1981f:	48 c7 02 00 00 00 00 	mov    QWORD PTR [rdx],0x0
   19826:	89 ef                	mov    edi,ebp
   19828:	ff d0                	call   rax
   1982a:	31 c0                	xor    eax,eax
   1982c:	48 83 c4 08          	add    rsp,0x8
   19830:	5b                   	pop    rbx
   19831:	5d                   	pop    rbp
   19832:	c3                   	ret    
   19833:	0f 1f 44 00 00       	nop    DWORD PTR [rax+rax*1+0x0]
   19838:	48 83 c4 08          	add    rsp,0x8
   1983c:	b8 01 00 00 00       	mov    eax,0x1
   19841:	5b                   	pop    rbx
   19842:	5d                   	pop    rbp
   19843:	c3                   	ret    
   19844:	0f 1f 40 00          	nop    DWORD PTR [rax+0x0]
   19848:	be 00 01 00 00       	mov    esi,0x100
   1984d:	e8 2e c8 ff ff       	call   16080 <_malloc_r>
   19852:	48 89 83 50 01 00 00 	mov    QWORD PTR [rbx+0x150],rax
   19859:	48 85 c0             	test   rax,rax
   1985c:	74 41                	je     1989f <__sigtramp_r+0xbf>
   1985e:	48 89 c2             	mov    rdx,rax
   19861:	48 8d 88 00 01 00 00 	lea    rcx,[rax+0x100]
   19868:	0f 1f 84 00 00 00 00 	nop    DWORD PTR [rax+rax*1+0x0]
   1986f:	00 
   19870:	48 c7 02 00 00 00 00 	mov    QWORD PTR [rdx],0x0
   19877:	48 83 c2 08          	add    rdx,0x8
   1987b:	48 39 ca             	cmp    rdx,rcx
   1987e:	75 f0                	jne    19870 <__sigtramp_r+0x90>
   19880:	eb 82                	jmp    19804 <__sigtramp_r+0x24>
   19882:	66 0f 1f 44 00 00    	nop    WORD PTR [rax+rax*1+0x0]
   19888:	48 83 c4 08          	add    rsp,0x8
   1988c:	b8 03 00 00 00       	mov    eax,0x3
   19891:	5b                   	pop    rbx
   19892:	5d                   	pop    rbp
   19893:	c3                   	ret    
   19894:	0f 1f 40 00          	nop    DWORD PTR [rax+0x0]
   19898:	b8 02 00 00 00       	mov    eax,0x2
   1989d:	eb 8d                	jmp    1982c <__sigtramp_r+0x4c>
   1989f:	b8 ff ff ff ff       	mov    eax,0xffffffff
   198a4:	eb 86                	jmp    1982c <__sigtramp_r+0x4c>
   198a6:	83 c8 ff             	or     eax,0xffffffff
   198a9:	c3                   	ret    
   198aa:	66 0f 1f 44 00 00    	nop    WORD PTR [rax+rax*1+0x0]

00000000000198b0 <raise>:
   198b0:	f3 0f 1e fa          	endbr64 
   198b4:	41 54                	push   r12
   198b6:	55                   	push   rbp
   198b7:	48 83 ec 08          	sub    rsp,0x8
   198bb:	4c 8b 25 3e a5 00 00 	mov    r12,QWORD PTR [rip+0xa53e]        # 23e00 <_impure_ptr>
   198c2:	83 ff 1f             	cmp    edi,0x1f
   198c5:	0f 87 8d 00 00 00    	ja     19958 <raise+0xa8>
   198cb:	49 8b 84 24 50 01 00 	mov    rax,QWORD PTR [r12+0x150]
   198d2:	00 
   198d3:	89 fd                	mov    ebp,edi
   198d5:	48 85 c0             	test   rax,rax
   198d8:	74 36                	je     19910 <raise+0x60>
   198da:	48 63 d7             	movsxd rdx,edi
   198dd:	48 8d 14 d0          	lea    rdx,[rax+rdx*8]
   198e1:	48 8b 02             	mov    rax,QWORD PTR [rdx]
   198e4:	48 85 c0             	test   rax,rax
   198e7:	74 27                	je     19910 <raise+0x60>
   198e9:	48 83 f8 01          	cmp    rax,0x1
   198ed:	74 59                	je     19948 <raise+0x98>
   198ef:	48 83 f8 ff          	cmp    rax,0xffffffffffffffff
   198f3:	74 3b                	je     19930 <raise+0x80>
   198f5:	48 c7 02 00 00 00 00 	mov    QWORD PTR [rdx],0x0
   198fc:	ff d0                	call   rax
   198fe:	31 c0                	xor    eax,eax
   19900:	48 83 c4 08          	add    rsp,0x8
   19904:	5d                   	pop    rbp
   19905:	41 5c                	pop    r12
   19907:	c3                   	ret    
   19908:	0f 1f 84 00 00 00 00 	nop    DWORD PTR [rax+rax*1+0x0]
   1990f:	00 
   19910:	4c 89 e7             	mov    rdi,r12
   19913:	e8 68 02 00 00       	call   19b80 <_getpid_r>
   19918:	48 83 c4 08          	add    rsp,0x8
   1991c:	89 ea                	mov    edx,ebp
   1991e:	4c 89 e7             	mov    rdi,r12
   19921:	5d                   	pop    rbp
   19922:	89 c6                	mov    esi,eax
   19924:	41 5c                	pop    r12
   19926:	e9 15 02 00 00       	jmp    19b40 <_kill_r>
   1992b:	0f 1f 44 00 00       	nop    DWORD PTR [rax+rax*1+0x0]
   19930:	41 c7 04 24 16 00 00 	mov    DWORD PTR [r12],0x16
   19937:	00 
   19938:	48 83 c4 08          	add    rsp,0x8
   1993c:	b8 01 00 00 00       	mov    eax,0x1
   19941:	5d                   	pop    rbp
   19942:	41 5c                	pop    r12
   19944:	c3                   	ret    
   19945:	0f 1f 00             	nop    DWORD PTR [rax]
   19948:	48 83 c4 08          	add    rsp,0x8
   1994c:	31 c0                	xor    eax,eax
   1994e:	5d                   	pop    rbp
   1994f:	41 5c                	pop    r12
   19951:	c3                   	ret    
   19952:	66 0f 1f 44 00 00    	nop    WORD PTR [rax+rax*1+0x0]
   19958:	41 c7 04 24 16 00 00 	mov    DWORD PTR [r12],0x16
   1995f:	00 
   19960:	b8 ff ff ff ff       	mov    eax,0xffffffff
   19965:	eb 99                	jmp    19900 <raise+0x50>
   19967:	66 0f 1f 84 00 00 00 	nop    WORD PTR [rax+rax*1+0x0]
   1996e:	00 00 

0000000000019970 <signal>:
   19970:	f3 0f 1e fa          	endbr64 
   19974:	41 54                	push   r12
   19976:	4c 8b 25 83 a4 00 00 	mov    r12,QWORD PTR [rip+0xa483]        # 23e00 <_impure_ptr>
   1997d:	55                   	push   rbp
   1997e:	53                   	push   rbx
   1997f:	48 63 df             	movsxd rbx,edi
   19982:	83 fb 1f             	cmp    ebx,0x1f
   19985:	77 29                	ja     199b0 <signal+0x40>
   19987:	49 8b 84 24 50 01 00 	mov    rax,QWORD PTR [r12+0x150]
   1998e:	00 
   1998f:	48 89 f5             	mov    rbp,rsi
   19992:	48 85 c0             	test   rax,rax
   19995:	74 31                	je     199c8 <signal+0x58>
   19997:	48 8d 14 d8          	lea    rdx,[rax+rbx*8]
   1999b:	48 8b 02             	mov    rax,QWORD PTR [rdx]
   1999e:	48 89 2a             	mov    QWORD PTR [rdx],rbp
   199a1:	5b                   	pop    rbx
   199a2:	5d                   	pop    rbp
   199a3:	41 5c                	pop    r12
   199a5:	c3                   	ret    
   199a6:	66 2e 0f 1f 84 00 00 	cs nop WORD PTR [rax+rax*1+0x0]
   199ad:	00 00 00 
   199b0:	41 c7 04 24 16 00 00 	mov    DWORD PTR [r12],0x16
   199b7:	00 
   199b8:	48 c7 c0 ff ff ff ff 	mov    rax,0xffffffffffffffff
   199bf:	5b                   	pop    rbx
   199c0:	5d                   	pop    rbp
   199c1:	41 5c                	pop    r12
   199c3:	c3                   	ret    
   199c4:	0f 1f 40 00          	nop    DWORD PTR [rax+0x0]
   199c8:	be 00 01 00 00       	mov    esi,0x100
   199cd:	4c 89 e7             	mov    rdi,r12
   199d0:	e8 ab c6 ff ff       	call   16080 <_malloc_r>
   199d5:	49 89 84 24 50 01 00 	mov    QWORD PTR [r12+0x150],rax
   199dc:	00 
   199dd:	48 85 c0             	test   rax,rax
   199e0:	74 20                	je     19a02 <signal+0x92>
   199e2:	48 89 c2             	mov    rdx,rax
   199e5:	48 8d 88 00 01 00 00 	lea    rcx,[rax+0x100]
   199ec:	0f 1f 40 00          	nop    DWORD PTR [rax+0x0]
   199f0:	48 c7 02 00 00 00 00 	mov    QWORD PTR [rdx],0x0
   199f7:	48 83 c2 08          	add    rdx,0x8
   199fb:	48 39 d1             	cmp    rcx,rdx
   199fe:	75 f0                	jne    199f0 <signal+0x80>
   19a00:	eb 95                	jmp    19997 <signal+0x27>
   19a02:	48 83 c8 ff          	or     rax,0xffffffffffffffff
   19a06:	eb 99                	jmp    199a1 <signal+0x31>
   19a08:	0f 1f 84 00 00 00 00 	nop    DWORD PTR [rax+rax*1+0x0]
   19a0f:	00 

0000000000019a10 <_init_signal>:
   19a10:	f3 0f 1e fa          	endbr64 
   19a14:	53                   	push   rbx
   19a15:	48 8b 1d e4 a3 00 00 	mov    rbx,QWORD PTR [rip+0xa3e4]        # 23e00 <_impure_ptr>
   19a1c:	48 83 bb 50 01 00 00 	cmp    QWORD PTR [rbx+0x150],0x0
   19a23:	00 
   19a24:	74 0a                	je     19a30 <_init_signal+0x20>
   19a26:	31 c0                	xor    eax,eax
   19a28:	5b                   	pop    rbx
   19a29:	c3                   	ret    
   19a2a:	66 0f 1f 44 00 00    	nop    WORD PTR [rax+rax*1+0x0]
   19a30:	be 00 01 00 00       	mov    esi,0x100
   19a35:	48 89 df             	mov    rdi,rbx
   19a38:	e8 43 c6 ff ff       	call   16080 <_malloc_r>
   19a3d:	48 89 83 50 01 00 00 	mov    QWORD PTR [rbx+0x150],rax
   19a44:	48 85 c0             	test   rax,rax
   19a47:	74 1b                	je     19a64 <_init_signal+0x54>
   19a49:	48 8d 90 00 01 00 00 	lea    rdx,[rax+0x100]
   19a50:	48 c7 00 00 00 00 00 	mov    QWORD PTR [rax],0x0
   19a57:	48 83 c0 08          	add    rax,0x8
   19a5b:	48 39 d0             	cmp    rax,rdx
   19a5e:	75 f0                	jne    19a50 <_init_signal+0x40>
   19a60:	31 c0                	xor    eax,eax
   19a62:	eb c4                	jmp    19a28 <_init_signal+0x18>
   19a64:	83 c8 ff             	or     eax,0xffffffff
   19a67:	5b                   	pop    rbx
   19a68:	c3                   	ret    
   19a69:	0f 1f 80 00 00 00 00 	nop    DWORD PTR [rax+0x0]

0000000000019a70 <__sigtramp>:
   19a70:	f3 0f 1e fa          	endbr64 
   19a74:	55                   	push   rbp
   19a75:	53                   	push   rbx
   19a76:	48 83 ec 08          	sub    rsp,0x8
   19a7a:	48 8b 1d 7f a3 00 00 	mov    rbx,QWORD PTR [rip+0xa37f]        # 23e00 <_impure_ptr>
   19a81:	83 ff 1f             	cmp    edi,0x1f
   19a84:	0f 87 ad 00 00 00    	ja     19b37 <__sigtramp+0xc7>
   19a8a:	48 8b 83 50 01 00 00 	mov    rax,QWORD PTR [rbx+0x150]
   19a91:	89 fd                	mov    ebp,edi
   19a93:	48 85 c0             	test   rax,rax
   19a96:	74 48                	je     19ae0 <__sigtramp+0x70>
   19a98:	48 63 d5             	movsxd rdx,ebp
   19a9b:	48 8d 14 d0          	lea    rdx,[rax+rdx*8]
   19a9f:	48 8b 02             	mov    rax,QWORD PTR [rdx]
   19aa2:	48 85 c0             	test   rax,rax
   19aa5:	74 29                	je     19ad0 <__sigtramp+0x60>
   19aa7:	48 83 f8 ff          	cmp    rax,0xffffffffffffffff
   19aab:	0f 84 7f 00 00 00    	je     19b30 <__sigtramp+0xc0>
   19ab1:	48 83 f8 01          	cmp    rax,0x1
   19ab5:	74 69                	je     19b20 <__sigtramp+0xb0>
   19ab7:	48 c7 02 00 00 00 00 	mov    QWORD PTR [rdx],0x0
   19abe:	89 ef                	mov    edi,ebp
   19ac0:	ff d0                	call   rax
   19ac2:	31 c0                	xor    eax,eax
   19ac4:	48 83 c4 08          	add    rsp,0x8
   19ac8:	5b                   	pop    rbx
   19ac9:	5d                   	pop    rbp
   19aca:	c3                   	ret    
   19acb:	0f 1f 44 00 00       	nop    DWORD PTR [rax+rax*1+0x0]
   19ad0:	48 83 c4 08          	add    rsp,0x8
   19ad4:	b8 01 00 00 00       	mov    eax,0x1
   19ad9:	5b                   	pop    rbx
   19ada:	5d                   	pop    rbp
   19adb:	c3                   	ret    
   19adc:	0f 1f 40 00          	nop    DWORD PTR [rax+0x0]
   19ae0:	be 00 01 00 00       	mov    esi,0x100
   19ae5:	48 89 df             	mov    rdi,rbx
   19ae8:	e8 93 c5 ff ff       	call   16080 <_malloc_r>
   19aed:	48 89 83 50 01 00 00 	mov    QWORD PTR [rbx+0x150],rax
   19af4:	48 85 c0             	test   rax,rax
   19af7:	74 3e                	je     19b37 <__sigtramp+0xc7>
   19af9:	48 89 c2             	mov    rdx,rax
   19afc:	48 8d 88 00 01 00 00 	lea    rcx,[rax+0x100]
   19b03:	0f 1f 44 00 00       	nop    DWORD PTR [rax+rax*1+0x0]
   19b08:	48 c7 02 00 00 00 00 	mov    QWORD PTR [rdx],0x0
   19b0f:	48 83 c2 08          	add    rdx,0x8
   19b13:	48 39 ca             	cmp    rdx,rcx
   19b16:	75 f0                	jne    19b08 <__sigtramp+0x98>
   19b18:	e9 7b ff ff ff       	jmp    19a98 <__sigtramp+0x28>
   19b1d:	0f 1f 00             	nop    DWORD PTR [rax]
   19b20:	48 83 c4 08          	add    rsp,0x8
   19b24:	b8 03 00 00 00       	mov    eax,0x3
   19b29:	5b                   	pop    rbx
   19b2a:	5d                   	pop    rbp
   19b2b:	c3                   	ret    
   19b2c:	0f 1f 40 00          	nop    DWORD PTR [rax+0x0]
   19b30:	b8 02 00 00 00       	mov    eax,0x2
   19b35:	eb 8d                	jmp    19ac4 <__sigtramp+0x54>
   19b37:	b8 ff ff ff ff       	mov    eax,0xffffffff
   19b3c:	eb 86                	jmp    19ac4 <__sigtramp+0x54>
   19b3e:	cc                   	int3   
   19b3f:	cc                   	int3   

0000000000019b40 <_kill_r>:
   19b40:	f3 0f 1e fa          	endbr64 
   19b44:	53                   	push   rbx
   19b45:	48 89 fb             	mov    rbx,rdi
   19b48:	89 f7                	mov    edi,esi
   19b4a:	89 d6                	mov    esi,edx
   19b4c:	c7 05 6a 0d 11 00 00 	mov    DWORD PTR [rip+0x110d6a],0x0        # 12a8c0 <errno>
   19b53:	00 00 00 
   19b56:	e8 fe 78 00 00       	call   21459 <kill>
   19b5b:	83 f8 ff             	cmp    eax,0xffffffff
   19b5e:	74 08                	je     19b68 <_kill_r+0x28>
   19b60:	5b                   	pop    rbx
   19b61:	c3                   	ret    
   19b62:	66 0f 1f 44 00 00    	nop    WORD PTR [rax+rax*1+0x0]
   19b68:	8b 15 52 0d 11 00    	mov    edx,DWORD PTR [rip+0x110d52]        # 12a8c0 <errno>
   19b6e:	85 d2                	test   edx,edx
   19b70:	74 ee                	je     19b60 <_kill_r+0x20>
   19b72:	89 13                	mov    DWORD PTR [rbx],edx
   19b74:	5b                   	pop    rbx
   19b75:	c3                   	ret    
   19b76:	66 2e 0f 1f 84 00 00 	cs nop WORD PTR [rax+rax*1+0x0]
   19b7d:	00 00 00 

0000000000019b80 <_getpid_r>:
   19b80:	f3 0f 1e fa          	endbr64 
   19b84:	e9 fe 78 00 00       	jmp    21487 <getpid>
   19b89:	cc                   	int3   
   19b8a:	cc                   	int3   
   19b8b:	cc                   	int3   
   19b8c:	cc                   	int3   
   19b8d:	cc                   	int3   
   19b8e:	cc                   	int3   
   19b8f:	cc                   	int3   

0000000000019b90 <__ssprint_r>:
   19b90:	f3 0f 1e fa          	endbr64 
   19b94:	41 57                	push   r15
   19b96:	41 56                	push   r14
   19b98:	41 55                	push   r13
   19b9a:	49 89 d5             	mov    r13,rdx
   19b9d:	41 54                	push   r12
   19b9f:	55                   	push   rbp
   19ba0:	53                   	push   rbx
   19ba1:	48 83 ec 28          	sub    rsp,0x28
   19ba5:	48 83 7a 10 00       	cmp    QWORD PTR [rdx+0x10],0x0
   19baa:	4c 8b 3a             	mov    r15,QWORD PTR [rdx]
   19bad:	48 89 7c 24 10       	mov    QWORD PTR [rsp+0x10],rdi
   19bb2:	0f 84 a0 01 00 00    	je     19d58 <__ssprint_r+0x1c8>
   19bb8:	48 89 f5             	mov    rbp,rsi
   19bbb:	31 c9                	xor    ecx,ecx
   19bbd:	45 31 e4             	xor    r12d,r12d
   19bc0:	eb 4f                	jmp    19c11 <__ssprint_r+0x81>
   19bc2:	66 0f 1f 44 00 00    	nop    WORD PTR [rax+rax*1+0x0]
   19bc8:	49 39 dc             	cmp    r12,rbx
   19bcb:	73 6b                	jae    19c38 <__ssprint_r+0xa8>
   19bcd:	49 63 d4             	movsxd rdx,r12d
   19bd0:	45 89 e1             	mov    r9d,r12d
   19bd3:	49 89 d6             	mov    r14,rdx
   19bd6:	48 89 c7             	mov    rdi,rax
   19bd9:	48 89 d3             	mov    rbx,rdx
   19bdc:	48 89 ce             	mov    rsi,rcx
   19bdf:	48 89 da             	mov    rdx,rbx
   19be2:	44 89 4c 24 08       	mov    DWORD PTR [rsp+0x8],r9d
   19be7:	4d 29 f4             	sub    r12,r14
   19bea:	48 89 0c 24          	mov    QWORD PTR [rsp],rcx
   19bee:	e8 ad 13 00 00       	call   1afa0 <memmove>
   19bf3:	48 8b 0c 24          	mov    rcx,QWORD PTR [rsp]
   19bf7:	48 01 5d 00          	add    QWORD PTR [rbp+0x0],rbx
   19bfb:	44 8b 4c 24 08       	mov    r9d,DWORD PTR [rsp+0x8]
   19c00:	44 29 4d 0c          	sub    DWORD PTR [rbp+0xc],r9d
   19c04:	4c 01 f1             	add    rcx,r14
   19c07:	4d 29 75 10          	sub    QWORD PTR [r13+0x10],r14
   19c0b:	0f 84 47 01 00 00    	je     19d58 <__ssprint_r+0x1c8>
   19c11:	48 63 5d 0c          	movsxd rbx,DWORD PTR [rbp+0xc]
   19c15:	48 8b 45 00          	mov    rax,QWORD PTR [rbp+0x0]
   19c19:	41 89 d9             	mov    r9d,ebx
   19c1c:	48 89 c7             	mov    rdi,rax
   19c1f:	4d 85 e4             	test   r12,r12
   19c22:	75 a4                	jne    19bc8 <__ssprint_r+0x38>
   19c24:	49 8b 0f             	mov    rcx,QWORD PTR [r15]
   19c27:	4d 8b 67 08          	mov    r12,QWORD PTR [r15+0x8]
   19c2b:	49 83 c7 10          	add    r15,0x10
   19c2f:	eb e8                	jmp    19c19 <__ssprint_r+0x89>
   19c31:	0f 1f 80 00 00 00 00 	nop    DWORD PTR [rax+0x0]
   19c38:	0f b7 55 10          	movzx  edx,WORD PTR [rbp+0x10]
   19c3c:	4d 63 f4             	movsxd r14,r12d
   19c3f:	66 f7 c2 80 04       	test   dx,0x480
   19c44:	74 96                	je     19bdc <__ssprint_r+0x4c>
   19c46:	48 8b 75 18          	mov    rsi,QWORD PTR [rbp+0x18]
   19c4a:	48 29 f0             	sub    rax,rsi
   19c4d:	48 89 c3             	mov    rbx,rax
   19c50:	8b 45 20             	mov    eax,DWORD PTR [rbp+0x20]
   19c53:	4c 63 cb             	movsxd r9,ebx
   19c56:	8d 04 40             	lea    eax,[rax+rax*2]
   19c59:	41 89 c6             	mov    r14d,eax
   19c5c:	41 c1 ee 1f          	shr    r14d,0x1f
   19c60:	41 01 c6             	add    r14d,eax
   19c63:	4b 8d 44 21 01       	lea    rax,[r9+r12*1+0x1]
   19c68:	41 d1 fe             	sar    r14d,1
   19c6b:	4d 63 d6             	movsxd r10,r14d
   19c6e:	49 39 c2             	cmp    r10,rax
   19c71:	73 08                	jae    19c7b <__ssprint_r+0xeb>
   19c73:	46 8d 74 23 01       	lea    r14d,[rbx+r12*1+0x1]
   19c78:	4d 63 d6             	movsxd r10,r14d
   19c7b:	48 89 4c 24 08       	mov    QWORD PTR [rsp+0x8],rcx
   19c80:	4c 89 0c 24          	mov    QWORD PTR [rsp],r9
   19c84:	80 e6 04             	and    dh,0x4
   19c87:	74 7f                	je     19d08 <__ssprint_r+0x178>
   19c89:	48 8b 7c 24 10       	mov    rdi,QWORD PTR [rsp+0x10]
   19c8e:	4c 89 d6             	mov    rsi,r10
   19c91:	e8 ea c3 ff ff       	call   16080 <_malloc_r>
   19c96:	48 89 c7             	mov    rdi,rax
   19c99:	48 85 c0             	test   rax,rax
   19c9c:	0f 84 92 00 00 00    	je     19d34 <__ssprint_r+0x1a4>
   19ca2:	4c 8b 0c 24          	mov    r9,QWORD PTR [rsp]
   19ca6:	48 8b 75 18          	mov    rsi,QWORD PTR [rbp+0x18]
   19caa:	48 89 04 24          	mov    QWORD PTR [rsp],rax
   19cae:	4c 89 ca             	mov    rdx,r9
   19cb1:	4c 89 4c 24 18       	mov    QWORD PTR [rsp+0x18],r9
   19cb6:	e8 15 14 00 00       	call   1b0d0 <memcpy>
   19cbb:	0f b7 45 10          	movzx  eax,WORD PTR [rbp+0x10]
   19cbf:	48 8b 3c 24          	mov    rdi,QWORD PTR [rsp]
   19cc3:	4c 8b 4c 24 18       	mov    r9,QWORD PTR [rsp+0x18]
   19cc8:	48 8b 4c 24 08       	mov    rcx,QWORD PTR [rsp+0x8]
   19ccd:	66 25 7f fb          	and    ax,0xfb7f
   19cd1:	0c 80                	or     al,0x80
   19cd3:	66 89 45 10          	mov    WORD PTR [rbp+0x10],ax
   19cd7:	44 89 75 20          	mov    DWORD PTR [rbp+0x20],r14d
   19cdb:	41 29 de             	sub    r14d,ebx
   19cde:	48 89 7d 18          	mov    QWORD PTR [rbp+0x18],rdi
   19ce2:	4c 01 cf             	add    rdi,r9
   19ce5:	45 89 e1             	mov    r9d,r12d
   19ce8:	44 89 75 0c          	mov    DWORD PTR [rbp+0xc],r14d
   19cec:	4d 63 f4             	movsxd r14,r12d
   19cef:	48 89 7d 00          	mov    QWORD PTR [rbp+0x0],rdi
   19cf3:	4c 89 f2             	mov    rdx,r14
   19cf6:	4d 39 e6             	cmp    r14,r12
   19cf9:	77 76                	ja     19d71 <__ssprint_r+0x1e1>
   19cfb:	4c 89 f3             	mov    rbx,r14
   19cfe:	e9 d9 fe ff ff       	jmp    19bdc <__ssprint_r+0x4c>
   19d03:	0f 1f 44 00 00       	nop    DWORD PTR [rax+rax*1+0x0]
   19d08:	48 8b 7c 24 10       	mov    rdi,QWORD PTR [rsp+0x10]
   19d0d:	4c 89 d2             	mov    rdx,r10
   19d10:	e8 eb 14 00 00       	call   1b200 <_realloc_r>
   19d15:	4c 8b 0c 24          	mov    r9,QWORD PTR [rsp]
   19d19:	48 8b 4c 24 08       	mov    rcx,QWORD PTR [rsp+0x8]
   19d1e:	48 85 c0             	test   rax,rax
   19d21:	48 89 c7             	mov    rdi,rax
   19d24:	75 b1                	jne    19cd7 <__ssprint_r+0x147>
   19d26:	48 8b 75 18          	mov    rsi,QWORD PTR [rbp+0x18]
   19d2a:	48 8b 7c 24 10       	mov    rdi,QWORD PTR [rsp+0x10]
   19d2f:	e8 9c bf ff ff       	call   15cd0 <_free_r>
   19d34:	48 8b 44 24 10       	mov    rax,QWORD PTR [rsp+0x10]
   19d39:	c7 00 0c 00 00 00    	mov    DWORD PTR [rax],0xc
   19d3f:	b8 ff ff ff ff       	mov    eax,0xffffffff
   19d44:	66 83 4d 10 40       	or     WORD PTR [rbp+0x10],0x40
   19d49:	49 c7 45 10 00 00 00 	mov    QWORD PTR [r13+0x10],0x0
   19d50:	00 
   19d51:	eb 07                	jmp    19d5a <__ssprint_r+0x1ca>
   19d53:	0f 1f 44 00 00       	nop    DWORD PTR [rax+rax*1+0x0]
   19d58:	31 c0                	xor    eax,eax
   19d5a:	41 c7 45 08 00 00 00 	mov    DWORD PTR [r13+0x8],0x0
   19d61:	00 
   19d62:	48 83 c4 28          	add    rsp,0x28
   19d66:	5b                   	pop    rbx
   19d67:	5d                   	pop    rbp
   19d68:	41 5c                	pop    r12
   19d6a:	41 5d                	pop    r13
   19d6c:	41 5e                	pop    r14
   19d6e:	41 5f                	pop    r15
   19d70:	c3                   	ret    
   19d71:	48 89 f8             	mov    rax,rdi
   19d74:	e9 57 fe ff ff       	jmp    19bd0 <__ssprint_r+0x40>
   19d79:	0f 1f 80 00 00 00 00 	nop    DWORD PTR [rax+0x0]

0000000000019d80 <_svfiprintf_r>:
   19d80:	f3 0f 1e fa          	endbr64 
   19d84:	41 57                	push   r15
   19d86:	49 89 ff             	mov    r15,rdi
   19d89:	41 56                	push   r14
   19d8b:	41 55                	push   r13
   19d8d:	41 54                	push   r12
   19d8f:	49 89 d4             	mov    r12,rdx
   19d92:	55                   	push   rbp
   19d93:	53                   	push   rbx
   19d94:	48 81 ec 58 01 00 00 	sub    rsp,0x158
   19d9b:	48 89 74 24 20       	mov    QWORD PTR [rsp+0x20],rsi
   19da0:	48 89 4c 24 28       	mov    QWORD PTR [rsp+0x28],rcx
   19da5:	64 48 8b 04 25 28 00 	mov    rax,QWORD PTR fs:0x28
   19dac:	00 00 
   19dae:	48 89 84 24 48 01 00 	mov    QWORD PTR [rsp+0x148],rax
   19db5:	00 
   19db6:	31 c0                	xor    eax,eax
   19db8:	f6 46 10 80          	test   BYTE PTR [rsi+0x10],0x80
   19dbc:	74 0b                	je     19dc9 <_svfiprintf_r+0x49>
   19dbe:	48 83 7e 18 00       	cmp    QWORD PTR [rsi+0x18],0x0
   19dc3:	0f 84 68 0e 00 00    	je     1ac31 <_svfiprintf_r+0xeb1>
   19dc9:	48 8d 8c 24 90 00 00 	lea    rcx,[rsp+0x90]
   19dd0:	00 
   19dd1:	45 31 c0             	xor    r8d,r8d
   19dd4:	4d 89 e6             	mov    r14,r12
   19dd7:	48 c7 84 24 80 00 00 	mov    QWORD PTR [rsp+0x80],0x0
   19dde:	00 00 00 00 00 
   19de3:	48 89 4c 24 18       	mov    QWORD PTR [rsp+0x18],rcx
   19de8:	48 89 4c 24 70       	mov    QWORD PTR [rsp+0x70],rcx
   19ded:	c7 44 24 78 00 00 00 	mov    DWORD PTR [rsp+0x78],0x0
   19df4:	00 
   19df5:	48 c7 44 24 48 00 00 	mov    QWORD PTR [rsp+0x48],0x0
   19dfc:	00 00 
   19dfe:	c7 44 24 58 00 00 00 	mov    DWORD PTR [rsp+0x58],0x0
   19e05:	00 
   19e06:	41 0f b6 06          	movzx  eax,BYTE PTR [r14]
   19e0a:	4c 89 f3             	mov    rbx,r14
   19e0d:	3c 25                	cmp    al,0x25
   19e0f:	74 5b                	je     19e6c <_svfiprintf_r+0xec>
   19e11:	84 c0                	test   al,al
   19e13:	74 57                	je     19e6c <_svfiprintf_r+0xec>
   19e15:	0f 1f 00             	nop    DWORD PTR [rax]
   19e18:	48 89 dd             	mov    rbp,rbx
   19e1b:	0f b6 43 01          	movzx  eax,BYTE PTR [rbx+0x1]
   19e1f:	48 83 c3 01          	add    rbx,0x1
   19e23:	84 c0                	test   al,al
   19e25:	74 04                	je     19e2b <_svfiprintf_r+0xab>
   19e27:	3c 25                	cmp    al,0x25
   19e29:	75 ed                	jne    19e18 <_svfiprintf_r+0x98>
   19e2b:	49 89 dc             	mov    r12,rbx
   19e2e:	4d 29 f4             	sub    r12,r14
   19e31:	44 39 f3             	cmp    ebx,r14d
   19e34:	74 36                	je     19e6c <_svfiprintf_r+0xec>
   19e36:	49 63 c4             	movsxd rax,r12d
   19e39:	4c 89 31             	mov    QWORD PTR [rcx],r14
   19e3c:	48 83 c1 10          	add    rcx,0x10
   19e40:	49 01 c0             	add    r8,rax
   19e43:	48 89 41 f8          	mov    QWORD PTR [rcx-0x8],rax
   19e47:	8b 44 24 78          	mov    eax,DWORD PTR [rsp+0x78]
   19e4b:	4c 89 84 24 80 00 00 	mov    QWORD PTR [rsp+0x80],r8
   19e52:	00 
   19e53:	83 c0 01             	add    eax,0x1
   19e56:	89 44 24 78          	mov    DWORD PTR [rsp+0x78],eax
   19e5a:	83 f8 07             	cmp    eax,0x7
   19e5d:	0f 8f 0d 02 00 00    	jg     1a070 <_svfiprintf_r+0x2f0>
   19e63:	44 01 64 24 58       	add    DWORD PTR [rsp+0x58],r12d
   19e68:	0f b6 45 01          	movzx  eax,BYTE PTR [rbp+0x1]
   19e6c:	84 c0                	test   al,al
   19e6e:	0f 84 24 02 00 00    	je     1a098 <_svfiprintf_r+0x318>
   19e74:	c6 44 24 6f 00       	mov    BYTE PTR [rsp+0x6f],0x0
   19e79:	48 83 c3 01          	add    rbx,0x1
   19e7d:	31 f6                	xor    esi,esi
   19e7f:	45 31 ed             	xor    r13d,r13d
   19e82:	41 bc ff ff ff ff    	mov    r12d,0xffffffff
   19e88:	0f be 13             	movsx  edx,BYTE PTR [rbx]
   19e8b:	4c 8d 73 01          	lea    r14,[rbx+0x1]
   19e8f:	8d 42 e0             	lea    eax,[rdx-0x20]
   19e92:	83 f8 58             	cmp    eax,0x58
   19e95:	77 41                	ja     19ed8 <_svfiprintf_r+0x158>
   19e97:	48 8d 3d a2 6a ff ff 	lea    rdi,[rip+0xffffffffffff6aa2]        # 10940 <_ctype_b+0x180>
   19e9e:	48 63 04 87          	movsxd rax,DWORD PTR [rdi+rax*4]
   19ea2:	48 01 f8             	add    rax,rdi
   19ea5:	3e ff e0             	notrack jmp rax
   19ea8:	0f 1f 84 00 00 00 00 	nop    DWORD PTR [rax+rax*1+0x0]
   19eaf:	00 
   19eb0:	31 f6                	xor    esi,esi
   19eb2:	8d 42 d0             	lea    eax,[rdx-0x30]
   19eb5:	8d 14 b6             	lea    edx,[rsi+rsi*4]
   19eb8:	49 83 c6 01          	add    r14,0x1
   19ebc:	8d 34 50             	lea    esi,[rax+rdx*2]
   19ebf:	41 0f be 56 ff       	movsx  edx,BYTE PTR [r14-0x1]
   19ec4:	8d 42 d0             	lea    eax,[rdx-0x30]
   19ec7:	83 f8 09             	cmp    eax,0x9
   19eca:	76 e9                	jbe    19eb5 <_svfiprintf_r+0x135>
   19ecc:	8d 42 e0             	lea    eax,[rdx-0x20]
   19ecf:	83 f8 58             	cmp    eax,0x58
   19ed2:	76 c3                	jbe    19e97 <_svfiprintf_r+0x117>
   19ed4:	0f 1f 40 00          	nop    DWORD PTR [rax+0x0]
   19ed8:	89 74 24 14          	mov    DWORD PTR [rsp+0x14],esi
   19edc:	85 d2                	test   edx,edx
   19ede:	0f 84 b4 01 00 00    	je     1a098 <_svfiprintf_r+0x318>
   19ee4:	88 94 24 20 01 00 00 	mov    BYTE PTR [rsp+0x120],dl
   19eeb:	bb 01 00 00 00       	mov    ebx,0x1
   19ef0:	48 8d ac 24 20 01 00 	lea    rbp,[rsp+0x120]
   19ef7:	00 
   19ef8:	c6 44 24 6f 00       	mov    BYTE PTR [rsp+0x6f],0x0
   19efd:	c7 04 24 01 00 00 00 	mov    DWORD PTR [rsp],0x1
   19f04:	44 89 6c 24 08       	mov    DWORD PTR [rsp+0x8],r13d
   19f09:	45 31 e4             	xor    r12d,r12d
   19f0c:	0f 1f 40 00          	nop    DWORD PTR [rax+0x0]
   19f10:	8b 7c 24 08          	mov    edi,DWORD PTR [rsp+0x8]
   19f14:	8d 43 02             	lea    eax,[rbx+0x2]
   19f17:	41 89 fd             	mov    r13d,edi
   19f1a:	41 83 e5 02          	and    r13d,0x2
   19f1e:	0f 45 d8             	cmovne ebx,eax
   19f21:	81 e7 84 00 00 00    	and    edi,0x84
   19f27:	8b 44 24 78          	mov    eax,DWORD PTR [rsp+0x78]
   19f2b:	89 7c 24 30          	mov    DWORD PTR [rsp+0x30],edi
   19f2f:	75 11                	jne    19f42 <_svfiprintf_r+0x1c2>
   19f31:	44 8b 5c 24 14       	mov    r11d,DWORD PTR [rsp+0x14]
   19f36:	41 29 db             	sub    r11d,ebx
   19f39:	45 85 db             	test   r11d,r11d
   19f3c:	0f 8f 9e 08 00 00    	jg     1a7e0 <_svfiprintf_r+0xa60>
   19f42:	80 7c 24 6f 00       	cmp    BYTE PTR [rsp+0x6f],0x0
   19f47:	74 31                	je     19f7a <_svfiprintf_r+0x1fa>
   19f49:	83 c0 01             	add    eax,0x1
   19f4c:	48 8d 54 24 6f       	lea    rdx,[rsp+0x6f]
   19f51:	49 83 c0 01          	add    r8,0x1
   19f55:	48 83 c1 10          	add    rcx,0x10
   19f59:	48 89 51 f0          	mov    QWORD PTR [rcx-0x10],rdx
   19f5d:	48 c7 41 f8 01 00 00 	mov    QWORD PTR [rcx-0x8],0x1
   19f64:	00 
   19f65:	4c 89 84 24 80 00 00 	mov    QWORD PTR [rsp+0x80],r8
   19f6c:	00 
   19f6d:	89 44 24 78          	mov    DWORD PTR [rsp+0x78],eax
   19f71:	83 f8 07             	cmp    eax,0x7
   19f74:	0f 8f b6 09 00 00    	jg     1a930 <_svfiprintf_r+0xbb0>
   19f7a:	45 85 ed             	test   r13d,r13d
   19f7d:	74 34                	je     19fb3 <_svfiprintf_r+0x233>
   19f7f:	83 c0 01             	add    eax,0x1
   19f82:	49 83 c0 02          	add    r8,0x2
   19f86:	48 83 c1 10          	add    rcx,0x10
   19f8a:	48 c7 41 f8 02 00 00 	mov    QWORD PTR [rcx-0x8],0x2
   19f91:	00 
   19f92:	48 8d 94 24 1e 01 00 	lea    rdx,[rsp+0x11e]
   19f99:	00 
   19f9a:	4c 89 84 24 80 00 00 	mov    QWORD PTR [rsp+0x80],r8
   19fa1:	00 
   19fa2:	48 89 51 f0          	mov    QWORD PTR [rcx-0x10],rdx
   19fa6:	89 44 24 78          	mov    DWORD PTR [rsp+0x78],eax
   19faa:	83 f8 07             	cmp    eax,0x7
   19fad:	0f 8f 4d 09 00 00    	jg     1a900 <_svfiprintf_r+0xb80>
   19fb3:	81 7c 24 30 80 00 00 	cmp    DWORD PTR [rsp+0x30],0x80
   19fba:	00 
   19fbb:	0f 84 6f 05 00 00    	je     1a530 <_svfiprintf_r+0x7b0>
   19fc1:	44 2b 24 24          	sub    r12d,DWORD PTR [rsp]
   19fc5:	45 85 e4             	test   r12d,r12d
   19fc8:	0f 8f a2 06 00 00    	jg     1a670 <_svfiprintf_r+0x8f0>
   19fce:	48 89 29             	mov    QWORD PTR [rcx],rbp
   19fd1:	48 63 2c 24          	movsxd rbp,DWORD PTR [rsp]
   19fd5:	83 c0 01             	add    eax,0x1
   19fd8:	48 83 c1 10          	add    rcx,0x10
   19fdc:	89 44 24 78          	mov    DWORD PTR [rsp+0x78],eax
   19fe0:	49 01 e8             	add    r8,rbp
   19fe3:	48 89 69 f8          	mov    QWORD PTR [rcx-0x8],rbp
   19fe7:	4c 89 84 24 80 00 00 	mov    QWORD PTR [rsp+0x80],r8
   19fee:	00 
   19fef:	83 f8 07             	cmp    eax,0x7
   19ff2:	0f 8f 88 07 00 00    	jg     1a780 <_svfiprintf_r+0xa00>
   19ff8:	f6 44 24 08 04       	test   BYTE PTR [rsp+0x8],0x4
   19ffd:	74 11                	je     1a010 <_svfiprintf_r+0x290>
   19fff:	44 8b 64 24 14       	mov    r12d,DWORD PTR [rsp+0x14]
   1a004:	41 29 dc             	sub    r12d,ebx
   1a007:	45 85 e4             	test   r12d,r12d
   1a00a:	0f 8f 50 09 00 00    	jg     1a960 <_svfiprintf_r+0xbe0>
   1a010:	8b 44 24 14          	mov    eax,DWORD PTR [rsp+0x14]
   1a014:	39 d8                	cmp    eax,ebx
   1a016:	0f 4d d8             	cmovge ebx,eax
   1a019:	01 5c 24 58          	add    DWORD PTR [rsp+0x58],ebx
   1a01d:	4d 85 c0             	test   r8,r8
   1a020:	0f 85 8a 07 00 00    	jne    1a7b0 <_svfiprintf_r+0xa30>
   1a026:	c7 44 24 78 00 00 00 	mov    DWORD PTR [rsp+0x78],0x0
   1a02d:	00 
   1a02e:	48 8b 4c 24 18       	mov    rcx,QWORD PTR [rsp+0x18]
   1a033:	e9 ce fd ff ff       	jmp    19e06 <_svfiprintf_r+0x86>
   1a038:	41 83 cd 10          	or     r13d,0x10
   1a03c:	4c 89 f3             	mov    rbx,r14
   1a03f:	e9 44 fe ff ff       	jmp    19e88 <_svfiprintf_r+0x108>
   1a044:	48 8b 7c 24 28       	mov    rdi,QWORD PTR [rsp+0x28]
   1a049:	8b 07                	mov    eax,DWORD PTR [rdi]
   1a04b:	83 f8 2f             	cmp    eax,0x2f
   1a04e:	0f 87 99 0a 00 00    	ja     1aaed <_svfiprintf_r+0xd6d>
   1a054:	89 c2                	mov    edx,eax
   1a056:	83 c0 08             	add    eax,0x8
   1a059:	48 03 57 10          	add    rdx,QWORD PTR [rdi+0x10]
   1a05d:	89 07                	mov    DWORD PTR [rdi],eax
   1a05f:	8b 32                	mov    esi,DWORD PTR [rdx]
   1a061:	85 f6                	test   esi,esi
   1a063:	79 d7                	jns    1a03c <_svfiprintf_r+0x2bc>
   1a065:	f7 de                	neg    esi
   1a067:	41 83 cd 04          	or     r13d,0x4
   1a06b:	eb cf                	jmp    1a03c <_svfiprintf_r+0x2bc>
   1a06d:	0f 1f 00             	nop    DWORD PTR [rax]
   1a070:	48 8b 74 24 20       	mov    rsi,QWORD PTR [rsp+0x20]
   1a075:	48 8d 54 24 70       	lea    rdx,[rsp+0x70]
   1a07a:	4c 89 ff             	mov    rdi,r15
   1a07d:	e8 0e fb ff ff       	call   19b90 <__ssprint_r>
   1a082:	85 c0                	test   eax,eax
   1a084:	75 22                	jne    1a0a8 <_svfiprintf_r+0x328>
   1a086:	4c 8b 84 24 80 00 00 	mov    r8,QWORD PTR [rsp+0x80]
   1a08d:	00 
   1a08e:	48 8b 4c 24 18       	mov    rcx,QWORD PTR [rsp+0x18]
   1a093:	e9 cb fd ff ff       	jmp    19e63 <_svfiprintf_r+0xe3>
   1a098:	4d 85 c0             	test   r8,r8
   1a09b:	0f 85 75 0e 00 00    	jne    1af16 <_svfiprintf_r+0x1196>
   1a0a1:	0f 1f 80 00 00 00 00 	nop    DWORD PTR [rax+0x0]
   1a0a8:	48 8b 44 24 20       	mov    rax,QWORD PTR [rsp+0x20]
   1a0ad:	f6 40 10 40          	test   BYTE PTR [rax+0x10],0x40
   1a0b1:	b8 ff ff ff ff       	mov    eax,0xffffffff
   1a0b6:	0f 44 44 24 58       	cmove  eax,DWORD PTR [rsp+0x58]
   1a0bb:	89 44 24 58          	mov    DWORD PTR [rsp+0x58],eax
   1a0bf:	48 8b 84 24 48 01 00 	mov    rax,QWORD PTR [rsp+0x148]
   1a0c6:	00 
   1a0c7:	64 48 2b 04 25 28 00 	sub    rax,QWORD PTR fs:0x28
   1a0ce:	00 00 
   1a0d0:	0f 85 bd 0e 00 00    	jne    1af93 <_svfiprintf_r+0x1213>
   1a0d6:	8b 44 24 58          	mov    eax,DWORD PTR [rsp+0x58]
   1a0da:	48 81 c4 58 01 00 00 	add    rsp,0x158
   1a0e1:	5b                   	pop    rbx
   1a0e2:	5d                   	pop    rbp
   1a0e3:	41 5c                	pop    r12
   1a0e5:	41 5d                	pop    r13
   1a0e7:	41 5e                	pop    r14
   1a0e9:	41 5f                	pop    r15
   1a0eb:	c3                   	ret    
   1a0ec:	48 8b 44 24 28       	mov    rax,QWORD PTR [rsp+0x28]
   1a0f1:	89 74 24 14          	mov    DWORD PTR [rsp+0x14],esi
   1a0f5:	8b 00                	mov    eax,DWORD PTR [rax]
   1a0f7:	41 f6 c5 10          	test   r13b,0x10
   1a0fb:	0f 85 0d 02 00 00    	jne    1a30e <_svfiprintf_r+0x58e>
   1a101:	41 f6 c5 40          	test   r13b,0x40
   1a105:	0f 84 88 0a 00 00    	je     1ab93 <_svfiprintf_r+0xe13>
   1a10b:	83 f8 2f             	cmp    eax,0x2f
   1a10e:	0f 87 29 0d 00 00    	ja     1ae3d <_svfiprintf_r+0x10bd>
   1a114:	48 8b 74 24 28       	mov    rsi,QWORD PTR [rsp+0x28]
   1a119:	89 c2                	mov    edx,eax
   1a11b:	83 c0 08             	add    eax,0x8
   1a11e:	89 06                	mov    DWORD PTR [rsi],eax
   1a120:	48 03 56 10          	add    rdx,QWORD PTR [rsi+0x10]
   1a124:	48 0f bf 32          	movsx  rsi,WORD PTR [rdx]
   1a128:	48 89 f0             	mov    rax,rsi
   1a12b:	48 85 c0             	test   rax,rax
   1a12e:	0f 89 02 02 00 00    	jns    1a336 <_svfiprintf_r+0x5b6>
   1a134:	ba 2d 00 00 00       	mov    edx,0x2d
   1a139:	48 f7 de             	neg    rsi
   1a13c:	b8 01 00 00 00       	mov    eax,0x1
   1a141:	88 54 24 6f          	mov    BYTE PTR [rsp+0x6f],dl
   1a145:	41 83 fc ff          	cmp    r12d,0xffffffff
   1a149:	0f 85 a9 00 00 00    	jne    1a1f8 <_svfiprintf_r+0x478>
   1a14f:	90                   	nop
   1a150:	83 f8 01             	cmp    eax,0x1
   1a153:	0f 84 77 0b 00 00    	je     1acd0 <_svfiprintf_r+0xf50>
   1a159:	4c 8d 8c 24 48 01 00 	lea    r9,[rsp+0x148]
   1a160:	00 
   1a161:	4c 89 cd             	mov    rbp,r9
   1a164:	83 f8 02             	cmp    eax,0x2
   1a167:	0f 85 fb 0a 00 00    	jne    1ac68 <_svfiprintf_r+0xee8>
   1a16d:	48 8b 54 24 48       	mov    rdx,QWORD PTR [rsp+0x48]
   1a172:	66 0f 1f 44 00 00    	nop    WORD PTR [rax+rax*1+0x0]
   1a178:	48 89 f0             	mov    rax,rsi
   1a17b:	48 83 ed 01          	sub    rbp,0x1
   1a17f:	83 e0 0f             	and    eax,0xf
   1a182:	48 c1 ee 04          	shr    rsi,0x4
   1a186:	0f b6 04 02          	movzx  eax,BYTE PTR [rdx+rax*1]
   1a18a:	88 45 00             	mov    BYTE PTR [rbp+0x0],al
   1a18d:	75 e9                	jne    1a178 <_svfiprintf_r+0x3f8>
   1a18f:	44 89 c8             	mov    eax,r9d
   1a192:	44 89 6c 24 08       	mov    DWORD PTR [rsp+0x8],r13d
   1a197:	29 e8                	sub    eax,ebp
   1a199:	89 04 24             	mov    DWORD PTR [rsp],eax
   1a19c:	e9 9f 00 00 00       	jmp    1a240 <_svfiprintf_r+0x4c0>
   1a1a1:	48 8b 44 24 28       	mov    rax,QWORD PTR [rsp+0x28]
   1a1a6:	89 74 24 14          	mov    DWORD PTR [rsp+0x14],esi
   1a1aa:	8b 00                	mov    eax,DWORD PTR [rax]
   1a1ac:	41 f6 c5 10          	test   r13b,0x10
   1a1b0:	0f 85 08 03 00 00    	jne    1a4be <_svfiprintf_r+0x73e>
   1a1b6:	41 f6 c5 40          	test   r13b,0x40
   1a1ba:	0f 84 ae 09 00 00    	je     1ab6e <_svfiprintf_r+0xdee>
   1a1c0:	83 f8 2f             	cmp    eax,0x2f
   1a1c3:	0f 87 32 0c 00 00    	ja     1adfb <_svfiprintf_r+0x107b>
   1a1c9:	48 8b 74 24 28       	mov    rsi,QWORD PTR [rsp+0x28]
   1a1ce:	89 c2                	mov    edx,eax
   1a1d0:	83 c0 08             	add    eax,0x8
   1a1d3:	89 06                	mov    DWORD PTR [rsi],eax
   1a1d5:	48 03 56 10          	add    rdx,QWORD PTR [rsi+0x10]
   1a1d9:	0f b7 32             	movzx  esi,WORD PTR [rdx]
   1a1dc:	b8 01 00 00 00       	mov    eax,0x1
   1a1e1:	0f 1f 80 00 00 00 00 	nop    DWORD PTR [rax+0x0]
   1a1e8:	31 d2                	xor    edx,edx
   1a1ea:	88 54 24 6f          	mov    BYTE PTR [rsp+0x6f],dl
   1a1ee:	41 83 fc ff          	cmp    r12d,0xffffffff
   1a1f2:	0f 84 58 ff ff ff    	je     1a150 <_svfiprintf_r+0x3d0>
   1a1f8:	44 89 ef             	mov    edi,r13d
   1a1fb:	40 80 e7 7f          	and    dil,0x7f
   1a1ff:	89 7c 24 08          	mov    DWORD PTR [rsp+0x8],edi
   1a203:	48 85 f6             	test   rsi,rsi
   1a206:	0f 85 29 0b 00 00    	jne    1ad35 <_svfiprintf_r+0xfb5>
   1a20c:	45 85 e4             	test   r12d,r12d
   1a20f:	0f 85 20 0b 00 00    	jne    1ad35 <_svfiprintf_r+0xfb5>
   1a215:	85 c0                	test   eax,eax
   1a217:	0f 85 93 0a 00 00    	jne    1acb0 <_svfiprintf_r+0xf30>
   1a21d:	41 83 e5 01          	and    r13d,0x1
   1a221:	44 89 2c 24          	mov    DWORD PTR [rsp],r13d
   1a225:	0f 84 d3 0a 00 00    	je     1acfe <_svfiprintf_r+0xf7e>
   1a22b:	c6 84 24 47 01 00 00 	mov    BYTE PTR [rsp+0x147],0x30
   1a232:	30 
   1a233:	45 31 e4             	xor    r12d,r12d
   1a236:	48 8d ac 24 47 01 00 	lea    rbp,[rsp+0x147]
   1a23d:	00 
   1a23e:	66 90                	xchg   ax,ax
   1a240:	8b 04 24             	mov    eax,DWORD PTR [rsp]
   1a243:	41 39 c4             	cmp    r12d,eax
   1a246:	89 c3                	mov    ebx,eax
   1a248:	41 0f 4d dc          	cmovge ebx,r12d
   1a24c:	80 7c 24 6f 01       	cmp    BYTE PTR [rsp+0x6f],0x1
   1a251:	83 db ff             	sbb    ebx,0xffffffff
   1a254:	e9 b7 fc ff ff       	jmp    19f10 <_svfiprintf_r+0x190>
   1a259:	89 74 24 14          	mov    DWORD PTR [rsp+0x14],esi
   1a25d:	48 8b 74 24 28       	mov    rsi,QWORD PTR [rsp+0x28]
   1a262:	8b 06                	mov    eax,DWORD PTR [rsi]
   1a264:	83 f8 2f             	cmp    eax,0x2f
   1a267:	0f 87 c2 08 00 00    	ja     1ab2f <_svfiprintf_r+0xdaf>
   1a26d:	89 c2                	mov    edx,eax
   1a26f:	83 c0 08             	add    eax,0x8
   1a272:	48 03 56 10          	add    rdx,QWORD PTR [rsi+0x10]
   1a276:	89 06                	mov    DWORD PTR [rsi],eax
   1a278:	48 8b 2a             	mov    rbp,QWORD PTR [rdx]
   1a27b:	c6 44 24 6f 00       	mov    BYTE PTR [rsp+0x6f],0x0
   1a280:	48 85 ed             	test   rbp,rbp
   1a283:	0f 84 c8 08 00 00    	je     1ab51 <_svfiprintf_r+0xdd1>
   1a289:	41 83 fc ff          	cmp    r12d,0xffffffff
   1a28d:	0f 84 3c 0b 00 00    	je     1adcf <_svfiprintf_r+0x104f>
   1a293:	31 f6                	xor    esi,esi
   1a295:	49 63 d4             	movsxd rdx,r12d
   1a298:	48 89 ef             	mov    rdi,rbp
   1a29b:	4c 89 44 24 08       	mov    QWORD PTR [rsp+0x8],r8
   1a2a0:	48 89 0c 24          	mov    QWORD PTR [rsp],rcx
   1a2a4:	e8 97 14 00 00       	call   1b740 <memchr>
   1a2a9:	48 8b 0c 24          	mov    rcx,QWORD PTR [rsp]
   1a2ad:	4c 8b 44 24 08       	mov    r8,QWORD PTR [rsp+0x8]
   1a2b2:	48 85 c0             	test   rax,rax
   1a2b5:	0f 84 72 0c 00 00    	je     1af2d <_svfiprintf_r+0x11ad>
   1a2bb:	29 e8                	sub    eax,ebp
   1a2bd:	44 89 6c 24 08       	mov    DWORD PTR [rsp+0x8],r13d
   1a2c2:	45 31 e4             	xor    r12d,r12d
   1a2c5:	89 04 24             	mov    DWORD PTR [rsp],eax
   1a2c8:	e9 73 ff ff ff       	jmp    1a240 <_svfiprintf_r+0x4c0>
   1a2cd:	48 8b 44 24 28       	mov    rax,QWORD PTR [rsp+0x28]
   1a2d2:	89 74 24 14          	mov    DWORD PTR [rsp+0x14],esi
   1a2d6:	41 83 cd 10          	or     r13d,0x10
   1a2da:	8b 00                	mov    eax,DWORD PTR [rax]
   1a2dc:	83 f8 2f             	cmp    eax,0x2f
   1a2df:	0f 87 34 08 00 00    	ja     1ab19 <_svfiprintf_r+0xd99>
   1a2e5:	48 8b 74 24 28       	mov    rsi,QWORD PTR [rsp+0x28]
   1a2ea:	89 c2                	mov    edx,eax
   1a2ec:	83 c0 08             	add    eax,0x8
   1a2ef:	89 06                	mov    DWORD PTR [rsi],eax
   1a2f1:	48 03 56 10          	add    rdx,QWORD PTR [rsi+0x10]
   1a2f5:	48 8b 32             	mov    rsi,QWORD PTR [rdx]
   1a2f8:	31 c0                	xor    eax,eax
   1a2fa:	e9 e9 fe ff ff       	jmp    1a1e8 <_svfiprintf_r+0x468>
   1a2ff:	48 8b 44 24 28       	mov    rax,QWORD PTR [rsp+0x28]
   1a304:	89 74 24 14          	mov    DWORD PTR [rsp+0x14],esi
   1a308:	41 83 cd 10          	or     r13d,0x10
   1a30c:	8b 00                	mov    eax,DWORD PTR [rax]
   1a30e:	83 f8 2f             	cmp    eax,0x2f
   1a311:	0f 87 ec 07 00 00    	ja     1ab03 <_svfiprintf_r+0xd83>
   1a317:	48 8b 74 24 28       	mov    rsi,QWORD PTR [rsp+0x28]
   1a31c:	89 c2                	mov    edx,eax
   1a31e:	83 c0 08             	add    eax,0x8
   1a321:	89 06                	mov    DWORD PTR [rsi],eax
   1a323:	48 03 56 10          	add    rdx,QWORD PTR [rsi+0x10]
   1a327:	48 8b 02             	mov    rax,QWORD PTR [rdx]
   1a32a:	48 89 c6             	mov    rsi,rax
   1a32d:	48 85 c0             	test   rax,rax
   1a330:	0f 88 fe fd ff ff    	js     1a134 <_svfiprintf_r+0x3b4>
   1a336:	41 83 fc ff          	cmp    r12d,0xffffffff
   1a33a:	0f 84 90 09 00 00    	je     1acd0 <_svfiprintf_r+0xf50>
   1a340:	41 80 e5 7f          	and    r13b,0x7f
   1a344:	44 89 6c 24 08       	mov    DWORD PTR [rsp+0x8],r13d
   1a349:	48 85 f6             	test   rsi,rsi
   1a34c:	0f 85 75 09 00 00    	jne    1acc7 <_svfiprintf_r+0xf47>
   1a352:	45 85 e4             	test   r12d,r12d
   1a355:	0f 85 6c 09 00 00    	jne    1acc7 <_svfiprintf_r+0xf47>
   1a35b:	c7 04 24 00 00 00 00 	mov    DWORD PTR [rsp],0x0
   1a362:	48 8d ac 24 48 01 00 	lea    rbp,[rsp+0x148]
   1a369:	00 
   1a36a:	e9 d1 fe ff ff       	jmp    1a240 <_svfiprintf_r+0x4c0>
   1a36f:	41 80 cd 80          	or     r13b,0x80
   1a373:	e9 c4 fc ff ff       	jmp    1a03c <_svfiprintf_r+0x2bc>
   1a378:	41 0f be 16          	movsx  edx,BYTE PTR [r14]
   1a37c:	49 8d 7e 01          	lea    rdi,[r14+0x1]
   1a380:	83 fa 2a             	cmp    edx,0x2a
   1a383:	0f 84 b5 0b 00 00    	je     1af3e <_svfiprintf_r+0x11be>
   1a389:	8d 42 d0             	lea    eax,[rdx-0x30]
   1a38c:	49 89 fe             	mov    r14,rdi
   1a38f:	45 31 e4             	xor    r12d,r12d
   1a392:	83 f8 09             	cmp    eax,0x9
   1a395:	0f 87 f4 fa ff ff    	ja     19e8f <_svfiprintf_r+0x10f>
   1a39b:	0f 1f 44 00 00       	nop    DWORD PTR [rax+rax*1+0x0]
   1a3a0:	43 8d 14 a4          	lea    edx,[r12+r12*4]
   1a3a4:	49 83 c6 01          	add    r14,0x1
   1a3a8:	44 8d 24 50          	lea    r12d,[rax+rdx*2]
   1a3ac:	41 0f be 56 ff       	movsx  edx,BYTE PTR [r14-0x1]
   1a3b1:	8d 42 d0             	lea    eax,[rdx-0x30]
   1a3b4:	83 f8 09             	cmp    eax,0x9
   1a3b7:	76 e7                	jbe    1a3a0 <_svfiprintf_r+0x620>
   1a3b9:	e9 d1 fa ff ff       	jmp    19e8f <_svfiprintf_r+0x10f>
   1a3be:	c6 44 24 6f 2b       	mov    BYTE PTR [rsp+0x6f],0x2b
   1a3c3:	e9 74 fc ff ff       	jmp    1a03c <_svfiprintf_r+0x2bc>
   1a3c8:	41 83 cd 01          	or     r13d,0x1
   1a3cc:	e9 6b fc ff ff       	jmp    1a03c <_svfiprintf_r+0x2bc>
   1a3d1:	80 7c 24 6f 00       	cmp    BYTE PTR [rsp+0x6f],0x0
   1a3d6:	0f 85 60 fc ff ff    	jne    1a03c <_svfiprintf_r+0x2bc>
   1a3dc:	c6 44 24 6f 20       	mov    BYTE PTR [rsp+0x6f],0x20
   1a3e1:	e9 56 fc ff ff       	jmp    1a03c <_svfiprintf_r+0x2bc>
   1a3e6:	48 8b 7c 24 28       	mov    rdi,QWORD PTR [rsp+0x28]
   1a3eb:	89 74 24 14          	mov    DWORD PTR [rsp+0x14],esi
   1a3ef:	8b 07                	mov    eax,DWORD PTR [rdi]
   1a3f1:	83 f8 2f             	cmp    eax,0x2f
   1a3f4:	0f 87 dd 06 00 00    	ja     1aad7 <_svfiprintf_r+0xd57>
   1a3fa:	89 c2                	mov    edx,eax
   1a3fc:	83 c0 08             	add    eax,0x8
   1a3ff:	48 03 57 10          	add    rdx,QWORD PTR [rdi+0x10]
   1a403:	89 07                	mov    DWORD PTR [rdi],eax
   1a405:	b8 30 78 00 00       	mov    eax,0x7830
   1a40a:	48 8b 32             	mov    rsi,QWORD PTR [rdx]
   1a40d:	41 83 cd 02          	or     r13d,0x2
   1a411:	66 89 84 24 1e 01 00 	mov    WORD PTR [rsp+0x11e],ax
   1a418:	00 
   1a419:	48 8d 05 c5 5e ff ff 	lea    rax,[rip+0xffffffffffff5ec5]        # 102e5 <zeroes.0-0x35b>
   1a420:	48 89 44 24 48       	mov    QWORD PTR [rsp+0x48],rax
   1a425:	b8 02 00 00 00       	mov    eax,0x2
   1a42a:	e9 b9 fd ff ff       	jmp    1a1e8 <_svfiprintf_r+0x468>
   1a42f:	48 8b 44 24 28       	mov    rax,QWORD PTR [rsp+0x28]
   1a434:	89 74 24 14          	mov    DWORD PTR [rsp+0x14],esi
   1a438:	8b 00                	mov    eax,DWORD PTR [rax]
   1a43a:	41 f6 c5 10          	test   r13b,0x10
   1a43e:	0f 85 98 fe ff ff    	jne    1a2dc <_svfiprintf_r+0x55c>
   1a444:	41 f6 c5 40          	test   r13b,0x40
   1a448:	0f 84 67 06 00 00    	je     1aab5 <_svfiprintf_r+0xd35>
   1a44e:	83 f8 2f             	cmp    eax,0x2f
   1a451:	0f 87 7d 0a 00 00    	ja     1aed4 <_svfiprintf_r+0x1154>
   1a457:	48 8b 74 24 28       	mov    rsi,QWORD PTR [rsp+0x28]
   1a45c:	89 c2                	mov    edx,eax
   1a45e:	83 c0 08             	add    eax,0x8
   1a461:	89 06                	mov    DWORD PTR [rsi],eax
   1a463:	48 03 56 10          	add    rdx,QWORD PTR [rsi+0x10]
   1a467:	0f b7 32             	movzx  esi,WORD PTR [rdx]
   1a46a:	31 c0                	xor    eax,eax
   1a46c:	e9 77 fd ff ff       	jmp    1a1e8 <_svfiprintf_r+0x468>
   1a471:	48 8b 7c 24 28       	mov    rdi,QWORD PTR [rsp+0x28]
   1a476:	8b 07                	mov    eax,DWORD PTR [rdi]
   1a478:	41 f6 c5 10          	test   r13b,0x10
   1a47c:	0f 84 00 06 00 00    	je     1aa82 <_svfiprintf_r+0xd02>
   1a482:	83 f8 2f             	cmp    eax,0x2f
   1a485:	0f 87 33 0a 00 00    	ja     1aebe <_svfiprintf_r+0x113e>
   1a48b:	89 c2                	mov    edx,eax
   1a48d:	83 c0 08             	add    eax,0x8
   1a490:	48 03 57 10          	add    rdx,QWORD PTR [rdi+0x10]
   1a494:	89 07                	mov    DWORD PTR [rdi],eax
   1a496:	48 8b 02             	mov    rax,QWORD PTR [rdx]
   1a499:	48 63 54 24 58       	movsxd rdx,DWORD PTR [rsp+0x58]
   1a49e:	48 89 10             	mov    QWORD PTR [rax],rdx
   1a4a1:	e9 60 f9 ff ff       	jmp    19e06 <_svfiprintf_r+0x86>
   1a4a6:	41 83 cd 40          	or     r13d,0x40
   1a4aa:	e9 8d fb ff ff       	jmp    1a03c <_svfiprintf_r+0x2bc>
   1a4af:	48 8b 44 24 28       	mov    rax,QWORD PTR [rsp+0x28]
   1a4b4:	89 74 24 14          	mov    DWORD PTR [rsp+0x14],esi
   1a4b8:	41 83 cd 10          	or     r13d,0x10
   1a4bc:	8b 00                	mov    eax,DWORD PTR [rax]
   1a4be:	83 f8 2f             	cmp    eax,0x2f
   1a4c1:	0f 87 a5 05 00 00    	ja     1aa6c <_svfiprintf_r+0xcec>
   1a4c7:	48 8b 74 24 28       	mov    rsi,QWORD PTR [rsp+0x28]
   1a4cc:	89 c2                	mov    edx,eax
   1a4ce:	83 c0 08             	add    eax,0x8
   1a4d1:	89 06                	mov    DWORD PTR [rsi],eax
   1a4d3:	48 03 56 10          	add    rdx,QWORD PTR [rsi+0x10]
   1a4d7:	48 8b 32             	mov    rsi,QWORD PTR [rdx]
   1a4da:	b8 01 00 00 00       	mov    eax,0x1
   1a4df:	e9 04 fd ff ff       	jmp    1a1e8 <_svfiprintf_r+0x468>
   1a4e4:	89 74 24 14          	mov    DWORD PTR [rsp+0x14],esi
   1a4e8:	48 8b 74 24 28       	mov    rsi,QWORD PTR [rsp+0x28]
   1a4ed:	8b 06                	mov    eax,DWORD PTR [rsi]
   1a4ef:	83 f8 2f             	cmp    eax,0x2f
   1a4f2:	0f 87 5e 05 00 00    	ja     1aa56 <_svfiprintf_r+0xcd6>
   1a4f8:	89 c2                	mov    edx,eax
   1a4fa:	83 c0 08             	add    eax,0x8
   1a4fd:	48 03 56 10          	add    rdx,QWORD PTR [rsi+0x10]
   1a501:	89 06                	mov    DWORD PTR [rsi],eax
   1a503:	8b 02                	mov    eax,DWORD PTR [rdx]
   1a505:	c7 04 24 01 00 00 00 	mov    DWORD PTR [rsp],0x1
   1a50c:	bb 01 00 00 00       	mov    ebx,0x1
   1a511:	48 8d ac 24 20 01 00 	lea    rbp,[rsp+0x120]
   1a518:	00 
   1a519:	c6 44 24 6f 00       	mov    BYTE PTR [rsp+0x6f],0x0
   1a51e:	88 84 24 20 01 00 00 	mov    BYTE PTR [rsp+0x120],al
   1a525:	e9 da f9 ff ff       	jmp    19f04 <_svfiprintf_r+0x184>
   1a52a:	66 0f 1f 44 00 00    	nop    WORD PTR [rax+rax*1+0x0]
   1a530:	44 8b 5c 24 14       	mov    r11d,DWORD PTR [rsp+0x14]
   1a535:	41 29 db             	sub    r11d,ebx
   1a538:	45 85 db             	test   r11d,r11d
   1a53b:	0f 8e 80 fa ff ff    	jle    19fc1 <_svfiprintf_r+0x241>
   1a541:	4c 8d 2d 68 65 ff ff 	lea    r13,[rip+0xffffffffffff6568]        # 10ab0 <zeroes.0>
   1a548:	41 83 fb 10          	cmp    r11d,0x10
   1a54c:	0f 8e b5 00 00 00    	jle    1a607 <_svfiprintf_r+0x887>
   1a552:	4c 89 ee             	mov    rsi,r13
   1a555:	48 8d 54 24 70       	lea    rdx,[rsp+0x70]
   1a55a:	89 5c 24 40          	mov    DWORD PTR [rsp+0x40],ebx
   1a55e:	4d 89 fd             	mov    r13,r15
   1a561:	48 89 6c 24 30       	mov    QWORD PTR [rsp+0x30],rbp
   1a566:	48 8b 5c 24 20       	mov    rbx,QWORD PTR [rsp+0x20]
   1a56b:	48 89 d5             	mov    rbp,rdx
   1a56e:	49 89 f7             	mov    r15,rsi
   1a571:	44 89 64 24 38       	mov    DWORD PTR [rsp+0x38],r12d
   1a576:	45 89 dc             	mov    r12d,r11d
   1a579:	4c 89 74 24 50       	mov    QWORD PTR [rsp+0x50],r14
   1a57e:	4c 8b 74 24 18       	mov    r14,QWORD PTR [rsp+0x18]
   1a583:	eb 0d                	jmp    1a592 <_svfiprintf_r+0x812>
   1a585:	0f 1f 00             	nop    DWORD PTR [rax]
   1a588:	41 83 ec 10          	sub    r12d,0x10
   1a58c:	41 83 fc 10          	cmp    r12d,0x10
   1a590:	7e 56                	jle    1a5e8 <_svfiprintf_r+0x868>
   1a592:	49 83 c0 10          	add    r8,0x10
   1a596:	83 c0 01             	add    eax,0x1
   1a599:	4c 89 39             	mov    QWORD PTR [rcx],r15
   1a59c:	48 83 c1 10          	add    rcx,0x10
   1a5a0:	48 c7 41 f8 10 00 00 	mov    QWORD PTR [rcx-0x8],0x10
   1a5a7:	00 
   1a5a8:	4c 89 84 24 80 00 00 	mov    QWORD PTR [rsp+0x80],r8
   1a5af:	00 
   1a5b0:	89 44 24 78          	mov    DWORD PTR [rsp+0x78],eax
   1a5b4:	83 f8 07             	cmp    eax,0x7
   1a5b7:	7e cf                	jle    1a588 <_svfiprintf_r+0x808>
   1a5b9:	48 89 ea             	mov    rdx,rbp
   1a5bc:	48 89 de             	mov    rsi,rbx
   1a5bf:	4c 89 ef             	mov    rdi,r13
   1a5c2:	e8 c9 f5 ff ff       	call   19b90 <__ssprint_r>
   1a5c7:	85 c0                	test   eax,eax
   1a5c9:	0f 85 d9 fa ff ff    	jne    1a0a8 <_svfiprintf_r+0x328>
   1a5cf:	41 83 ec 10          	sub    r12d,0x10
   1a5d3:	4c 8b 84 24 80 00 00 	mov    r8,QWORD PTR [rsp+0x80]
   1a5da:	00 
   1a5db:	8b 44 24 78          	mov    eax,DWORD PTR [rsp+0x78]
   1a5df:	4c 89 f1             	mov    rcx,r14
   1a5e2:	41 83 fc 10          	cmp    r12d,0x10
   1a5e6:	7f aa                	jg     1a592 <_svfiprintf_r+0x812>
   1a5e8:	4c 89 fa             	mov    rdx,r15
   1a5eb:	45 89 e3             	mov    r11d,r12d
   1a5ee:	48 8b 6c 24 30       	mov    rbp,QWORD PTR [rsp+0x30]
   1a5f3:	44 8b 64 24 38       	mov    r12d,DWORD PTR [rsp+0x38]
   1a5f8:	8b 5c 24 40          	mov    ebx,DWORD PTR [rsp+0x40]
   1a5fc:	4c 8b 74 24 50       	mov    r14,QWORD PTR [rsp+0x50]
   1a601:	4d 89 ef             	mov    r15,r13
   1a604:	49 89 d5             	mov    r13,rdx
   1a607:	4d 63 db             	movsxd r11,r11d
   1a60a:	83 c0 01             	add    eax,0x1
   1a60d:	4c 89 29             	mov    QWORD PTR [rcx],r13
   1a610:	48 83 c1 10          	add    rcx,0x10
   1a614:	4d 01 d8             	add    r8,r11
   1a617:	4c 89 59 f8          	mov    QWORD PTR [rcx-0x8],r11
   1a61b:	4c 89 84 24 80 00 00 	mov    QWORD PTR [rsp+0x80],r8
   1a622:	00 
   1a623:	89 44 24 78          	mov    DWORD PTR [rsp+0x78],eax
   1a627:	83 f8 07             	cmp    eax,0x7
   1a62a:	0f 8e 91 f9 ff ff    	jle    19fc1 <_svfiprintf_r+0x241>
   1a630:	48 8b 74 24 20       	mov    rsi,QWORD PTR [rsp+0x20]
   1a635:	48 8d 54 24 70       	lea    rdx,[rsp+0x70]
   1a63a:	4c 89 ff             	mov    rdi,r15
   1a63d:	e8 4e f5 ff ff       	call   19b90 <__ssprint_r>
   1a642:	85 c0                	test   eax,eax
   1a644:	0f 85 5e fa ff ff    	jne    1a0a8 <_svfiprintf_r+0x328>
   1a64a:	44 2b 24 24          	sub    r12d,DWORD PTR [rsp]
   1a64e:	4c 8b 84 24 80 00 00 	mov    r8,QWORD PTR [rsp+0x80]
   1a655:	00 
   1a656:	8b 44 24 78          	mov    eax,DWORD PTR [rsp+0x78]
   1a65a:	48 8b 4c 24 18       	mov    rcx,QWORD PTR [rsp+0x18]
   1a65f:	45 85 e4             	test   r12d,r12d
   1a662:	0f 8e 66 f9 ff ff    	jle    19fce <_svfiprintf_r+0x24e>
   1a668:	0f 1f 84 00 00 00 00 	nop    DWORD PTR [rax+rax*1+0x0]
   1a66f:	00 
   1a670:	4c 8d 2d 39 64 ff ff 	lea    r13,[rip+0xffffffffffff6439]        # 10ab0 <zeroes.0>
   1a677:	41 83 fc 10          	cmp    r12d,0x10
   1a67b:	0f 8e a6 00 00 00    	jle    1a727 <_svfiprintf_r+0x9a7>
   1a681:	48 8d 7c 24 70       	lea    rdi,[rsp+0x70]
   1a686:	48 89 6c 24 30       	mov    QWORD PTR [rsp+0x30],rbp
   1a68b:	89 5c 24 38          	mov    DWORD PTR [rsp+0x38],ebx
   1a68f:	48 89 fd             	mov    rbp,rdi
   1a692:	48 8b 5c 24 20       	mov    rbx,QWORD PTR [rsp+0x20]
   1a697:	4c 89 74 24 40       	mov    QWORD PTR [rsp+0x40],r14
   1a69c:	4d 89 fe             	mov    r14,r15
   1a69f:	4d 89 ef             	mov    r15,r13
   1a6a2:	45 89 e5             	mov    r13d,r12d
   1a6a5:	4c 8b 64 24 18       	mov    r12,QWORD PTR [rsp+0x18]
   1a6aa:	eb 0e                	jmp    1a6ba <_svfiprintf_r+0x93a>
   1a6ac:	0f 1f 40 00          	nop    DWORD PTR [rax+0x0]
   1a6b0:	41 83 ed 10          	sub    r13d,0x10
   1a6b4:	41 83 fd 10          	cmp    r13d,0x10
   1a6b8:	7e 56                	jle    1a710 <_svfiprintf_r+0x990>
   1a6ba:	49 83 c0 10          	add    r8,0x10
   1a6be:	83 c0 01             	add    eax,0x1
   1a6c1:	4c 89 39             	mov    QWORD PTR [rcx],r15
   1a6c4:	48 83 c1 10          	add    rcx,0x10
   1a6c8:	48 c7 41 f8 10 00 00 	mov    QWORD PTR [rcx-0x8],0x10
   1a6cf:	00 
   1a6d0:	4c 89 84 24 80 00 00 	mov    QWORD PTR [rsp+0x80],r8
   1a6d7:	00 
   1a6d8:	89 44 24 78          	mov    DWORD PTR [rsp+0x78],eax
   1a6dc:	83 f8 07             	cmp    eax,0x7
   1a6df:	7e cf                	jle    1a6b0 <_svfiprintf_r+0x930>
   1a6e1:	48 89 ea             	mov    rdx,rbp
   1a6e4:	48 89 de             	mov    rsi,rbx
   1a6e7:	4c 89 f7             	mov    rdi,r14
   1a6ea:	e8 a1 f4 ff ff       	call   19b90 <__ssprint_r>
   1a6ef:	85 c0                	test   eax,eax
   1a6f1:	0f 85 b1 f9 ff ff    	jne    1a0a8 <_svfiprintf_r+0x328>
   1a6f7:	41 83 ed 10          	sub    r13d,0x10
   1a6fb:	4c 8b 84 24 80 00 00 	mov    r8,QWORD PTR [rsp+0x80]
   1a702:	00 
   1a703:	8b 44 24 78          	mov    eax,DWORD PTR [rsp+0x78]
   1a707:	4c 89 e1             	mov    rcx,r12
   1a70a:	41 83 fd 10          	cmp    r13d,0x10
   1a70e:	7f aa                	jg     1a6ba <_svfiprintf_r+0x93a>
   1a710:	45 89 ec             	mov    r12d,r13d
   1a713:	48 8b 6c 24 30       	mov    rbp,QWORD PTR [rsp+0x30]
   1a718:	4d 89 fd             	mov    r13,r15
   1a71b:	8b 5c 24 38          	mov    ebx,DWORD PTR [rsp+0x38]
   1a71f:	4d 89 f7             	mov    r15,r14
   1a722:	4c 8b 74 24 40       	mov    r14,QWORD PTR [rsp+0x40]
   1a727:	4d 63 e4             	movsxd r12,r12d
   1a72a:	83 c0 01             	add    eax,0x1
   1a72d:	4c 89 29             	mov    QWORD PTR [rcx],r13
   1a730:	48 83 c1 10          	add    rcx,0x10
   1a734:	4d 01 e0             	add    r8,r12
   1a737:	4c 89 61 f8          	mov    QWORD PTR [rcx-0x8],r12
   1a73b:	4c 89 84 24 80 00 00 	mov    QWORD PTR [rsp+0x80],r8
   1a742:	00 
   1a743:	89 44 24 78          	mov    DWORD PTR [rsp+0x78],eax
   1a747:	83 f8 07             	cmp    eax,0x7
   1a74a:	0f 8e 7e f8 ff ff    	jle    19fce <_svfiprintf_r+0x24e>
   1a750:	48 8b 74 24 20       	mov    rsi,QWORD PTR [rsp+0x20]
   1a755:	48 8d 54 24 70       	lea    rdx,[rsp+0x70]
   1a75a:	4c 89 ff             	mov    rdi,r15
   1a75d:	e8 2e f4 ff ff       	call   19b90 <__ssprint_r>
   1a762:	85 c0                	test   eax,eax
   1a764:	0f 85 3e f9 ff ff    	jne    1a0a8 <_svfiprintf_r+0x328>
   1a76a:	4c 8b 84 24 80 00 00 	mov    r8,QWORD PTR [rsp+0x80]
   1a771:	00 
   1a772:	8b 44 24 78          	mov    eax,DWORD PTR [rsp+0x78]
   1a776:	48 8b 4c 24 18       	mov    rcx,QWORD PTR [rsp+0x18]
   1a77b:	e9 4e f8 ff ff       	jmp    19fce <_svfiprintf_r+0x24e>
   1a780:	48 8b 74 24 20       	mov    rsi,QWORD PTR [rsp+0x20]
   1a785:	48 8d 54 24 70       	lea    rdx,[rsp+0x70]
   1a78a:	4c 89 ff             	mov    rdi,r15
   1a78d:	e8 fe f3 ff ff       	call   19b90 <__ssprint_r>
   1a792:	85 c0                	test   eax,eax
   1a794:	0f 85 0e f9 ff ff    	jne    1a0a8 <_svfiprintf_r+0x328>
   1a79a:	4c 8b 84 24 80 00 00 	mov    r8,QWORD PTR [rsp+0x80]
   1a7a1:	00 
   1a7a2:	48 8b 4c 24 18       	mov    rcx,QWORD PTR [rsp+0x18]
   1a7a7:	e9 4c f8 ff ff       	jmp    19ff8 <_svfiprintf_r+0x278>
   1a7ac:	0f 1f 40 00          	nop    DWORD PTR [rax+0x0]
   1a7b0:	48 8b 74 24 20       	mov    rsi,QWORD PTR [rsp+0x20]
   1a7b5:	48 8d 54 24 70       	lea    rdx,[rsp+0x70]
   1a7ba:	4c 89 ff             	mov    rdi,r15
   1a7bd:	e8 ce f3 ff ff       	call   19b90 <__ssprint_r>
   1a7c2:	85 c0                	test   eax,eax
   1a7c4:	0f 85 de f8 ff ff    	jne    1a0a8 <_svfiprintf_r+0x328>
   1a7ca:	4c 8b 84 24 80 00 00 	mov    r8,QWORD PTR [rsp+0x80]
   1a7d1:	00 
   1a7d2:	e9 4f f8 ff ff       	jmp    1a026 <_svfiprintf_r+0x2a6>
   1a7d7:	66 0f 1f 84 00 00 00 	nop    WORD PTR [rax+rax*1+0x0]
   1a7de:	00 00 
   1a7e0:	41 83 fb 10          	cmp    r11d,0x10
   1a7e4:	0f 8e b5 00 00 00    	jle    1a89f <_svfiprintf_r+0xb1f>
   1a7ea:	48 8d 74 24 70       	lea    rsi,[rsp+0x70]
   1a7ef:	44 89 6c 24 38       	mov    DWORD PTR [rsp+0x38],r13d
   1a7f4:	4c 8b 6c 24 20       	mov    r13,QWORD PTR [rsp+0x20]
   1a7f9:	48 89 6c 24 40       	mov    QWORD PTR [rsp+0x40],rbp
   1a7fe:	44 89 dd             	mov    ebp,r11d
   1a801:	44 89 64 24 50       	mov    DWORD PTR [rsp+0x50],r12d
   1a806:	4d 89 fc             	mov    r12,r15
   1a809:	4d 89 f7             	mov    r15,r14
   1a80c:	4c 8b 74 24 18       	mov    r14,QWORD PTR [rsp+0x18]
   1a811:	89 5c 24 5c          	mov    DWORD PTR [rsp+0x5c],ebx
   1a815:	48 89 f3             	mov    rbx,rsi
   1a818:	eb 0e                	jmp    1a828 <_svfiprintf_r+0xaa8>
   1a81a:	66 0f 1f 44 00 00    	nop    WORD PTR [rax+rax*1+0x0]
   1a820:	83 ed 10             	sub    ebp,0x10
   1a823:	83 fd 10             	cmp    ebp,0x10
   1a826:	7e 5b                	jle    1a883 <_svfiprintf_r+0xb03>
   1a828:	48 8d 3d 91 62 ff ff 	lea    rdi,[rip+0xffffffffffff6291]        # 10ac0 <blanks.1>
   1a82f:	49 83 c0 10          	add    r8,0x10
   1a833:	83 c0 01             	add    eax,0x1
   1a836:	48 c7 41 08 10 00 00 	mov    QWORD PTR [rcx+0x8],0x10
   1a83d:	00 
   1a83e:	48 89 39             	mov    QWORD PTR [rcx],rdi
   1a841:	48 83 c1 10          	add    rcx,0x10
   1a845:	4c 89 84 24 80 00 00 	mov    QWORD PTR [rsp+0x80],r8
   1a84c:	00 
   1a84d:	89 44 24 78          	mov    DWORD PTR [rsp+0x78],eax
   1a851:	83 f8 07             	cmp    eax,0x7
   1a854:	7e ca                	jle    1a820 <_svfiprintf_r+0xaa0>
   1a856:	48 89 da             	mov    rdx,rbx
   1a859:	4c 89 ee             	mov    rsi,r13
   1a85c:	4c 89 e7             	mov    rdi,r12
   1a85f:	e8 2c f3 ff ff       	call   19b90 <__ssprint_r>
   1a864:	85 c0                	test   eax,eax
   1a866:	0f 85 3c f8 ff ff    	jne    1a0a8 <_svfiprintf_r+0x328>
   1a86c:	83 ed 10             	sub    ebp,0x10
   1a86f:	4c 8b 84 24 80 00 00 	mov    r8,QWORD PTR [rsp+0x80]
   1a876:	00 
   1a877:	8b 44 24 78          	mov    eax,DWORD PTR [rsp+0x78]
   1a87b:	4c 89 f1             	mov    rcx,r14
   1a87e:	83 fd 10             	cmp    ebp,0x10
   1a881:	7f a5                	jg     1a828 <_svfiprintf_r+0xaa8>
   1a883:	41 89 eb             	mov    r11d,ebp
   1a886:	4d 89 fe             	mov    r14,r15
   1a889:	44 8b 6c 24 38       	mov    r13d,DWORD PTR [rsp+0x38]
   1a88e:	4d 89 e7             	mov    r15,r12
   1a891:	8b 5c 24 5c          	mov    ebx,DWORD PTR [rsp+0x5c]
   1a895:	48 8b 6c 24 40       	mov    rbp,QWORD PTR [rsp+0x40]
   1a89a:	44 8b 64 24 50       	mov    r12d,DWORD PTR [rsp+0x50]
   1a89f:	4d 63 db             	movsxd r11,r11d
   1a8a2:	48 8d 3d 17 62 ff ff 	lea    rdi,[rip+0xffffffffffff6217]        # 10ac0 <blanks.1>
   1a8a9:	83 c0 01             	add    eax,0x1
   1a8ac:	48 83 c1 10          	add    rcx,0x10
   1a8b0:	4d 01 d8             	add    r8,r11
   1a8b3:	48 89 79 f0          	mov    QWORD PTR [rcx-0x10],rdi
   1a8b7:	4c 89 59 f8          	mov    QWORD PTR [rcx-0x8],r11
   1a8bb:	4c 89 84 24 80 00 00 	mov    QWORD PTR [rsp+0x80],r8
   1a8c2:	00 
   1a8c3:	89 44 24 78          	mov    DWORD PTR [rsp+0x78],eax
   1a8c7:	83 f8 07             	cmp    eax,0x7
   1a8ca:	0f 8e 72 f6 ff ff    	jle    19f42 <_svfiprintf_r+0x1c2>
   1a8d0:	48 8b 74 24 20       	mov    rsi,QWORD PTR [rsp+0x20]
   1a8d5:	48 8d 54 24 70       	lea    rdx,[rsp+0x70]
   1a8da:	4c 89 ff             	mov    rdi,r15
   1a8dd:	e8 ae f2 ff ff       	call   19b90 <__ssprint_r>
   1a8e2:	85 c0                	test   eax,eax
   1a8e4:	0f 85 be f7 ff ff    	jne    1a0a8 <_svfiprintf_r+0x328>
   1a8ea:	4c 8b 84 24 80 00 00 	mov    r8,QWORD PTR [rsp+0x80]
   1a8f1:	00 
   1a8f2:	8b 44 24 78          	mov    eax,DWORD PTR [rsp+0x78]
   1a8f6:	48 8b 4c 24 18       	mov    rcx,QWORD PTR [rsp+0x18]
   1a8fb:	e9 42 f6 ff ff       	jmp    19f42 <_svfiprintf_r+0x1c2>
   1a900:	48 8b 74 24 20       	mov    rsi,QWORD PTR [rsp+0x20]
   1a905:	48 8d 54 24 70       	lea    rdx,[rsp+0x70]
   1a90a:	4c 89 ff             	mov    rdi,r15
   1a90d:	e8 7e f2 ff ff       	call   19b90 <__ssprint_r>
   1a912:	85 c0                	test   eax,eax
   1a914:	0f 85 8e f7 ff ff    	jne    1a0a8 <_svfiprintf_r+0x328>
   1a91a:	4c 8b 84 24 80 00 00 	mov    r8,QWORD PTR [rsp+0x80]
   1a921:	00 
   1a922:	8b 44 24 78          	mov    eax,DWORD PTR [rsp+0x78]
   1a926:	48 8b 4c 24 18       	mov    rcx,QWORD PTR [rsp+0x18]
   1a92b:	e9 83 f6 ff ff       	jmp    19fb3 <_svfiprintf_r+0x233>
   1a930:	48 8b 74 24 20       	mov    rsi,QWORD PTR [rsp+0x20]
   1a935:	48 8d 54 24 70       	lea    rdx,[rsp+0x70]
   1a93a:	4c 89 ff             	mov    rdi,r15
   1a93d:	e8 4e f2 ff ff       	call   19b90 <__ssprint_r>
   1a942:	85 c0                	test   eax,eax
   1a944:	0f 85 5e f7 ff ff    	jne    1a0a8 <_svfiprintf_r+0x328>
   1a94a:	4c 8b 84 24 80 00 00 	mov    r8,QWORD PTR [rsp+0x80]
   1a951:	00 
   1a952:	8b 44 24 78          	mov    eax,DWORD PTR [rsp+0x78]
   1a956:	48 8b 4c 24 18       	mov    rcx,QWORD PTR [rsp+0x18]
   1a95b:	e9 1a f6 ff ff       	jmp    19f7a <_svfiprintf_r+0x1fa>
   1a960:	8b 44 24 78          	mov    eax,DWORD PTR [rsp+0x78]
   1a964:	41 83 fc 10          	cmp    r12d,0x10
   1a968:	0f 8e 95 00 00 00    	jle    1aa03 <_svfiprintf_r+0xc83>
   1a96e:	4c 89 fe             	mov    rsi,r15
   1a971:	89 1c 24             	mov    DWORD PTR [rsp],ebx
   1a974:	45 89 e7             	mov    r15d,r12d
   1a977:	4c 8b 6c 24 20       	mov    r13,QWORD PTR [rsp+0x20]
   1a97c:	48 8b 5c 24 18       	mov    rbx,QWORD PTR [rsp+0x18]
   1a981:	48 8d 6c 24 70       	lea    rbp,[rsp+0x70]
   1a986:	49 89 f4             	mov    r12,rsi
   1a989:	eb 0f                	jmp    1a99a <_svfiprintf_r+0xc1a>
   1a98b:	0f 1f 44 00 00       	nop    DWORD PTR [rax+rax*1+0x0]
   1a990:	41 83 ef 10          	sub    r15d,0x10
   1a994:	41 83 ff 10          	cmp    r15d,0x10
   1a998:	7e 5d                	jle    1a9f7 <_svfiprintf_r+0xc77>
   1a99a:	48 8d 35 1f 61 ff ff 	lea    rsi,[rip+0xffffffffffff611f]        # 10ac0 <blanks.1>
   1a9a1:	49 83 c0 10          	add    r8,0x10
   1a9a5:	83 c0 01             	add    eax,0x1
   1a9a8:	48 c7 41 08 10 00 00 	mov    QWORD PTR [rcx+0x8],0x10
   1a9af:	00 
   1a9b0:	48 89 31             	mov    QWORD PTR [rcx],rsi
   1a9b3:	48 83 c1 10          	add    rcx,0x10
   1a9b7:	4c 89 84 24 80 00 00 	mov    QWORD PTR [rsp+0x80],r8
   1a9be:	00 
   1a9bf:	89 44 24 78          	mov    DWORD PTR [rsp+0x78],eax
   1a9c3:	83 f8 07             	cmp    eax,0x7
   1a9c6:	7e c8                	jle    1a990 <_svfiprintf_r+0xc10>
   1a9c8:	48 89 ea             	mov    rdx,rbp
   1a9cb:	4c 89 ee             	mov    rsi,r13
   1a9ce:	4c 89 e7             	mov    rdi,r12
   1a9d1:	e8 ba f1 ff ff       	call   19b90 <__ssprint_r>
   1a9d6:	85 c0                	test   eax,eax
   1a9d8:	0f 85 ca f6 ff ff    	jne    1a0a8 <_svfiprintf_r+0x328>
   1a9de:	41 83 ef 10          	sub    r15d,0x10
   1a9e2:	4c 8b 84 24 80 00 00 	mov    r8,QWORD PTR [rsp+0x80]
   1a9e9:	00 
   1a9ea:	8b 44 24 78          	mov    eax,DWORD PTR [rsp+0x78]
   1a9ee:	48 89 d9             	mov    rcx,rbx
   1a9f1:	41 83 ff 10          	cmp    r15d,0x10
   1a9f5:	7f a3                	jg     1a99a <_svfiprintf_r+0xc1a>
   1a9f7:	4c 89 e2             	mov    rdx,r12
   1a9fa:	8b 1c 24             	mov    ebx,DWORD PTR [rsp]
   1a9fd:	45 89 fc             	mov    r12d,r15d
   1aa00:	49 89 d7             	mov    r15,rdx
   1aa03:	4d 63 e4             	movsxd r12,r12d
   1aa06:	48 8d 15 b3 60 ff ff 	lea    rdx,[rip+0xffffffffffff60b3]        # 10ac0 <blanks.1>
   1aa0d:	83 c0 01             	add    eax,0x1
   1aa10:	4d 01 e0             	add    r8,r12
   1aa13:	48 89 11             	mov    QWORD PTR [rcx],rdx
   1aa16:	4c 89 61 08          	mov    QWORD PTR [rcx+0x8],r12
   1aa1a:	4c 89 84 24 80 00 00 	mov    QWORD PTR [rsp+0x80],r8
   1aa21:	00 
   1aa22:	89 44 24 78          	mov    DWORD PTR [rsp+0x78],eax
   1aa26:	83 f8 07             	cmp    eax,0x7
   1aa29:	0f 8e e1 f5 ff ff    	jle    1a010 <_svfiprintf_r+0x290>
   1aa2f:	48 8b 74 24 20       	mov    rsi,QWORD PTR [rsp+0x20]
   1aa34:	48 8d 54 24 70       	lea    rdx,[rsp+0x70]
   1aa39:	4c 89 ff             	mov    rdi,r15
   1aa3c:	e8 4f f1 ff ff       	call   19b90 <__ssprint_r>
   1aa41:	85 c0                	test   eax,eax
   1aa43:	0f 85 5f f6 ff ff    	jne    1a0a8 <_svfiprintf_r+0x328>
   1aa49:	4c 8b 84 24 80 00 00 	mov    r8,QWORD PTR [rsp+0x80]
   1aa50:	00 
   1aa51:	e9 ba f5 ff ff       	jmp    1a010 <_svfiprintf_r+0x290>
   1aa56:	48 8b 7c 24 28       	mov    rdi,QWORD PTR [rsp+0x28]
   1aa5b:	48 8b 57 08          	mov    rdx,QWORD PTR [rdi+0x8]
   1aa5f:	48 8d 42 08          	lea    rax,[rdx+0x8]
   1aa63:	48 89 47 08          	mov    QWORD PTR [rdi+0x8],rax
   1aa67:	e9 97 fa ff ff       	jmp    1a503 <_svfiprintf_r+0x783>
   1aa6c:	48 8b 7c 24 28       	mov    rdi,QWORD PTR [rsp+0x28]
   1aa71:	48 8b 57 08          	mov    rdx,QWORD PTR [rdi+0x8]
   1aa75:	48 8d 42 08          	lea    rax,[rdx+0x8]
   1aa79:	48 89 47 08          	mov    QWORD PTR [rdi+0x8],rax
   1aa7d:	e9 55 fa ff ff       	jmp    1a4d7 <_svfiprintf_r+0x757>
   1aa82:	41 83 e5 40          	and    r13d,0x40
   1aa86:	0f 84 c7 03 00 00    	je     1ae53 <_svfiprintf_r+0x10d3>
   1aa8c:	83 f8 2f             	cmp    eax,0x2f
   1aa8f:	0f 87 6b 04 00 00    	ja     1af00 <_svfiprintf_r+0x1180>
   1aa95:	48 8b 74 24 28       	mov    rsi,QWORD PTR [rsp+0x28]
   1aa9a:	89 c2                	mov    edx,eax
   1aa9c:	83 c0 08             	add    eax,0x8
   1aa9f:	89 06                	mov    DWORD PTR [rsi],eax
   1aaa1:	48 03 56 10          	add    rdx,QWORD PTR [rsi+0x10]
   1aaa5:	48 8b 02             	mov    rax,QWORD PTR [rdx]
   1aaa8:	0f b7 54 24 58       	movzx  edx,WORD PTR [rsp+0x58]
   1aaad:	66 89 10             	mov    WORD PTR [rax],dx
   1aab0:	e9 51 f3 ff ff       	jmp    19e06 <_svfiprintf_r+0x86>
   1aab5:	83 f8 2f             	cmp    eax,0x2f
   1aab8:	0f 87 ea 03 00 00    	ja     1aea8 <_svfiprintf_r+0x1128>
   1aabe:	48 8b 74 24 28       	mov    rsi,QWORD PTR [rsp+0x28]
   1aac3:	89 c2                	mov    edx,eax
   1aac5:	83 c0 08             	add    eax,0x8
   1aac8:	89 06                	mov    DWORD PTR [rsi],eax
   1aaca:	48 03 56 10          	add    rdx,QWORD PTR [rsi+0x10]
   1aace:	8b 32                	mov    esi,DWORD PTR [rdx]
   1aad0:	31 c0                	xor    eax,eax
   1aad2:	e9 11 f7 ff ff       	jmp    1a1e8 <_svfiprintf_r+0x468>
   1aad7:	48 8b 74 24 28       	mov    rsi,QWORD PTR [rsp+0x28]
   1aadc:	48 8b 56 08          	mov    rdx,QWORD PTR [rsi+0x8]
   1aae0:	48 8d 42 08          	lea    rax,[rdx+0x8]
   1aae4:	48 89 46 08          	mov    QWORD PTR [rsi+0x8],rax
   1aae8:	e9 18 f9 ff ff       	jmp    1a405 <_svfiprintf_r+0x685>
   1aaed:	48 8b 74 24 28       	mov    rsi,QWORD PTR [rsp+0x28]
   1aaf2:	48 8b 56 08          	mov    rdx,QWORD PTR [rsi+0x8]
   1aaf6:	48 8d 42 08          	lea    rax,[rdx+0x8]
   1aafa:	48 89 46 08          	mov    QWORD PTR [rsi+0x8],rax
   1aafe:	e9 5c f5 ff ff       	jmp    1a05f <_svfiprintf_r+0x2df>
   1ab03:	48 8b 7c 24 28       	mov    rdi,QWORD PTR [rsp+0x28]
   1ab08:	48 8b 57 08          	mov    rdx,QWORD PTR [rdi+0x8]
   1ab0c:	48 8d 42 08          	lea    rax,[rdx+0x8]
   1ab10:	48 89 47 08          	mov    QWORD PTR [rdi+0x8],rax
   1ab14:	e9 0e f8 ff ff       	jmp    1a327 <_svfiprintf_r+0x5a7>
   1ab19:	48 8b 7c 24 28       	mov    rdi,QWORD PTR [rsp+0x28]
   1ab1e:	48 8b 57 08          	mov    rdx,QWORD PTR [rdi+0x8]
   1ab22:	48 8d 42 08          	lea    rax,[rdx+0x8]
   1ab26:	48 89 47 08          	mov    QWORD PTR [rdi+0x8],rax
   1ab2a:	e9 c6 f7 ff ff       	jmp    1a2f5 <_svfiprintf_r+0x575>
   1ab2f:	48 8b 7c 24 28       	mov    rdi,QWORD PTR [rsp+0x28]
   1ab34:	48 8b 57 08          	mov    rdx,QWORD PTR [rdi+0x8]
   1ab38:	48 8d 42 08          	lea    rax,[rdx+0x8]
   1ab3c:	48 89 47 08          	mov    QWORD PTR [rdi+0x8],rax
   1ab40:	48 8b 2a             	mov    rbp,QWORD PTR [rdx]
   1ab43:	c6 44 24 6f 00       	mov    BYTE PTR [rsp+0x6f],0x0
   1ab48:	48 85 ed             	test   rbp,rbp
   1ab4b:	0f 85 38 f7 ff ff    	jne    1a289 <_svfiprintf_r+0x509>
   1ab51:	bd 06 00 00 00       	mov    ebp,0x6
   1ab56:	41 39 ec             	cmp    r12d,ebp
   1ab59:	41 0f 46 ec          	cmovbe ebp,r12d
   1ab5d:	89 2c 24             	mov    DWORD PTR [rsp],ebp
   1ab60:	89 eb                	mov    ebx,ebp
   1ab62:	48 8d 2d 45 58 ff ff 	lea    rbp,[rip+0xffffffffffff5845]        # 103ae <zeroes.0-0x292>
   1ab69:	e9 96 f3 ff ff       	jmp    19f04 <_svfiprintf_r+0x184>
   1ab6e:	83 f8 2f             	cmp    eax,0x2f
   1ab71:	0f 87 b0 02 00 00    	ja     1ae27 <_svfiprintf_r+0x10a7>
   1ab77:	48 8b 74 24 28       	mov    rsi,QWORD PTR [rsp+0x28]
   1ab7c:	89 c2                	mov    edx,eax
   1ab7e:	83 c0 08             	add    eax,0x8
   1ab81:	89 06                	mov    DWORD PTR [rsi],eax
   1ab83:	48 03 56 10          	add    rdx,QWORD PTR [rsi+0x10]
   1ab87:	8b 32                	mov    esi,DWORD PTR [rdx]
   1ab89:	b8 01 00 00 00       	mov    eax,0x1
   1ab8e:	e9 55 f6 ff ff       	jmp    1a1e8 <_svfiprintf_r+0x468>
   1ab93:	83 f8 2f             	cmp    eax,0x2f
   1ab96:	0f 87 75 02 00 00    	ja     1ae11 <_svfiprintf_r+0x1091>
   1ab9c:	48 8b 74 24 28       	mov    rsi,QWORD PTR [rsp+0x28]
   1aba1:	89 c2                	mov    edx,eax
   1aba3:	83 c0 08             	add    eax,0x8
   1aba6:	89 06                	mov    DWORD PTR [rsi],eax
   1aba8:	48 03 56 10          	add    rdx,QWORD PTR [rsi+0x10]
   1abac:	48 63 32             	movsxd rsi,DWORD PTR [rdx]
   1abaf:	48 89 f0             	mov    rax,rsi
   1abb2:	e9 76 f7 ff ff       	jmp    1a32d <_svfiprintf_r+0x5ad>
   1abb7:	48 8d 05 27 57 ff ff 	lea    rax,[rip+0xffffffffffff5727]        # 102e5 <zeroes.0-0x35b>
   1abbe:	89 74 24 14          	mov    DWORD PTR [rsp+0x14],esi
   1abc2:	48 89 44 24 48       	mov    QWORD PTR [rsp+0x48],rax
   1abc7:	48 8b 7c 24 28       	mov    rdi,QWORD PTR [rsp+0x28]
   1abcc:	8b 07                	mov    eax,DWORD PTR [rdi]
   1abce:	41 f6 c5 10          	test   r13b,0x10
   1abd2:	0f 84 36 01 00 00    	je     1ad0e <_svfiprintf_r+0xf8e>
   1abd8:	83 f8 2f             	cmp    eax,0x2f
   1abdb:	0f 87 5e 01 00 00    	ja     1ad3f <_svfiprintf_r+0xfbf>
   1abe1:	89 c6                	mov    esi,eax
   1abe3:	83 c0 08             	add    eax,0x8
   1abe6:	48 03 77 10          	add    rsi,QWORD PTR [rdi+0x10]
   1abea:	89 07                	mov    DWORD PTR [rdi],eax
   1abec:	48 8b 36             	mov    rsi,QWORD PTR [rsi]
   1abef:	b8 02 00 00 00       	mov    eax,0x2
   1abf4:	41 f6 c5 01          	test   r13b,0x1
   1abf8:	0f 84 ea f5 ff ff    	je     1a1e8 <_svfiprintf_r+0x468>
   1abfe:	48 85 f6             	test   rsi,rsi
   1ac01:	0f 84 e1 f5 ff ff    	je     1a1e8 <_svfiprintf_r+0x468>
   1ac07:	c6 84 24 1e 01 00 00 	mov    BYTE PTR [rsp+0x11e],0x30
   1ac0e:	30 
   1ac0f:	41 83 cd 02          	or     r13d,0x2
   1ac13:	88 94 24 1f 01 00 00 	mov    BYTE PTR [rsp+0x11f],dl
   1ac1a:	e9 c9 f5 ff ff       	jmp    1a1e8 <_svfiprintf_r+0x468>
   1ac1f:	48 8d 05 27 57 ff ff 	lea    rax,[rip+0xffffffffffff5727]        # 1034d <zeroes.0-0x2f3>
   1ac26:	89 74 24 14          	mov    DWORD PTR [rsp+0x14],esi
   1ac2a:	48 89 44 24 48       	mov    QWORD PTR [rsp+0x48],rax
   1ac2f:	eb 96                	jmp    1abc7 <_svfiprintf_r+0xe47>
   1ac31:	be 40 00 00 00       	mov    esi,0x40
   1ac36:	e8 45 b4 ff ff       	call   16080 <_malloc_r>
   1ac3b:	48 8b 54 24 20       	mov    rdx,QWORD PTR [rsp+0x20]
   1ac40:	48 89 02             	mov    QWORD PTR [rdx],rax
   1ac43:	48 89 42 18          	mov    QWORD PTR [rdx+0x18],rax
   1ac47:	48 85 c0             	test   rax,rax
   1ac4a:	0f 84 2f 03 00 00    	je     1af7f <_svfiprintf_r+0x11ff>
   1ac50:	48 8b 44 24 20       	mov    rax,QWORD PTR [rsp+0x20]
   1ac55:	c7 40 20 40 00 00 00 	mov    DWORD PTR [rax+0x20],0x40
   1ac5c:	e9 68 f1 ff ff       	jmp    19dc9 <_svfiprintf_r+0x49>
   1ac61:	0f 1f 80 00 00 00 00 	nop    DWORD PTR [rax+0x0]
   1ac68:	89 f0                	mov    eax,esi
   1ac6a:	48 89 ea             	mov    rdx,rbp
   1ac6d:	48 83 ed 01          	sub    rbp,0x1
   1ac71:	83 e0 07             	and    eax,0x7
   1ac74:	83 c0 30             	add    eax,0x30
   1ac77:	48 c1 ee 03          	shr    rsi,0x3
   1ac7b:	88 45 00             	mov    BYTE PTR [rbp+0x0],al
   1ac7e:	75 e8                	jne    1ac68 <_svfiprintf_r+0xee8>
   1ac80:	3c 30                	cmp    al,0x30
   1ac82:	0f 84 07 f5 ff ff    	je     1a18f <_svfiprintf_r+0x40f>
   1ac88:	41 f6 c5 01          	test   r13b,0x1
   1ac8c:	0f 84 fd f4 ff ff    	je     1a18f <_svfiprintf_r+0x40f>
   1ac92:	48 83 ea 02          	sub    rdx,0x2
   1ac96:	44 89 c8             	mov    eax,r9d
   1ac99:	c6 45 ff 30          	mov    BYTE PTR [rbp-0x1],0x30
   1ac9d:	29 d0                	sub    eax,edx
   1ac9f:	44 89 6c 24 08       	mov    DWORD PTR [rsp+0x8],r13d
   1aca4:	48 89 d5             	mov    rbp,rdx
   1aca7:	89 04 24             	mov    DWORD PTR [rsp],eax
   1acaa:	e9 91 f5 ff ff       	jmp    1a240 <_svfiprintf_r+0x4c0>
   1acaf:	90                   	nop
   1acb0:	c7 04 24 00 00 00 00 	mov    DWORD PTR [rsp],0x0
   1acb7:	45 31 e4             	xor    r12d,r12d
   1acba:	48 8d ac 24 48 01 00 	lea    rbp,[rsp+0x148]
   1acc1:	00 
   1acc2:	e9 79 f5 ff ff       	jmp    1a240 <_svfiprintf_r+0x4c0>
   1acc7:	44 8b 6c 24 08       	mov    r13d,DWORD PTR [rsp+0x8]
   1accc:	0f 1f 40 00          	nop    DWORD PTR [rax+0x0]
   1acd0:	48 83 fe 09          	cmp    rsi,0x9
   1acd4:	0f 87 9b 00 00 00    	ja     1ad75 <_svfiprintf_r+0xff5>
   1acda:	83 c6 30             	add    esi,0x30
   1acdd:	44 89 6c 24 08       	mov    DWORD PTR [rsp+0x8],r13d
   1ace2:	48 8d ac 24 47 01 00 	lea    rbp,[rsp+0x147]
   1ace9:	00 
   1acea:	40 88 b4 24 47 01 00 	mov    BYTE PTR [rsp+0x147],sil
   1acf1:	00 
   1acf2:	c7 04 24 01 00 00 00 	mov    DWORD PTR [rsp],0x1
   1acf9:	e9 42 f5 ff ff       	jmp    1a240 <_svfiprintf_r+0x4c0>
   1acfe:	45 31 e4             	xor    r12d,r12d
   1ad01:	48 8d ac 24 48 01 00 	lea    rbp,[rsp+0x148]
   1ad08:	00 
   1ad09:	e9 32 f5 ff ff       	jmp    1a240 <_svfiprintf_r+0x4c0>
   1ad0e:	41 f6 c5 40          	test   r13b,0x40
   1ad12:	74 41                	je     1ad55 <_svfiprintf_r+0xfd5>
   1ad14:	83 f8 2f             	cmp    eax,0x2f
   1ad17:	0f 87 75 01 00 00    	ja     1ae92 <_svfiprintf_r+0x1112>
   1ad1d:	48 8b 7c 24 28       	mov    rdi,QWORD PTR [rsp+0x28]
   1ad22:	89 c6                	mov    esi,eax
   1ad24:	83 c0 08             	add    eax,0x8
   1ad27:	89 07                	mov    DWORD PTR [rdi],eax
   1ad29:	48 03 77 10          	add    rsi,QWORD PTR [rdi+0x10]
   1ad2d:	0f b7 36             	movzx  esi,WORD PTR [rsi]
   1ad30:	e9 ba fe ff ff       	jmp    1abef <_svfiprintf_r+0xe6f>
   1ad35:	44 8b 6c 24 08       	mov    r13d,DWORD PTR [rsp+0x8]
   1ad3a:	e9 11 f4 ff ff       	jmp    1a150 <_svfiprintf_r+0x3d0>
   1ad3f:	48 8b 7c 24 28       	mov    rdi,QWORD PTR [rsp+0x28]
   1ad44:	48 8b 77 08          	mov    rsi,QWORD PTR [rdi+0x8]
   1ad48:	48 8d 46 08          	lea    rax,[rsi+0x8]
   1ad4c:	48 89 47 08          	mov    QWORD PTR [rdi+0x8],rax
   1ad50:	e9 97 fe ff ff       	jmp    1abec <_svfiprintf_r+0xe6c>
   1ad55:	83 f8 2f             	cmp    eax,0x2f
   1ad58:	0f 87 1c 01 00 00    	ja     1ae7a <_svfiprintf_r+0x10fa>
   1ad5e:	48 8b 7c 24 28       	mov    rdi,QWORD PTR [rsp+0x28]
   1ad63:	89 c6                	mov    esi,eax
   1ad65:	83 c0 08             	add    eax,0x8
   1ad68:	48 03 77 10          	add    rsi,QWORD PTR [rdi+0x10]
   1ad6c:	89 07                	mov    DWORD PTR [rdi],eax
   1ad6e:	8b 36                	mov    esi,DWORD PTR [rsi]
   1ad70:	e9 7a fe ff ff       	jmp    1abef <_svfiprintf_r+0xe6f>
   1ad75:	4c 8d 8c 24 48 01 00 	lea    r9,[rsp+0x148]
   1ad7c:	00 
   1ad7d:	48 bf cd cc cc cc cc 	movabs rdi,0xcccccccccccccccd
   1ad84:	cc cc cc 
   1ad87:	4c 89 cd             	mov    rbp,r9
   1ad8a:	66 0f 1f 44 00 00    	nop    WORD PTR [rax+rax*1+0x0]
   1ad90:	48 89 f0             	mov    rax,rsi
   1ad93:	48 83 ed 01          	sub    rbp,0x1
   1ad97:	48 f7 e7             	mul    rdi
   1ad9a:	48 89 f0             	mov    rax,rsi
   1ad9d:	48 c1 ea 03          	shr    rdx,0x3
   1ada1:	4c 8d 14 92          	lea    r10,[rdx+rdx*4]
   1ada5:	4d 01 d2             	add    r10,r10
   1ada8:	4c 29 d0             	sub    rax,r10
   1adab:	83 c0 30             	add    eax,0x30
   1adae:	88 45 00             	mov    BYTE PTR [rbp+0x0],al
   1adb1:	48 89 f0             	mov    rax,rsi
   1adb4:	48 89 d6             	mov    rsi,rdx
   1adb7:	48 83 f8 09          	cmp    rax,0x9
   1adbb:	77 d3                	ja     1ad90 <_svfiprintf_r+0x1010>
   1adbd:	44 89 c8             	mov    eax,r9d
   1adc0:	44 89 6c 24 08       	mov    DWORD PTR [rsp+0x8],r13d
   1adc5:	29 e8                	sub    eax,ebp
   1adc7:	89 04 24             	mov    DWORD PTR [rsp],eax
   1adca:	e9 71 f4 ff ff       	jmp    1a240 <_svfiprintf_r+0x4c0>
   1adcf:	48 89 ef             	mov    rdi,rbp
   1add2:	4c 89 44 24 38       	mov    QWORD PTR [rsp+0x38],r8
   1add7:	45 31 e4             	xor    r12d,r12d
   1adda:	48 89 4c 24 30       	mov    QWORD PTR [rsp+0x30],rcx
   1addf:	e8 ec a3 ff ff       	call   151d0 <strlen>
   1ade4:	44 89 6c 24 08       	mov    DWORD PTR [rsp+0x8],r13d
   1ade9:	48 8b 4c 24 30       	mov    rcx,QWORD PTR [rsp+0x30]
   1adee:	89 04 24             	mov    DWORD PTR [rsp],eax
   1adf1:	4c 8b 44 24 38       	mov    r8,QWORD PTR [rsp+0x38]
   1adf6:	e9 45 f4 ff ff       	jmp    1a240 <_svfiprintf_r+0x4c0>
   1adfb:	48 8b 7c 24 28       	mov    rdi,QWORD PTR [rsp+0x28]
   1ae00:	48 8b 57 08          	mov    rdx,QWORD PTR [rdi+0x8]
   1ae04:	48 8d 42 08          	lea    rax,[rdx+0x8]
   1ae08:	48 89 47 08          	mov    QWORD PTR [rdi+0x8],rax
   1ae0c:	e9 c8 f3 ff ff       	jmp    1a1d9 <_svfiprintf_r+0x459>
   1ae11:	48 8b 74 24 28       	mov    rsi,QWORD PTR [rsp+0x28]
   1ae16:	48 8b 56 08          	mov    rdx,QWORD PTR [rsi+0x8]
   1ae1a:	48 8d 42 08          	lea    rax,[rdx+0x8]
   1ae1e:	48 89 46 08          	mov    QWORD PTR [rsi+0x8],rax
   1ae22:	e9 85 fd ff ff       	jmp    1abac <_svfiprintf_r+0xe2c>
   1ae27:	48 8b 7c 24 28       	mov    rdi,QWORD PTR [rsp+0x28]
   1ae2c:	48 8b 57 08          	mov    rdx,QWORD PTR [rdi+0x8]
   1ae30:	48 8d 42 08          	lea    rax,[rdx+0x8]
   1ae34:	48 89 47 08          	mov    QWORD PTR [rdi+0x8],rax
   1ae38:	e9 4a fd ff ff       	jmp    1ab87 <_svfiprintf_r+0xe07>
   1ae3d:	48 8b 74 24 28       	mov    rsi,QWORD PTR [rsp+0x28]
   1ae42:	48 8b 56 08          	mov    rdx,QWORD PTR [rsi+0x8]
   1ae46:	48 8d 42 08          	lea    rax,[rdx+0x8]
   1ae4a:	48 89 46 08          	mov    QWORD PTR [rsi+0x8],rax
   1ae4e:	e9 d1 f2 ff ff       	jmp    1a124 <_svfiprintf_r+0x3a4>
   1ae53:	83 f8 2f             	cmp    eax,0x2f
   1ae56:	0f 87 8e 00 00 00    	ja     1aeea <_svfiprintf_r+0x116a>
   1ae5c:	48 8b 74 24 28       	mov    rsi,QWORD PTR [rsp+0x28]
   1ae61:	89 c2                	mov    edx,eax
   1ae63:	83 c0 08             	add    eax,0x8
   1ae66:	89 06                	mov    DWORD PTR [rsi],eax
   1ae68:	48 03 56 10          	add    rdx,QWORD PTR [rsi+0x10]
   1ae6c:	48 8b 02             	mov    rax,QWORD PTR [rdx]
   1ae6f:	8b 54 24 58          	mov    edx,DWORD PTR [rsp+0x58]
   1ae73:	89 10                	mov    DWORD PTR [rax],edx
   1ae75:	e9 8c ef ff ff       	jmp    19e06 <_svfiprintf_r+0x86>
   1ae7a:	48 8b 7c 24 28       	mov    rdi,QWORD PTR [rsp+0x28]
   1ae7f:	48 8b 77 08          	mov    rsi,QWORD PTR [rdi+0x8]
   1ae83:	48 8d 46 08          	lea    rax,[rsi+0x8]
   1ae87:	48 89 47 08          	mov    QWORD PTR [rdi+0x8],rax
   1ae8b:	8b 36                	mov    esi,DWORD PTR [rsi]
   1ae8d:	e9 5d fd ff ff       	jmp    1abef <_svfiprintf_r+0xe6f>
   1ae92:	48 8b 7c 24 28       	mov    rdi,QWORD PTR [rsp+0x28]
   1ae97:	48 8b 77 08          	mov    rsi,QWORD PTR [rdi+0x8]
   1ae9b:	48 8d 46 08          	lea    rax,[rsi+0x8]
   1ae9f:	48 89 47 08          	mov    QWORD PTR [rdi+0x8],rax
   1aea3:	e9 85 fe ff ff       	jmp    1ad2d <_svfiprintf_r+0xfad>
   1aea8:	48 8b 7c 24 28       	mov    rdi,QWORD PTR [rsp+0x28]
   1aead:	48 8b 57 08          	mov    rdx,QWORD PTR [rdi+0x8]
   1aeb1:	48 8d 42 08          	lea    rax,[rdx+0x8]
   1aeb5:	48 89 47 08          	mov    QWORD PTR [rdi+0x8],rax
   1aeb9:	e9 10 fc ff ff       	jmp    1aace <_svfiprintf_r+0xd4e>
   1aebe:	48 8b 7c 24 28       	mov    rdi,QWORD PTR [rsp+0x28]
   1aec3:	48 8b 57 08          	mov    rdx,QWORD PTR [rdi+0x8]
   1aec7:	48 8d 42 08          	lea    rax,[rdx+0x8]
   1aecb:	48 89 47 08          	mov    QWORD PTR [rdi+0x8],rax
   1aecf:	e9 c2 f5 ff ff       	jmp    1a496 <_svfiprintf_r+0x716>
   1aed4:	48 8b 7c 24 28       	mov    rdi,QWORD PTR [rsp+0x28]
   1aed9:	48 8b 57 08          	mov    rdx,QWORD PTR [rdi+0x8]
   1aedd:	48 8d 42 08          	lea    rax,[rdx+0x8]
   1aee1:	48 89 47 08          	mov    QWORD PTR [rdi+0x8],rax
   1aee5:	e9 7d f5 ff ff       	jmp    1a467 <_svfiprintf_r+0x6e7>
   1aeea:	48 8b 74 24 28       	mov    rsi,QWORD PTR [rsp+0x28]
   1aeef:	48 8b 56 08          	mov    rdx,QWORD PTR [rsi+0x8]
   1aef3:	48 8d 42 08          	lea    rax,[rdx+0x8]
   1aef7:	48 89 46 08          	mov    QWORD PTR [rsi+0x8],rax
   1aefb:	e9 6c ff ff ff       	jmp    1ae6c <_svfiprintf_r+0x10ec>
   1af00:	48 8b 74 24 28       	mov    rsi,QWORD PTR [rsp+0x28]
   1af05:	48 8b 56 08          	mov    rdx,QWORD PTR [rsi+0x8]
   1af09:	48 8d 42 08          	lea    rax,[rdx+0x8]
   1af0d:	48 89 46 08          	mov    QWORD PTR [rsi+0x8],rax
   1af11:	e9 8f fb ff ff       	jmp    1aaa5 <_svfiprintf_r+0xd25>
   1af16:	48 8b 74 24 20       	mov    rsi,QWORD PTR [rsp+0x20]
   1af1b:	48 8d 54 24 70       	lea    rdx,[rsp+0x70]
   1af20:	4c 89 ff             	mov    rdi,r15
   1af23:	e8 68 ec ff ff       	call   19b90 <__ssprint_r>
   1af28:	e9 7b f1 ff ff       	jmp    1a0a8 <_svfiprintf_r+0x328>
   1af2d:	44 89 24 24          	mov    DWORD PTR [rsp],r12d
   1af31:	45 31 e4             	xor    r12d,r12d
   1af34:	44 89 6c 24 08       	mov    DWORD PTR [rsp+0x8],r13d
   1af39:	e9 02 f3 ff ff       	jmp    1a240 <_svfiprintf_r+0x4c0>
   1af3e:	48 8b 5c 24 28       	mov    rbx,QWORD PTR [rsp+0x28]
   1af43:	8b 13                	mov    edx,DWORD PTR [rbx]
   1af45:	83 fa 2f             	cmp    edx,0x2f
   1af48:	77 22                	ja     1af6c <_svfiprintf_r+0x11ec>
   1af4a:	89 d0                	mov    eax,edx
   1af4c:	83 c2 08             	add    edx,0x8
   1af4f:	48 03 43 10          	add    rax,QWORD PTR [rbx+0x10]
   1af53:	89 13                	mov    DWORD PTR [rbx],edx
   1af55:	44 8b 20             	mov    r12d,DWORD PTR [rax]
   1af58:	b8 ff ff ff ff       	mov    eax,0xffffffff
   1af5d:	49 89 fe             	mov    r14,rdi
   1af60:	45 85 e4             	test   r12d,r12d
   1af63:	44 0f 48 e0          	cmovs  r12d,eax
   1af67:	e9 d0 f0 ff ff       	jmp    1a03c <_svfiprintf_r+0x2bc>
   1af6c:	48 8b 5c 24 28       	mov    rbx,QWORD PTR [rsp+0x28]
   1af71:	48 8b 43 08          	mov    rax,QWORD PTR [rbx+0x8]
   1af75:	48 8d 50 08          	lea    rdx,[rax+0x8]
   1af79:	48 89 53 08          	mov    QWORD PTR [rbx+0x8],rdx
   1af7d:	eb d6                	jmp    1af55 <_svfiprintf_r+0x11d5>
   1af7f:	41 c7 07 0c 00 00 00 	mov    DWORD PTR [r15],0xc
   1af86:	c7 44 24 58 ff ff ff 	mov    DWORD PTR [rsp+0x58],0xffffffff
   1af8d:	ff 
   1af8e:	e9 2c f1 ff ff       	jmp    1a0bf <_svfiprintf_r+0x33f>
   1af93:	e8 e8 e5 ff ff       	call   19580 <__stack_chk_fail>
   1af98:	cc                   	int3   
   1af99:	cc                   	int3   
   1af9a:	cc                   	int3   
   1af9b:	cc                   	int3   
   1af9c:	cc                   	int3   
   1af9d:	cc                   	int3   
   1af9e:	cc                   	int3   
   1af9f:	cc                   	int3   

000000000001afa0 <memmove>:
   1afa0:	f3 0f 1e fa          	endbr64 
   1afa4:	48 89 f1             	mov    rcx,rsi
   1afa7:	49 89 f8             	mov    r8,rdi
   1afaa:	48 89 d6             	mov    rsi,rdx
   1afad:	48 39 cf             	cmp    rdi,rcx
   1afb0:	76 2e                	jbe    1afe0 <memmove+0x40>
   1afb2:	48 8d 04 11          	lea    rax,[rcx+rdx*1]
   1afb6:	48 39 c7             	cmp    rdi,rax
   1afb9:	73 25                	jae    1afe0 <memmove+0x40>
   1afbb:	48 8d 42 ff          	lea    rax,[rdx-0x1]
   1afbf:	48 85 d2             	test   rdx,rdx
   1afc2:	74 12                	je     1afd6 <memmove+0x36>
   1afc4:	0f 1f 40 00          	nop    DWORD PTR [rax+0x0]
   1afc8:	0f b6 14 01          	movzx  edx,BYTE PTR [rcx+rax*1]
   1afcc:	41 88 14 00          	mov    BYTE PTR [r8+rax*1],dl
   1afd0:	48 83 e8 01          	sub    rax,0x1
   1afd4:	73 f2                	jae    1afc8 <memmove+0x28>
   1afd6:	4c 89 c0             	mov    rax,r8
   1afd9:	c3                   	ret    
   1afda:	66 0f 1f 44 00 00    	nop    WORD PTR [rax+rax*1+0x0]
   1afe0:	48 83 fe 1f          	cmp    rsi,0x1f
   1afe4:	77 2a                	ja     1b010 <memmove+0x70>
   1afe6:	4c 89 c2             	mov    rdx,r8
   1afe9:	48 8d 7e ff          	lea    rdi,[rsi-0x1]
   1afed:	48 85 f6             	test   rsi,rsi
   1aff0:	74 e4                	je     1afd6 <memmove+0x36>
   1aff2:	31 c0                	xor    eax,eax
   1aff4:	0f 1f 40 00          	nop    DWORD PTR [rax+0x0]
   1aff8:	0f b6 34 01          	movzx  esi,BYTE PTR [rcx+rax*1]
   1affc:	40 88 34 02          	mov    BYTE PTR [rdx+rax*1],sil
   1b000:	48 89 c6             	mov    rsi,rax
   1b003:	48 83 c0 01          	add    rax,0x1
   1b007:	48 39 f7             	cmp    rdi,rsi
   1b00a:	75 ec                	jne    1aff8 <memmove+0x58>
   1b00c:	4c 89 c0             	mov    rax,r8
   1b00f:	c3                   	ret    
   1b010:	4c 89 c7             	mov    rdi,r8
   1b013:	48 09 cf             	or     rdi,rcx
   1b016:	83 e7 07             	and    edi,0x7
   1b019:	0f 85 91 00 00 00    	jne    1b0b0 <memmove+0x110>
   1b01f:	48 8d 46 e0          	lea    rax,[rsi-0x20]
   1b023:	4c 89 c2             	mov    rdx,r8
   1b026:	48 83 e0 e0          	and    rax,0xffffffffffffffe0
   1b02a:	4c 8d 58 20          	lea    r11,[rax+0x20]
   1b02e:	48 89 c8             	mov    rax,rcx
   1b031:	4f 8d 14 18          	lea    r10,[r8+r11*1]
   1b035:	0f 1f 00             	nop    DWORD PTR [rax]
   1b038:	4c 8b 08             	mov    r9,QWORD PTR [rax]
   1b03b:	48 83 c0 20          	add    rax,0x20
   1b03f:	48 83 c2 20          	add    rdx,0x20
   1b043:	4c 89 4a e0          	mov    QWORD PTR [rdx-0x20],r9
   1b047:	4c 8b 48 e8          	mov    r9,QWORD PTR [rax-0x18]
   1b04b:	4c 89 4a e8          	mov    QWORD PTR [rdx-0x18],r9
   1b04f:	4c 8b 48 f0          	mov    r9,QWORD PTR [rax-0x10]
   1b053:	4c 89 4a f0          	mov    QWORD PTR [rdx-0x10],r9
   1b057:	4c 8b 48 f8          	mov    r9,QWORD PTR [rax-0x8]
   1b05b:	4c 89 4a f8          	mov    QWORD PTR [rdx-0x8],r9
   1b05f:	49 39 d2             	cmp    r10,rdx
   1b062:	75 d4                	jne    1b038 <memmove+0x98>
   1b064:	48 89 f0             	mov    rax,rsi
   1b067:	4c 01 d9             	add    rcx,r11
   1b06a:	83 e0 1f             	and    eax,0x1f
   1b06d:	40 f6 c6 18          	test   sil,0x18
   1b071:	74 49                	je     1b0bc <memmove+0x11c>
   1b073:	4c 8b 0c 39          	mov    r9,QWORD PTR [rcx+rdi*1]
   1b077:	4c 89 0c 3a          	mov    QWORD PTR [rdx+rdi*1],r9
   1b07b:	48 83 c7 08          	add    rdi,0x8
   1b07f:	49 89 c1             	mov    r9,rax
   1b082:	49 29 f9             	sub    r9,rdi
   1b085:	49 83 f9 07          	cmp    r9,0x7
   1b089:	77 e8                	ja     1b073 <memmove+0xd3>
   1b08b:	48 83 e8 08          	sub    rax,0x8
   1b08f:	83 e6 07             	and    esi,0x7
   1b092:	48 c1 e8 03          	shr    rax,0x3
   1b096:	48 8d 04 c5 08 00 00 	lea    rax,[rax*8+0x8]
   1b09d:	00 
   1b09e:	48 01 c2             	add    rdx,rax
   1b0a1:	48 01 c1             	add    rcx,rax
   1b0a4:	e9 40 ff ff ff       	jmp    1afe9 <memmove+0x49>
   1b0a9:	0f 1f 80 00 00 00 00 	nop    DWORD PTR [rax+0x0]
   1b0b0:	48 8d 7e ff          	lea    rdi,[rsi-0x1]
   1b0b4:	4c 89 c2             	mov    rdx,r8
   1b0b7:	e9 36 ff ff ff       	jmp    1aff2 <memmove+0x52>
   1b0bc:	48 89 c6             	mov    rsi,rax
   1b0bf:	e9 25 ff ff ff       	jmp    1afe9 <memmove+0x49>
   1b0c4:	cc                   	int3   
   1b0c5:	cc                   	int3   
   1b0c6:	cc                   	int3   
   1b0c7:	cc                   	int3   
   1b0c8:	cc                   	int3   
   1b0c9:	cc                   	int3   
   1b0ca:	cc                   	int3   
   1b0cb:	cc                   	int3   
   1b0cc:	cc                   	int3   
   1b0cd:	cc                   	int3   
   1b0ce:	cc                   	int3   
   1b0cf:	cc                   	int3   

000000000001b0d0 <memcpy>:
   1b0d0:	48 89 f8             	mov    rax,rdi
   1b0d3:	48 83 fa 10          	cmp    rdx,0x10
   1b0d7:	0f 82 fa 00 00 00    	jb     1b1d7 <byte_copy>
   1b0dd:	49 89 f8             	mov    r8,rdi
   1b0e0:	49 83 e0 07          	and    r8,0x7
   1b0e4:	74 0f                	je     1b0f5 <quadword_aligned>
   1b0e6:	48 c7 c1 08 00 00 00 	mov    rcx,0x8
   1b0ed:	4c 29 c1             	sub    rcx,r8
   1b0f0:	48 29 ca             	sub    rdx,rcx
   1b0f3:	f3 a4                	rep movs BYTE PTR es:[rdi],BYTE PTR ds:[rsi]

000000000001b0f5 <quadword_aligned>:
   1b0f5:	48 81 fa 00 01 00 00 	cmp    rdx,0x100
   1b0fc:	0f 82 db 00 00 00    	jb     1b1dd <quadword_copy>
   1b102:	50                   	push   rax
   1b103:	41 54                	push   r12
   1b105:	41 55                	push   r13
   1b107:	41 56                	push   r14
   1b109:	48 89 d1             	mov    rcx,rdx
   1b10c:	48 c1 e9 07          	shr    rcx,0x7

000000000001b110 <loop>:
   1b110:	0f 18 86 00 03 00 00 	prefetchnta BYTE PTR [rsi+0x300]
   1b117:	0f 18 86 40 03 00 00 	prefetchnta BYTE PTR [rsi+0x340]
   1b11e:	48 8b 06             	mov    rax,QWORD PTR [rsi]
   1b121:	4c 8b 46 08          	mov    r8,QWORD PTR [rsi+0x8]
   1b125:	4c 8b 4e 10          	mov    r9,QWORD PTR [rsi+0x10]
   1b129:	4c 8b 56 18          	mov    r10,QWORD PTR [rsi+0x18]
   1b12d:	4c 8b 5e 20          	mov    r11,QWORD PTR [rsi+0x20]
   1b131:	4c 8b 66 28          	mov    r12,QWORD PTR [rsi+0x28]
   1b135:	4c 8b 6e 30          	mov    r13,QWORD PTR [rsi+0x30]
   1b139:	4c 8b 76 38          	mov    r14,QWORD PTR [rsi+0x38]
   1b13d:	48 0f c3 07          	movnti QWORD PTR [rdi],rax
   1b141:	4c 0f c3 47 08       	movnti QWORD PTR [rdi+0x8],r8
   1b146:	4c 0f c3 4f 10       	movnti QWORD PTR [rdi+0x10],r9
   1b14b:	4c 0f c3 57 18       	movnti QWORD PTR [rdi+0x18],r10
   1b150:	4c 0f c3 5f 20       	movnti QWORD PTR [rdi+0x20],r11
   1b155:	4c 0f c3 67 28       	movnti QWORD PTR [rdi+0x28],r12
   1b15a:	4c 0f c3 6f 30       	movnti QWORD PTR [rdi+0x30],r13
   1b15f:	4c 0f c3 77 38       	movnti QWORD PTR [rdi+0x38],r14
   1b164:	48 8b 46 40          	mov    rax,QWORD PTR [rsi+0x40]
   1b168:	4c 8b 46 48          	mov    r8,QWORD PTR [rsi+0x48]
   1b16c:	4c 8b 4e 50          	mov    r9,QWORD PTR [rsi+0x50]
   1b170:	4c 8b 56 58          	mov    r10,QWORD PTR [rsi+0x58]
   1b174:	4c 8b 5e 60          	mov    r11,QWORD PTR [rsi+0x60]
   1b178:	4c 8b 66 68          	mov    r12,QWORD PTR [rsi+0x68]
   1b17c:	4c 8b 6e 70          	mov    r13,QWORD PTR [rsi+0x70]
   1b180:	4c 8b 76 78          	mov    r14,QWORD PTR [rsi+0x78]
   1b184:	48 0f c3 47 40       	movnti QWORD PTR [rdi+0x40],rax
   1b189:	4c 0f c3 47 48       	movnti QWORD PTR [rdi+0x48],r8
   1b18e:	4c 0f c3 4f 50       	movnti QWORD PTR [rdi+0x50],r9
   1b193:	4c 0f c3 57 58       	movnti QWORD PTR [rdi+0x58],r10
   1b198:	4c 0f c3 5f 60       	movnti QWORD PTR [rdi+0x60],r11
   1b19d:	4c 0f c3 67 68       	movnti QWORD PTR [rdi+0x68],r12
   1b1a2:	4c 0f c3 6f 70       	movnti QWORD PTR [rdi+0x70],r13
   1b1a7:	4c 0f c3 77 78       	movnti QWORD PTR [rdi+0x78],r14
   1b1ac:	48 8d b6 80 00 00 00 	lea    rsi,[rsi+0x80]
   1b1b3:	48 8d bf 80 00 00 00 	lea    rdi,[rdi+0x80]
   1b1ba:	48 ff c9             	dec    rcx
   1b1bd:	0f 85 4d ff ff ff    	jne    1b110 <loop>
   1b1c3:	0f ae f8             	sfence 
   1b1c6:	48 89 d1             	mov    rcx,rdx
   1b1c9:	48 83 e1 7f          	and    rcx,0x7f
   1b1cd:	f3 a4                	rep movs BYTE PTR es:[rdi],BYTE PTR ds:[rsi]
   1b1cf:	41 5e                	pop    r14
   1b1d1:	41 5d                	pop    r13
   1b1d3:	41 5c                	pop    r12
   1b1d5:	58                   	pop    rax
   1b1d6:	c3                   	ret    

000000000001b1d7 <byte_copy>:
   1b1d7:	48 89 d1             	mov    rcx,rdx
   1b1da:	f3 a4                	rep movs BYTE PTR es:[rdi],BYTE PTR ds:[rsi]
   1b1dc:	c3                   	ret    

000000000001b1dd <quadword_copy>:
   1b1dd:	48 89 d1             	mov    rcx,rdx
   1b1e0:	48 c1 e9 03          	shr    rcx,0x3
   1b1e4:	66 66 2e 0f 1f 84 00 	data16 cs nop WORD PTR [rax+rax*1+0x0]
   1b1eb:	00 00 00 00 
   1b1ef:	90                   	nop
   1b1f0:	f3 48 a5             	rep movs QWORD PTR es:[rdi],QWORD PTR ds:[rsi]
   1b1f3:	48 89 d1             	mov    rcx,rdx
   1b1f6:	48 83 e1 07          	and    rcx,0x7
   1b1fa:	f3 a4                	rep movs BYTE PTR es:[rdi],BYTE PTR ds:[rsi]
   1b1fc:	c3                   	ret    
   1b1fd:	cc                   	int3   
   1b1fe:	cc                   	int3   
   1b1ff:	cc                   	int3   

000000000001b200 <_realloc_r>:
   1b200:	f3 0f 1e fa          	endbr64 
   1b204:	41 57                	push   r15
   1b206:	41 56                	push   r14
   1b208:	41 55                	push   r13
   1b20a:	49 89 fd             	mov    r13,rdi
   1b20d:	41 54                	push   r12
   1b20f:	49 89 d4             	mov    r12,rdx
   1b212:	55                   	push   rbp
   1b213:	53                   	push   rbx
   1b214:	48 83 ec 18          	sub    rsp,0x18
   1b218:	48 85 f6             	test   rsi,rsi
   1b21b:	0f 84 bf 01 00 00    	je     1b3e0 <_realloc_r+0x1e0>
   1b221:	48 89 f5             	mov    rbp,rsi
   1b224:	49 8d 5c 24 17       	lea    rbx,[r12+0x17]
   1b229:	e8 32 ae ff ff       	call   16060 <__malloc_lock>
   1b22e:	48 8b 55 f8          	mov    rdx,QWORD PTR [rbp-0x8]
   1b232:	4c 8d 7d f0          	lea    r15,[rbp-0x10]
   1b236:	49 89 d6             	mov    r14,rdx
   1b239:	49 83 e6 fc          	and    r14,0xfffffffffffffffc
   1b23d:	48 83 fb 2e          	cmp    rbx,0x2e
   1b241:	0f 87 09 01 00 00    	ja     1b350 <_realloc_r+0x150>
   1b247:	31 c0                	xor    eax,eax
   1b249:	bb 20 00 00 00       	mov    ebx,0x20
   1b24e:	4c 39 e3             	cmp    rbx,r12
   1b251:	0f 82 d9 01 00 00    	jb     1b430 <_realloc_r+0x230>
   1b257:	84 c0                	test   al,al
   1b259:	0f 85 d1 01 00 00    	jne    1b430 <_realloc_r+0x230>
   1b25f:	49 39 de             	cmp    r14,rbx
   1b262:	0f 8d 18 01 00 00    	jge    1b380 <_realloc_r+0x180>
   1b268:	4b 8d 34 37          	lea    rsi,[r15+r14*1]
   1b26c:	48 39 35 5d 8d 00 00 	cmp    QWORD PTR [rip+0x8d5d],rsi        # 23fd0 <__malloc_av_+0x10>
   1b273:	48 8b 46 08          	mov    rax,QWORD PTR [rsi+0x8]
   1b277:	0f 84 4b 02 00 00    	je     1b4c8 <_realloc_r+0x2c8>
   1b27d:	48 89 c1             	mov    rcx,rax
   1b280:	48 83 e1 fe          	and    rcx,0xfffffffffffffffe
   1b284:	f6 44 0e 08 01       	test   BYTE PTR [rsi+rcx*1+0x8],0x1
   1b289:	0f 85 31 01 00 00    	jne    1b3c0 <_realloc_r+0x1c0>
   1b28f:	48 83 e0 fc          	and    rax,0xfffffffffffffffc
   1b293:	49 8d 0c 06          	lea    rcx,[r14+rax*1]
   1b297:	48 39 cb             	cmp    rbx,rcx
   1b29a:	0f 8e c8 00 00 00    	jle    1b368 <_realloc_r+0x168>
   1b2a0:	83 e2 01             	and    edx,0x1
   1b2a3:	75 2c                	jne    1b2d1 <_realloc_r+0xd1>
   1b2a5:	4d 89 f8             	mov    r8,r15
   1b2a8:	4c 2b 45 f0          	sub    r8,QWORD PTR [rbp-0x10]
   1b2ac:	49 8b 50 08          	mov    rdx,QWORD PTR [r8+0x8]
   1b2b0:	48 83 e2 fc          	and    rdx,0xfffffffffffffffc
   1b2b4:	48 01 d0             	add    rax,rdx
   1b2b7:	4a 8d 0c 30          	lea    rcx,[rax+r14*1]
   1b2bb:	48 39 cb             	cmp    rbx,rcx
   1b2be:	0f 8e 7c 01 00 00    	jle    1b440 <_realloc_r+0x240>
   1b2c4:	49 8d 0c 16          	lea    rcx,[r14+rdx*1]
   1b2c8:	48 39 cb             	cmp    rbx,rcx
   1b2cb:	0f 8e 7f 01 00 00    	jle    1b450 <_realloc_r+0x250>
   1b2d1:	4c 89 e6             	mov    rsi,r12
   1b2d4:	4c 89 ef             	mov    rdi,r13
   1b2d7:	e8 a4 ad ff ff       	call   16080 <_malloc_r>
   1b2dc:	49 89 c4             	mov    r12,rax
   1b2df:	48 85 c0             	test   rax,rax
   1b2e2:	74 58                	je     1b33c <_realloc_r+0x13c>
   1b2e4:	48 8b 45 f8          	mov    rax,QWORD PTR [rbp-0x8]
   1b2e8:	49 8d 54 24 f0       	lea    rdx,[r12-0x10]
   1b2ed:	48 83 e0 fe          	and    rax,0xfffffffffffffffe
   1b2f1:	4c 01 f8             	add    rax,r15
   1b2f4:	48 39 d0             	cmp    rax,rdx
   1b2f7:	0f 84 a3 02 00 00    	je     1b5a0 <_realloc_r+0x3a0>
   1b2fd:	49 8d 56 f8          	lea    rdx,[r14-0x8]
   1b301:	48 83 fa 48          	cmp    rdx,0x48
   1b305:	0f 87 d5 02 00 00    	ja     1b5e0 <_realloc_r+0x3e0>
   1b30b:	48 83 fa 27          	cmp    rdx,0x27
   1b30f:	0f 87 a3 02 00 00    	ja     1b5b8 <_realloc_r+0x3b8>
   1b315:	4c 89 e0             	mov    rax,r12
   1b318:	48 89 ea             	mov    rdx,rbp
   1b31b:	48 8b 0a             	mov    rcx,QWORD PTR [rdx]
   1b31e:	48 89 08             	mov    QWORD PTR [rax],rcx
   1b321:	48 8b 4a 08          	mov    rcx,QWORD PTR [rdx+0x8]
   1b325:	48 89 48 08          	mov    QWORD PTR [rax+0x8],rcx
   1b329:	48 8b 52 10          	mov    rdx,QWORD PTR [rdx+0x10]
   1b32d:	48 89 50 10          	mov    QWORD PTR [rax+0x10],rdx
   1b331:	48 89 ee             	mov    rsi,rbp
   1b334:	4c 89 ef             	mov    rdi,r13
   1b337:	e8 94 a9 ff ff       	call   15cd0 <_free_r>
   1b33c:	4c 89 ef             	mov    rdi,r13
   1b33f:	e8 2c ad ff ff       	call   16070 <__malloc_unlock>
   1b344:	eb 68                	jmp    1b3ae <_realloc_r+0x1ae>
   1b346:	66 2e 0f 1f 84 00 00 	cs nop WORD PTR [rax+rax*1+0x0]
   1b34d:	00 00 00 
   1b350:	48 83 e3 f0          	and    rbx,0xfffffffffffffff0
   1b354:	48 81 fb ff ff ff 7f 	cmp    rbx,0x7fffffff
   1b35b:	0f 97 c0             	seta   al
   1b35e:	e9 eb fe ff ff       	jmp    1b24e <_realloc_r+0x4e>
   1b363:	0f 1f 44 00 00       	nop    DWORD PTR [rax+rax*1+0x0]
   1b368:	48 8b 46 18          	mov    rax,QWORD PTR [rsi+0x18]
   1b36c:	48 8b 56 10          	mov    rdx,QWORD PTR [rsi+0x10]
   1b370:	49 89 ce             	mov    r14,rcx
   1b373:	48 89 42 18          	mov    QWORD PTR [rdx+0x18],rax
   1b377:	48 89 50 10          	mov    QWORD PTR [rax+0x10],rdx
   1b37b:	0f 1f 44 00 00       	nop    DWORD PTR [rax+rax*1+0x0]
   1b380:	49 8b 47 08          	mov    rax,QWORD PTR [r15+0x8]
   1b384:	4c 89 f1             	mov    rcx,r14
   1b387:	4b 8d 14 37          	lea    rdx,[r15+r14*1]
   1b38b:	48 29 d9             	sub    rcx,rbx
   1b38e:	83 e0 01             	and    eax,0x1
   1b391:	48 83 f9 1f          	cmp    rcx,0x1f
   1b395:	77 69                	ja     1b400 <_realloc_r+0x200>
   1b397:	4c 09 f0             	or     rax,r14
   1b39a:	49 89 47 08          	mov    QWORD PTR [r15+0x8],rax
   1b39e:	48 83 4a 08 01       	or     QWORD PTR [rdx+0x8],0x1
   1b3a3:	4c 89 ef             	mov    rdi,r13
   1b3a6:	49 89 ec             	mov    r12,rbp
   1b3a9:	e8 c2 ac ff ff       	call   16070 <__malloc_unlock>
   1b3ae:	48 83 c4 18          	add    rsp,0x18
   1b3b2:	4c 89 e0             	mov    rax,r12
   1b3b5:	5b                   	pop    rbx
   1b3b6:	5d                   	pop    rbp
   1b3b7:	41 5c                	pop    r12
   1b3b9:	41 5d                	pop    r13
   1b3bb:	41 5e                	pop    r14
   1b3bd:	41 5f                	pop    r15
   1b3bf:	c3                   	ret    
   1b3c0:	83 e2 01             	and    edx,0x1
   1b3c3:	0f 85 08 ff ff ff    	jne    1b2d1 <_realloc_r+0xd1>
   1b3c9:	4d 89 f8             	mov    r8,r15
   1b3cc:	4c 2b 45 f0          	sub    r8,QWORD PTR [rbp-0x10]
   1b3d0:	49 8b 50 08          	mov    rdx,QWORD PTR [r8+0x8]
   1b3d4:	48 83 e2 fc          	and    rdx,0xfffffffffffffffc
   1b3d8:	e9 e7 fe ff ff       	jmp    1b2c4 <_realloc_r+0xc4>
   1b3dd:	0f 1f 00             	nop    DWORD PTR [rax]
   1b3e0:	48 83 c4 18          	add    rsp,0x18
   1b3e4:	48 89 d6             	mov    rsi,rdx
   1b3e7:	5b                   	pop    rbx
   1b3e8:	5d                   	pop    rbp
   1b3e9:	41 5c                	pop    r12
   1b3eb:	41 5d                	pop    r13
   1b3ed:	41 5e                	pop    r14
   1b3ef:	41 5f                	pop    r15
   1b3f1:	e9 8a ac ff ff       	jmp    16080 <_malloc_r>
   1b3f6:	66 2e 0f 1f 84 00 00 	cs nop WORD PTR [rax+rax*1+0x0]
   1b3fd:	00 00 00 
   1b400:	49 8d 34 1f          	lea    rsi,[r15+rbx*1]
   1b404:	48 09 d8             	or     rax,rbx
   1b407:	48 83 c9 01          	or     rcx,0x1
   1b40b:	4c 89 ef             	mov    rdi,r13
   1b40e:	49 89 47 08          	mov    QWORD PTR [r15+0x8],rax
   1b412:	48 83 c6 10          	add    rsi,0x10
   1b416:	48 89 4e f8          	mov    QWORD PTR [rsi-0x8],rcx
   1b41a:	48 83 4a 08 01       	or     QWORD PTR [rdx+0x8],0x1
   1b41f:	e8 ac a8 ff ff       	call   15cd0 <_free_r>
   1b424:	e9 7a ff ff ff       	jmp    1b3a3 <_realloc_r+0x1a3>
   1b429:	0f 1f 80 00 00 00 00 	nop    DWORD PTR [rax+0x0]
   1b430:	41 c7 45 00 0c 00 00 	mov    DWORD PTR [r13+0x0],0xc
   1b437:	00 
   1b438:	45 31 e4             	xor    r12d,r12d
   1b43b:	e9 6e ff ff ff       	jmp    1b3ae <_realloc_r+0x1ae>
   1b440:	48 8b 46 18          	mov    rax,QWORD PTR [rsi+0x18]
   1b444:	48 8b 56 10          	mov    rdx,QWORD PTR [rsi+0x10]
   1b448:	48 89 42 18          	mov    QWORD PTR [rdx+0x18],rax
   1b44c:	48 89 50 10          	mov    QWORD PTR [rax+0x10],rdx
   1b450:	49 8b 50 10          	mov    rdx,QWORD PTR [r8+0x10]
   1b454:	49 8b 40 18          	mov    rax,QWORD PTR [r8+0x18]
   1b458:	4d 8d 60 10          	lea    r12,[r8+0x10]
   1b45c:	48 89 42 18          	mov    QWORD PTR [rdx+0x18],rax
   1b460:	48 89 50 10          	mov    QWORD PTR [rax+0x10],rdx
   1b464:	49 8d 56 f8          	lea    rdx,[r14-0x8]
   1b468:	48 83 fa 48          	cmp    rdx,0x48
   1b46c:	0f 87 7e 01 00 00    	ja     1b5f0 <_realloc_r+0x3f0>
   1b472:	4c 89 e0             	mov    rax,r12
   1b475:	48 83 fa 27          	cmp    rdx,0x27
   1b479:	76 22                	jbe    1b49d <_realloc_r+0x29d>
   1b47b:	48 8b 45 00          	mov    rax,QWORD PTR [rbp+0x0]
   1b47f:	49 89 40 10          	mov    QWORD PTR [r8+0x10],rax
   1b483:	48 8b 45 08          	mov    rax,QWORD PTR [rbp+0x8]
   1b487:	49 89 40 18          	mov    QWORD PTR [r8+0x18],rax
   1b48b:	48 83 fa 37          	cmp    rdx,0x37
   1b48f:	0f 87 e3 01 00 00    	ja     1b678 <_realloc_r+0x478>
   1b495:	48 83 c5 10          	add    rbp,0x10
   1b499:	49 8d 40 20          	lea    rax,[r8+0x20]
   1b49d:	48 8b 55 00          	mov    rdx,QWORD PTR [rbp+0x0]
   1b4a1:	49 89 ce             	mov    r14,rcx
   1b4a4:	4d 89 c7             	mov    r15,r8
   1b4a7:	48 89 10             	mov    QWORD PTR [rax],rdx
   1b4aa:	48 8b 55 08          	mov    rdx,QWORD PTR [rbp+0x8]
   1b4ae:	48 89 50 08          	mov    QWORD PTR [rax+0x8],rdx
   1b4b2:	48 8b 55 10          	mov    rdx,QWORD PTR [rbp+0x10]
   1b4b6:	4c 89 e5             	mov    rbp,r12
   1b4b9:	48 89 50 10          	mov    QWORD PTR [rax+0x10],rdx
   1b4bd:	e9 be fe ff ff       	jmp    1b380 <_realloc_r+0x180>
   1b4c2:	66 0f 1f 44 00 00    	nop    WORD PTR [rax+rax*1+0x0]
   1b4c8:	48 83 e0 fc          	and    rax,0xfffffffffffffffc
   1b4cc:	48 8d 73 20          	lea    rsi,[rbx+0x20]
   1b4d0:	49 8d 0c 06          	lea    rcx,[r14+rax*1]
   1b4d4:	48 39 f1             	cmp    rcx,rsi
   1b4d7:	0f 8d 63 01 00 00    	jge    1b640 <_realloc_r+0x440>
   1b4dd:	83 e2 01             	and    edx,0x1
   1b4e0:	0f 85 eb fd ff ff    	jne    1b2d1 <_realloc_r+0xd1>
   1b4e6:	4d 89 f8             	mov    r8,r15
   1b4e9:	4c 2b 45 f0          	sub    r8,QWORD PTR [rbp-0x10]
   1b4ed:	49 8b 50 08          	mov    rdx,QWORD PTR [r8+0x8]
   1b4f1:	48 83 e2 fc          	and    rdx,0xfffffffffffffffc
   1b4f5:	48 01 d0             	add    rax,rdx
   1b4f8:	4a 8d 0c 30          	lea    rcx,[rax+r14*1]
   1b4fc:	48 39 ce             	cmp    rsi,rcx
   1b4ff:	0f 8f bf fd ff ff    	jg     1b2c4 <_realloc_r+0xc4>
   1b505:	49 8b 50 10          	mov    rdx,QWORD PTR [r8+0x10]
   1b509:	49 8b 40 18          	mov    rax,QWORD PTR [r8+0x18]
   1b50d:	4d 8d 60 10          	lea    r12,[r8+0x10]
   1b511:	48 89 42 18          	mov    QWORD PTR [rdx+0x18],rax
   1b515:	48 89 50 10          	mov    QWORD PTR [rax+0x10],rdx
   1b519:	49 8d 56 f8          	lea    rdx,[r14-0x8]
   1b51d:	48 83 fa 48          	cmp    rdx,0x48
   1b521:	0f 87 b1 01 00 00    	ja     1b6d8 <_realloc_r+0x4d8>
   1b527:	4c 89 e0             	mov    rax,r12
   1b52a:	48 83 fa 27          	cmp    rdx,0x27
   1b52e:	76 22                	jbe    1b552 <_realloc_r+0x352>
   1b530:	48 8b 45 00          	mov    rax,QWORD PTR [rbp+0x0]
   1b534:	49 89 40 10          	mov    QWORD PTR [r8+0x10],rax
   1b538:	48 8b 45 08          	mov    rax,QWORD PTR [rbp+0x8]
   1b53c:	49 89 40 18          	mov    QWORD PTR [r8+0x18],rax
   1b540:	48 83 fa 37          	cmp    rdx,0x37
   1b544:	0f 87 b0 01 00 00    	ja     1b6fa <_realloc_r+0x4fa>
   1b54a:	48 83 c5 10          	add    rbp,0x10
   1b54e:	49 8d 40 20          	lea    rax,[r8+0x20]
   1b552:	48 8b 55 00          	mov    rdx,QWORD PTR [rbp+0x0]
   1b556:	48 89 10             	mov    QWORD PTR [rax],rdx
   1b559:	48 8b 55 08          	mov    rdx,QWORD PTR [rbp+0x8]
   1b55d:	48 89 50 08          	mov    QWORD PTR [rax+0x8],rdx
   1b561:	48 8b 55 10          	mov    rdx,QWORD PTR [rbp+0x10]
   1b565:	48 89 50 10          	mov    QWORD PTR [rax+0x10],rdx
   1b569:	48 29 d9             	sub    rcx,rbx
   1b56c:	49 8d 04 18          	lea    rax,[r8+rbx*1]
   1b570:	4c 89 ef             	mov    rdi,r13
   1b573:	48 83 c9 01          	or     rcx,0x1
   1b577:	48 89 05 52 8a 00 00 	mov    QWORD PTR [rip+0x8a52],rax        # 23fd0 <__malloc_av_+0x10>
   1b57e:	48 89 48 08          	mov    QWORD PTR [rax+0x8],rcx
   1b582:	49 8b 40 08          	mov    rax,QWORD PTR [r8+0x8]
   1b586:	83 e0 01             	and    eax,0x1
   1b589:	48 09 d8             	or     rax,rbx
   1b58c:	49 89 40 08          	mov    QWORD PTR [r8+0x8],rax
   1b590:	e8 db aa ff ff       	call   16070 <__malloc_unlock>
   1b595:	e9 14 fe ff ff       	jmp    1b3ae <_realloc_r+0x1ae>
   1b59a:	66 0f 1f 44 00 00    	nop    WORD PTR [rax+rax*1+0x0]
   1b5a0:	49 8b 44 24 f8       	mov    rax,QWORD PTR [r12-0x8]
   1b5a5:	48 83 e0 fc          	and    rax,0xfffffffffffffffc
   1b5a9:	49 01 c6             	add    r14,rax
   1b5ac:	e9 cf fd ff ff       	jmp    1b380 <_realloc_r+0x180>
   1b5b1:	0f 1f 80 00 00 00 00 	nop    DWORD PTR [rax+0x0]
   1b5b8:	48 8b 45 00          	mov    rax,QWORD PTR [rbp+0x0]
   1b5bc:	49 89 04 24          	mov    QWORD PTR [r12],rax
   1b5c0:	48 8b 45 08          	mov    rax,QWORD PTR [rbp+0x8]
   1b5c4:	49 89 44 24 08       	mov    QWORD PTR [r12+0x8],rax
   1b5c9:	48 83 fa 37          	cmp    rdx,0x37
   1b5cd:	77 49                	ja     1b618 <_realloc_r+0x418>
   1b5cf:	48 8d 55 10          	lea    rdx,[rbp+0x10]
   1b5d3:	49 8d 44 24 10       	lea    rax,[r12+0x10]
   1b5d8:	e9 3e fd ff ff       	jmp    1b31b <_realloc_r+0x11b>
   1b5dd:	0f 1f 00             	nop    DWORD PTR [rax]
   1b5e0:	48 89 ee             	mov    rsi,rbp
   1b5e3:	4c 89 e7             	mov    rdi,r12
   1b5e6:	e8 b5 f9 ff ff       	call   1afa0 <memmove>
   1b5eb:	e9 41 fd ff ff       	jmp    1b331 <_realloc_r+0x131>
   1b5f0:	48 89 ee             	mov    rsi,rbp
   1b5f3:	4c 89 e7             	mov    rdi,r12
   1b5f6:	4c 89 44 24 08       	mov    QWORD PTR [rsp+0x8],r8
   1b5fb:	4c 89 e5             	mov    rbp,r12
   1b5fe:	48 89 0c 24          	mov    QWORD PTR [rsp],rcx
   1b602:	e8 99 f9 ff ff       	call   1afa0 <memmove>
   1b607:	4c 8b 34 24          	mov    r14,QWORD PTR [rsp]
   1b60b:	4c 8b 7c 24 08       	mov    r15,QWORD PTR [rsp+0x8]
   1b610:	e9 6b fd ff ff       	jmp    1b380 <_realloc_r+0x180>
   1b615:	0f 1f 00             	nop    DWORD PTR [rax]
   1b618:	48 8b 45 10          	mov    rax,QWORD PTR [rbp+0x10]
   1b61c:	49 89 44 24 10       	mov    QWORD PTR [r12+0x10],rax
   1b621:	48 8b 45 18          	mov    rax,QWORD PTR [rbp+0x18]
   1b625:	49 89 44 24 18       	mov    QWORD PTR [r12+0x18],rax
   1b62a:	48 83 fa 48          	cmp    rdx,0x48
   1b62e:	74 6b                	je     1b69b <_realloc_r+0x49b>
   1b630:	48 8d 55 20          	lea    rdx,[rbp+0x20]
   1b634:	49 8d 44 24 20       	lea    rax,[r12+0x20]
   1b639:	e9 dd fc ff ff       	jmp    1b31b <_realloc_r+0x11b>
   1b63e:	66 90                	xchg   ax,ax
   1b640:	48 29 d9             	sub    rcx,rbx
   1b643:	49 01 df             	add    r15,rbx
   1b646:	4c 89 ef             	mov    rdi,r13
   1b649:	49 89 ec             	mov    r12,rbp
   1b64c:	48 83 c9 01          	or     rcx,0x1
   1b650:	4c 89 3d 79 89 00 00 	mov    QWORD PTR [rip+0x8979],r15        # 23fd0 <__malloc_av_+0x10>
   1b657:	49 89 4f 08          	mov    QWORD PTR [r15+0x8],rcx
   1b65b:	48 8b 45 f8          	mov    rax,QWORD PTR [rbp-0x8]
   1b65f:	83 e0 01             	and    eax,0x1
   1b662:	48 09 d8             	or     rax,rbx
   1b665:	48 89 45 f8          	mov    QWORD PTR [rbp-0x8],rax
   1b669:	e8 02 aa ff ff       	call   16070 <__malloc_unlock>
   1b66e:	e9 3b fd ff ff       	jmp    1b3ae <_realloc_r+0x1ae>
   1b673:	0f 1f 44 00 00       	nop    DWORD PTR [rax+rax*1+0x0]
   1b678:	48 8b 45 10          	mov    rax,QWORD PTR [rbp+0x10]
   1b67c:	49 89 40 20          	mov    QWORD PTR [r8+0x20],rax
   1b680:	48 8b 45 18          	mov    rax,QWORD PTR [rbp+0x18]
   1b684:	49 89 40 28          	mov    QWORD PTR [r8+0x28],rax
   1b688:	48 83 fa 48          	cmp    rdx,0x48
   1b68c:	74 2d                	je     1b6bb <_realloc_r+0x4bb>
   1b68e:	48 83 c5 20          	add    rbp,0x20
   1b692:	49 8d 40 30          	lea    rax,[r8+0x30]
   1b696:	e9 02 fe ff ff       	jmp    1b49d <_realloc_r+0x29d>
   1b69b:	48 8b 45 20          	mov    rax,QWORD PTR [rbp+0x20]
   1b69f:	48 8d 55 30          	lea    rdx,[rbp+0x30]
   1b6a3:	49 89 44 24 20       	mov    QWORD PTR [r12+0x20],rax
   1b6a8:	48 8b 4d 28          	mov    rcx,QWORD PTR [rbp+0x28]
   1b6ac:	49 8d 44 24 30       	lea    rax,[r12+0x30]
   1b6b1:	49 89 4c 24 28       	mov    QWORD PTR [r12+0x28],rcx
   1b6b6:	e9 60 fc ff ff       	jmp    1b31b <_realloc_r+0x11b>
   1b6bb:	48 8b 45 20          	mov    rax,QWORD PTR [rbp+0x20]
   1b6bf:	48 83 c5 30          	add    rbp,0x30
   1b6c3:	49 89 40 30          	mov    QWORD PTR [r8+0x30],rax
   1b6c7:	48 8b 55 f8          	mov    rdx,QWORD PTR [rbp-0x8]
   1b6cb:	49 8d 40 40          	lea    rax,[r8+0x40]
   1b6cf:	49 89 50 38          	mov    QWORD PTR [r8+0x38],rdx
   1b6d3:	e9 c5 fd ff ff       	jmp    1b49d <_realloc_r+0x29d>
   1b6d8:	48 89 ee             	mov    rsi,rbp
   1b6db:	4c 89 e7             	mov    rdi,r12
   1b6de:	4c 89 44 24 08       	mov    QWORD PTR [rsp+0x8],r8
   1b6e3:	48 89 0c 24          	mov    QWORD PTR [rsp],rcx
   1b6e7:	e8 b4 f8 ff ff       	call   1afa0 <memmove>
   1b6ec:	4c 8b 44 24 08       	mov    r8,QWORD PTR [rsp+0x8]
   1b6f1:	48 8b 0c 24          	mov    rcx,QWORD PTR [rsp]
   1b6f5:	e9 6f fe ff ff       	jmp    1b569 <_realloc_r+0x369>
   1b6fa:	48 8b 45 10          	mov    rax,QWORD PTR [rbp+0x10]
   1b6fe:	49 89 40 20          	mov    QWORD PTR [r8+0x20],rax
   1b702:	48 8b 45 18          	mov    rax,QWORD PTR [rbp+0x18]
   1b706:	49 89 40 28          	mov    QWORD PTR [r8+0x28],rax
   1b70a:	48 83 fa 48          	cmp    rdx,0x48
   1b70e:	74 0d                	je     1b71d <_realloc_r+0x51d>
   1b710:	48 83 c5 20          	add    rbp,0x20
   1b714:	49 8d 40 30          	lea    rax,[r8+0x30]
   1b718:	e9 35 fe ff ff       	jmp    1b552 <_realloc_r+0x352>
   1b71d:	48 8b 45 20          	mov    rax,QWORD PTR [rbp+0x20]
   1b721:	48 83 c5 30          	add    rbp,0x30
   1b725:	49 89 40 30          	mov    QWORD PTR [r8+0x30],rax
   1b729:	48 8b 55 f8          	mov    rdx,QWORD PTR [rbp-0x8]
   1b72d:	49 8d 40 40          	lea    rax,[r8+0x40]
   1b731:	49 89 50 38          	mov    QWORD PTR [r8+0x38],rdx
   1b735:	e9 18 fe ff ff       	jmp    1b552 <_realloc_r+0x352>
   1b73a:	cc                   	int3   
   1b73b:	cc                   	int3   
   1b73c:	cc                   	int3   
   1b73d:	cc                   	int3   
   1b73e:	cc                   	int3   
   1b73f:	cc                   	int3   

000000000001b740 <memchr>:
   1b740:	f3 0f 1e fa          	endbr64 
   1b744:	48 89 f8             	mov    rax,rdi
   1b747:	89 f7                	mov    edi,esi
   1b749:	a8 07                	test   al,0x7
   1b74b:	74 2e                	je     1b77b <memchr+0x3b>
   1b74d:	48 8d 4a ff          	lea    rcx,[rdx-0x1]
   1b751:	48 85 d2             	test   rdx,rdx
   1b754:	75 18                	jne    1b76e <memchr+0x2e>
   1b756:	eb 20                	jmp    1b778 <memchr+0x38>
   1b758:	0f 1f 84 00 00 00 00 	nop    DWORD PTR [rax+rax*1+0x0]
   1b75f:	00 
   1b760:	48 83 c0 01          	add    rax,0x1
   1b764:	a8 07                	test   al,0x7
   1b766:	74 18                	je     1b780 <memchr+0x40>
   1b768:	48 83 e9 01          	sub    rcx,0x1
   1b76c:	72 0a                	jb     1b778 <memchr+0x38>
   1b76e:	40 38 38             	cmp    BYTE PTR [rax],dil
   1b771:	75 ed                	jne    1b760 <memchr+0x20>
   1b773:	c3                   	ret    
   1b774:	0f 1f 40 00          	nop    DWORD PTR [rax+0x0]
   1b778:	31 c0                	xor    eax,eax
   1b77a:	c3                   	ret    
   1b77b:	48 89 d1             	mov    rcx,rdx
   1b77e:	66 90                	xchg   ax,ax
   1b780:	48 83 f9 07          	cmp    rcx,0x7
   1b784:	77 1a                	ja     1b7a0 <memchr+0x60>
   1b786:	48 85 c9             	test   rcx,rcx
   1b789:	74 ed                	je     1b778 <memchr+0x38>
   1b78b:	48 01 c1             	add    rcx,rax
   1b78e:	eb 09                	jmp    1b799 <memchr+0x59>
   1b790:	48 83 c0 01          	add    rax,0x1
   1b794:	48 39 c1             	cmp    rcx,rax
   1b797:	74 df                	je     1b778 <memchr+0x38>
   1b799:	40 38 38             	cmp    BYTE PTR [rax],dil
   1b79c:	75 f2                	jne    1b790 <memchr+0x50>
   1b79e:	c3                   	ret    
   1b79f:	90                   	nop
   1b7a0:	49 ba ff fe fe fe fe 	movabs r10,0xfefefefefefefeff
   1b7a7:	fe fe fe 
   1b7aa:	40 0f b6 f6          	movzx  esi,sil
   1b7ae:	49 b9 80 80 80 80 80 	movabs r9,0x8080808080808080
   1b7b5:	80 80 80 
   1b7b8:	89 f2                	mov    edx,esi
   1b7ba:	c1 e2 08             	shl    edx,0x8
   1b7bd:	09 f2                	or     edx,esi
   1b7bf:	48 63 d2             	movsxd rdx,edx
   1b7c2:	48 89 d6             	mov    rsi,rdx
   1b7c5:	48 c1 e6 10          	shl    rsi,0x10
   1b7c9:	48 09 f2             	or     rdx,rsi
   1b7cc:	49 89 d0             	mov    r8,rdx
   1b7cf:	49 c1 e0 20          	shl    r8,0x20
   1b7d3:	49 09 d0             	or     r8,rdx
   1b7d6:	66 2e 0f 1f 84 00 00 	cs nop WORD PTR [rax+rax*1+0x0]
   1b7dd:	00 00 00 
   1b7e0:	48 8b 10             	mov    rdx,QWORD PTR [rax]
   1b7e3:	4c 31 c2             	xor    rdx,r8
   1b7e6:	4a 8d 34 12          	lea    rsi,[rdx+r10*1]
   1b7ea:	48 f7 d2             	not    rdx
   1b7ed:	48 21 f2             	and    rdx,rsi
   1b7f0:	4c 85 ca             	test   rdx,r9
   1b7f3:	75 96                	jne    1b78b <memchr+0x4b>
   1b7f5:	48 83 e9 08          	sub    rcx,0x8
   1b7f9:	48 83 c0 08          	add    rax,0x8
   1b7fd:	48 83 f9 07          	cmp    rcx,0x7
   1b801:	77 dd                	ja     1b7e0 <memchr+0xa0>
   1b803:	eb 81                	jmp    1b786 <memchr+0x46>
   1b805:	cc                   	int3   
   1b806:	cc                   	int3   
   1b807:	cc                   	int3   
   1b808:	cc                   	int3   
   1b809:	cc                   	int3   
   1b80a:	cc                   	int3   
   1b80b:	cc                   	int3   
   1b80c:	cc                   	int3   
   1b80d:	cc                   	int3   
   1b80e:	cc                   	int3   
   1b80f:	cc                   	int3   

000000000001b810 <quorem>:
   1b810:	41 57                	push   r15
   1b812:	31 c0                	xor    eax,eax
   1b814:	41 56                	push   r14
   1b816:	41 55                	push   r13
   1b818:	41 54                	push   r12
   1b81a:	55                   	push   rbp
   1b81b:	53                   	push   rbx
   1b81c:	48 83 ec 18          	sub    rsp,0x18
   1b820:	8b 6e 14             	mov    ebp,DWORD PTR [rsi+0x14]
   1b823:	39 6f 14             	cmp    DWORD PTR [rdi+0x14],ebp
   1b826:	0f 8c 1f 01 00 00    	jl     1b94b <quorem+0x13b>
   1b82c:	83 ed 01             	sub    ebp,0x1
   1b82f:	48 8d 5e 18          	lea    rbx,[rsi+0x18]
   1b833:	4c 8d 77 18          	lea    r14,[rdi+0x18]
   1b837:	49 89 f1             	mov    r9,rsi
   1b83a:	4c 63 c5             	movsxd r8,ebp
   1b83d:	31 d2                	xor    edx,edx
   1b83f:	49 89 ff             	mov    r15,rdi
   1b842:	49 c1 e0 02          	shl    r8,0x2
   1b846:	4e 8d 24 03          	lea    r12,[rbx+r8*1]
   1b84a:	4d 01 f0             	add    r8,r14
   1b84d:	41 8b 04 24          	mov    eax,DWORD PTR [r12]
   1b851:	41 8b 30             	mov    esi,DWORD PTR [r8]
   1b854:	8d 48 01             	lea    ecx,[rax+0x1]
   1b857:	89 f0                	mov    eax,esi
   1b859:	f7 f1                	div    ecx
   1b85b:	89 44 24 0c          	mov    DWORD PTR [rsp+0xc],eax
   1b85f:	41 89 c5             	mov    r13d,eax
   1b862:	39 ce                	cmp    esi,ecx
   1b864:	72 78                	jb     1b8de <quorem+0xce>
   1b866:	49 89 da             	mov    r10,rbx
   1b869:	4c 89 f7             	mov    rdi,r14
   1b86c:	45 31 db             	xor    r11d,r11d
   1b86f:	31 f6                	xor    esi,esi
   1b871:	0f 1f 80 00 00 00 00 	nop    DWORD PTR [rax+0x0]
   1b878:	41 8b 0a             	mov    ecx,DWORD PTR [r10]
   1b87b:	49 83 c2 04          	add    r10,0x4
   1b87f:	48 83 c7 04          	add    rdi,0x4
   1b883:	0f b7 d1             	movzx  edx,cx
   1b886:	c1 e9 10             	shr    ecx,0x10
   1b889:	41 0f af d5          	imul   edx,r13d
   1b88d:	41 0f af cd          	imul   ecx,r13d
   1b891:	44 01 da             	add    edx,r11d
   1b894:	89 d0                	mov    eax,edx
   1b896:	0f b7 d2             	movzx  edx,dx
   1b899:	c1 e8 10             	shr    eax,0x10
   1b89c:	29 d6                	sub    esi,edx
   1b89e:	01 c1                	add    ecx,eax
   1b8a0:	8b 47 fc             	mov    eax,DWORD PTR [rdi-0x4]
   1b8a3:	41 89 cb             	mov    r11d,ecx
   1b8a6:	0f b7 c9             	movzx  ecx,cx
   1b8a9:	0f b7 d0             	movzx  edx,ax
   1b8ac:	c1 e8 10             	shr    eax,0x10
   1b8af:	01 f2                	add    edx,esi
   1b8b1:	29 c8                	sub    eax,ecx
   1b8b3:	41 c1 eb 10          	shr    r11d,0x10
   1b8b7:	89 d1                	mov    ecx,edx
   1b8b9:	0f b7 d2             	movzx  edx,dx
   1b8bc:	c1 f9 10             	sar    ecx,0x10
   1b8bf:	01 c8                	add    eax,ecx
   1b8c1:	89 c6                	mov    esi,eax
   1b8c3:	c1 e0 10             	shl    eax,0x10
   1b8c6:	09 d0                	or     eax,edx
   1b8c8:	c1 fe 10             	sar    esi,0x10
   1b8cb:	89 47 fc             	mov    DWORD PTR [rdi-0x4],eax
   1b8ce:	4d 39 d4             	cmp    r12,r10
   1b8d1:	73 a5                	jae    1b878 <quorem+0x68>
   1b8d3:	41 8b 38             	mov    edi,DWORD PTR [r8]
   1b8d6:	85 ff                	test   edi,edi
   1b8d8:	0f 84 ac 00 00 00    	je     1b98a <quorem+0x17a>
   1b8de:	4c 89 ce             	mov    rsi,r9
   1b8e1:	4c 89 ff             	mov    rdi,r15
   1b8e4:	e8 f7 1e 00 00       	call   1d7e0 <__mcmp>
   1b8e9:	85 c0                	test   eax,eax
   1b8eb:	78 5a                	js     1b947 <quorem+0x137>
   1b8ed:	41 8d 45 01          	lea    eax,[r13+0x1]
   1b8f1:	4c 89 f6             	mov    rsi,r14
   1b8f4:	31 ff                	xor    edi,edi
   1b8f6:	89 44 24 0c          	mov    DWORD PTR [rsp+0xc],eax
   1b8fa:	66 0f 1f 44 00 00    	nop    WORD PTR [rax+rax*1+0x0]
   1b900:	8b 0b                	mov    ecx,DWORD PTR [rbx]
   1b902:	8b 06                	mov    eax,DWORD PTR [rsi]
   1b904:	48 83 c3 04          	add    rbx,0x4
   1b908:	48 83 c6 04          	add    rsi,0x4
   1b90c:	0f b7 d1             	movzx  edx,cx
   1b90f:	c1 e9 10             	shr    ecx,0x10
   1b912:	29 d7                	sub    edi,edx
   1b914:	0f b7 d0             	movzx  edx,ax
   1b917:	c1 e8 10             	shr    eax,0x10
   1b91a:	01 fa                	add    edx,edi
   1b91c:	29 c8                	sub    eax,ecx
   1b91e:	89 d1                	mov    ecx,edx
   1b920:	0f b7 d2             	movzx  edx,dx
   1b923:	c1 f9 10             	sar    ecx,0x10
   1b926:	01 c8                	add    eax,ecx
   1b928:	89 c7                	mov    edi,eax
   1b92a:	c1 e0 10             	shl    eax,0x10
   1b92d:	09 d0                	or     eax,edx
   1b92f:	c1 ff 10             	sar    edi,0x10
   1b932:	89 46 fc             	mov    DWORD PTR [rsi-0x4],eax
   1b935:	49 39 dc             	cmp    r12,rbx
   1b938:	73 c6                	jae    1b900 <quorem+0xf0>
   1b93a:	48 63 c5             	movsxd rax,ebp
   1b93d:	49 8d 04 86          	lea    rax,[r14+rax*4]
   1b941:	8b 08                	mov    ecx,DWORD PTR [rax]
   1b943:	85 c9                	test   ecx,ecx
   1b945:	74 22                	je     1b969 <quorem+0x159>
   1b947:	8b 44 24 0c          	mov    eax,DWORD PTR [rsp+0xc]
   1b94b:	48 83 c4 18          	add    rsp,0x18
   1b94f:	5b                   	pop    rbx
   1b950:	5d                   	pop    rbp
   1b951:	41 5c                	pop    r12
   1b953:	41 5d                	pop    r13
   1b955:	41 5e                	pop    r14
   1b957:	41 5f                	pop    r15
   1b959:	c3                   	ret    
   1b95a:	66 0f 1f 44 00 00    	nop    WORD PTR [rax+rax*1+0x0]
   1b960:	8b 10                	mov    edx,DWORD PTR [rax]
   1b962:	85 d2                	test   edx,edx
   1b964:	75 0c                	jne    1b972 <quorem+0x162>
   1b966:	83 ed 01             	sub    ebp,0x1
   1b969:	48 83 e8 04          	sub    rax,0x4
   1b96d:	49 39 c6             	cmp    r14,rax
   1b970:	72 ee                	jb     1b960 <quorem+0x150>
   1b972:	41 89 6f 14          	mov    DWORD PTR [r15+0x14],ebp
   1b976:	eb cf                	jmp    1b947 <quorem+0x137>
   1b978:	0f 1f 84 00 00 00 00 	nop    DWORD PTR [rax+rax*1+0x0]
   1b97f:	00 
   1b980:	41 8b 30             	mov    esi,DWORD PTR [r8]
   1b983:	85 f6                	test   esi,esi
   1b985:	75 0c                	jne    1b993 <quorem+0x183>
   1b987:	83 ed 01             	sub    ebp,0x1
   1b98a:	49 83 e8 04          	sub    r8,0x4
   1b98e:	4d 39 c6             	cmp    r14,r8
   1b991:	72 ed                	jb     1b980 <quorem+0x170>
   1b993:	41 89 6f 14          	mov    DWORD PTR [r15+0x14],ebp
   1b997:	4c 89 ce             	mov    rsi,r9
   1b99a:	4c 89 ff             	mov    rdi,r15
   1b99d:	e8 3e 1e 00 00       	call   1d7e0 <__mcmp>
   1b9a2:	85 c0                	test   eax,eax
   1b9a4:	0f 89 43 ff ff ff    	jns    1b8ed <quorem+0xdd>
   1b9aa:	eb 9b                	jmp    1b947 <quorem+0x137>
   1b9ac:	0f 1f 40 00          	nop    DWORD PTR [rax+0x0]

000000000001b9b0 <_dtoa_r>:
   1b9b0:	f3 0f 1e fa          	endbr64 
   1b9b4:	41 57                	push   r15
   1b9b6:	49 89 ff             	mov    r15,rdi
   1b9b9:	41 56                	push   r14
   1b9bb:	41 55                	push   r13
   1b9bd:	41 89 d5             	mov    r13d,edx
   1b9c0:	41 54                	push   r12
   1b9c2:	4d 89 c4             	mov    r12,r8
   1b9c5:	55                   	push   rbp
   1b9c6:	53                   	push   rbx
   1b9c7:	66 48 0f 7e c3       	movq   rbx,xmm0
   1b9cc:	48 83 ec 78          	sub    rsp,0x78
   1b9d0:	89 34 24             	mov    DWORD PTR [rsp],esi
   1b9d3:	48 8b 77 50          	mov    rsi,QWORD PTR [rdi+0x50]
   1b9d7:	48 89 4c 24 20       	mov    QWORD PTR [rsp+0x20],rcx
   1b9dc:	4c 89 4c 24 18       	mov    QWORD PTR [rsp+0x18],r9
   1b9e1:	64 48 8b 04 25 28 00 	mov    rax,QWORD PTR fs:0x28
   1b9e8:	00 00 
   1b9ea:	48 89 44 24 68       	mov    QWORD PTR [rsp+0x68],rax
   1b9ef:	31 c0                	xor    eax,eax
   1b9f1:	66 0f d6 44 24 08    	movq   QWORD PTR [rsp+0x8],xmm0
   1b9f7:	48 85 f6             	test   rsi,rsi
   1b9fa:	74 1d                	je     1ba19 <_dtoa_r+0x69>
   1b9fc:	8b 4f 58             	mov    ecx,DWORD PTR [rdi+0x58]
   1b9ff:	b8 01 00 00 00       	mov    eax,0x1
   1ba04:	d3 e0                	shl    eax,cl
   1ba06:	89 4e 08             	mov    DWORD PTR [rsi+0x8],ecx
   1ba09:	89 46 0c             	mov    DWORD PTR [rsi+0xc],eax
   1ba0c:	e8 df 14 00 00       	call   1cef0 <_Bfree>
   1ba11:	49 c7 47 50 00 00 00 	mov    QWORD PTR [r15+0x50],0x0
   1ba18:	00 
   1ba19:	48 89 d8             	mov    rax,rbx
   1ba1c:	48 c1 e8 20          	shr    rax,0x20
   1ba20:	89 c5                	mov    ebp,eax
   1ba22:	85 c0                	test   eax,eax
   1ba24:	0f 88 5e 04 00 00    	js     1be88 <_dtoa_r+0x4d8>
   1ba2a:	89 e8                	mov    eax,ebp
   1ba2c:	41 c7 04 24 00 00 00 	mov    DWORD PTR [r12],0x0
   1ba33:	00 
   1ba34:	66 48 0f 6e d3       	movq   xmm2,rbx
   1ba39:	25 00 00 f0 7f       	and    eax,0x7ff00000
   1ba3e:	3d 00 00 f0 7f       	cmp    eax,0x7ff00000
   1ba43:	0f 84 77 04 00 00    	je     1bec0 <_dtoa_r+0x510>
   1ba49:	66 0f ef f6          	pxor   xmm6,xmm6
   1ba4d:	66 0f 2e d6          	ucomisd xmm2,xmm6
   1ba51:	7a 4d                	jp     1baa0 <_dtoa_r+0xf0>
   1ba53:	75 4b                	jne    1baa0 <_dtoa_r+0xf0>
   1ba55:	48 8b 44 24 20       	mov    rax,QWORD PTR [rsp+0x20]
   1ba5a:	4c 8d 25 46 48 ff ff 	lea    r12,[rip+0xffffffffffff4846]        # 102a7 <zeroes.0-0x399>
   1ba61:	c7 00 01 00 00 00    	mov    DWORD PTR [rax],0x1
   1ba67:	48 8b 44 24 18       	mov    rax,QWORD PTR [rsp+0x18]
   1ba6c:	48 85 c0             	test   rax,rax
   1ba6f:	74 08                	je     1ba79 <_dtoa_r+0xc9>
   1ba71:	49 8d 5c 24 01       	lea    rbx,[r12+0x1]
   1ba76:	48 89 18             	mov    QWORD PTR [rax],rbx
   1ba79:	48 8b 44 24 68       	mov    rax,QWORD PTR [rsp+0x68]
   1ba7e:	64 48 2b 04 25 28 00 	sub    rax,QWORD PTR fs:0x28
   1ba85:	00 00 
   1ba87:	0f 85 08 13 00 00    	jne    1cd95 <_dtoa_r+0x13e5>
   1ba8d:	48 83 c4 78          	add    rsp,0x78
   1ba91:	4c 89 e0             	mov    rax,r12
   1ba94:	5b                   	pop    rbx
   1ba95:	5d                   	pop    rbp
   1ba96:	41 5c                	pop    r12
   1ba98:	41 5d                	pop    r13
   1ba9a:	41 5e                	pop    r14
   1ba9c:	41 5f                	pop    r15
   1ba9e:	c3                   	ret    
   1ba9f:	90                   	nop
   1baa0:	48 8d 54 24 60       	lea    rdx,[rsp+0x60]
   1baa5:	66 0f 28 c2          	movapd xmm0,xmm2
   1baa9:	48 8d 74 24 64       	lea    rsi,[rsp+0x64]
   1baae:	4c 89 ff             	mov    rdi,r15
   1bab1:	f2 0f 11 54 24 10    	movsd  QWORD PTR [rsp+0x10],xmm2
   1bab7:	e8 14 21 00 00       	call   1dbd0 <__d2b>
   1babc:	89 ea                	mov    edx,ebp
   1babe:	f2 0f 10 54 24 10    	movsd  xmm2,QWORD PTR [rsp+0x10]
   1bac4:	c1 ea 14             	shr    edx,0x14
   1bac7:	49 89 c6             	mov    r14,rax
   1baca:	0f 85 38 04 00 00    	jne    1bf08 <_dtoa_r+0x558>
   1bad0:	8b 44 24 60          	mov    eax,DWORD PTR [rsp+0x60]
   1bad4:	8b 54 24 64          	mov    edx,DWORD PTR [rsp+0x64]
   1bad8:	01 c2                	add    edx,eax
   1bada:	8d b2 32 04 00 00    	lea    esi,[rdx+0x432]
   1bae0:	83 fe 20             	cmp    esi,0x20
   1bae3:	0f 8e 47 06 00 00    	jle    1c130 <_dtoa_r+0x780>
   1bae9:	b9 40 00 00 00       	mov    ecx,0x40
   1baee:	29 f1                	sub    ecx,esi
   1baf0:	d3 e5                	shl    ebp,cl
   1baf2:	8d 8a 12 04 00 00    	lea    ecx,[rdx+0x412]
   1baf8:	d3 eb                	shr    ebx,cl
   1bafa:	09 eb                	or     ebx,ebp
   1bafc:	89 d9                	mov    ecx,ebx
   1bafe:	66 0f ef ff          	pxor   xmm7,xmm7
   1bb02:	c7 44 24 54 01 00 00 	mov    DWORD PTR [rsp+0x54],0x1
   1bb09:	00 
   1bb0a:	83 ea 01             	sub    edx,0x1
   1bb0d:	f2 48 0f 2a f9       	cvtsi2sd xmm7,rcx
   1bb12:	66 48 0f 7e fe       	movq   rsi,xmm7
   1bb17:	66 48 0f 7e f9       	movq   rcx,xmm7
   1bb1c:	48 c1 ee 20          	shr    rsi,0x20
   1bb20:	89 c9                	mov    ecx,ecx
   1bb22:	81 ee 00 00 f0 01    	sub    esi,0x1f00000
   1bb28:	48 c1 e6 20          	shl    rsi,0x20
   1bb2c:	48 09 f1             	or     rcx,rsi
   1bb2f:	66 0f ef c9          	pxor   xmm1,xmm1
   1bb33:	66 48 0f 6e c1       	movq   xmm0,rcx
   1bb38:	66 0f ef ff          	pxor   xmm7,xmm7
   1bb3c:	f2 0f 2a ca          	cvtsi2sd xmm1,edx
   1bb40:	f2 0f 59 0d 48 49 ff 	mulsd  xmm1,QWORD PTR [rip+0xffffffffffff4948]        # 10490 <zeroes.0-0x1b0>
   1bb47:	ff 
   1bb48:	f2 0f 5c 05 58 49 ff 	subsd  xmm0,QWORD PTR [rip+0xffffffffffff4958]        # 104a8 <zeroes.0-0x198>
   1bb4f:	ff 
   1bb50:	f2 0f 59 05 68 49 ff 	mulsd  xmm0,QWORD PTR [rip+0xffffffffffff4968]        # 104c0 <zeroes.0-0x180>
   1bb57:	ff 
   1bb58:	f2 0f 58 05 28 49 ff 	addsd  xmm0,QWORD PTR [rip+0xffffffffffff4928]        # 10488 <zeroes.0-0x1b8>
   1bb5f:	ff 
   1bb60:	f2 0f 58 c1          	addsd  xmm0,xmm1
   1bb64:	66 0f 2f f8          	comisd xmm7,xmm0
   1bb68:	f2 44 0f 2c c0       	cvttsd2si r8d,xmm0
   1bb6d:	0f 87 95 05 00 00    	ja     1c108 <_dtoa_r+0x758>
   1bb73:	29 d0                	sub    eax,edx
   1bb75:	44 8d 60 ff          	lea    r12d,[rax-0x1]
   1bb79:	41 83 f8 16          	cmp    r8d,0x16
   1bb7d:	0f 87 2d 05 00 00    	ja     1c0b0 <_dtoa_r+0x700>
   1bb83:	49 63 d0             	movsxd rdx,r8d
   1bb86:	48 8d 0d f3 4f ff ff 	lea    rcx,[rip+0xffffffffffff4ff3]        # 10b80 <__mprec_tens>
   1bb8d:	f2 0f 10 04 d1       	movsd  xmm0,QWORD PTR [rcx+rdx*8]
   1bb92:	66 0f 2f c2          	comisd xmm0,xmm2
   1bb96:	0f 86 b4 04 00 00    	jbe    1c050 <_dtoa_r+0x6a0>
   1bb9c:	c7 44 24 50 00 00 00 	mov    DWORD PTR [rsp+0x50],0x0
   1bba3:	00 
   1bba4:	41 83 e8 01          	sub    r8d,0x1
   1bba8:	31 db                	xor    ebx,ebx
   1bbaa:	45 85 e4             	test   r12d,r12d
   1bbad:	0f 88 10 05 00 00    	js     1c0c3 <_dtoa_r+0x713>
   1bbb3:	0f 1f 44 00 00       	nop    DWORD PTR [rax+rax*1+0x0]
   1bbb8:	45 85 c0             	test   r8d,r8d
   1bbbb:	0f 89 9e 04 00 00    	jns    1c05f <_dtoa_r+0x6af>
   1bbc1:	8b 04 24             	mov    eax,DWORD PTR [rsp]
   1bbc4:	44 89 c5             	mov    ebp,r8d
   1bbc7:	44 89 44 24 30       	mov    DWORD PTR [rsp+0x30],r8d
   1bbcc:	44 29 c3             	sub    ebx,r8d
   1bbcf:	f7 dd                	neg    ebp
   1bbd1:	45 31 c0             	xor    r8d,r8d
   1bbd4:	41 b9 01 00 00 00    	mov    r9d,0x1
   1bbda:	83 f8 09             	cmp    eax,0x9
   1bbdd:	0f 87 98 04 00 00    	ja     1c07b <_dtoa_r+0x6cb>
   1bbe3:	83 f8 05             	cmp    eax,0x5
   1bbe6:	7e 09                	jle    1bbf1 <_dtoa_r+0x241>
   1bbe8:	83 e8 04             	sub    eax,0x4
   1bbeb:	45 31 c9             	xor    r9d,r9d
   1bbee:	89 04 24             	mov    DWORD PTR [rsp],eax
   1bbf1:	83 3c 24 03          	cmp    DWORD PTR [rsp],0x3
   1bbf5:	0f 84 15 0d 00 00    	je     1c910 <_dtoa_r+0xf60>
   1bbfb:	0f 8e d7 04 00 00    	jle    1c0d8 <_dtoa_r+0x728>
   1bc01:	83 3c 24 04          	cmp    DWORD PTR [rsp],0x4
   1bc05:	c7 44 24 34 01 00 00 	mov    DWORD PTR [rsp+0x34],0x1
   1bc0c:	00 
   1bc0d:	0f 84 d7 04 00 00    	je     1c0ea <_dtoa_r+0x73a>
   1bc13:	8b 44 24 30          	mov    eax,DWORD PTR [rsp+0x30]
   1bc17:	44 01 e8             	add    eax,r13d
   1bc1a:	8d 78 01             	lea    edi,[rax+0x1]
   1bc1d:	89 44 24 58          	mov    DWORD PTR [rsp+0x58],eax
   1bc21:	b8 01 00 00 00       	mov    eax,0x1
   1bc26:	85 ff                	test   edi,edi
   1bc28:	89 7c 24 28          	mov    DWORD PTR [rsp+0x28],edi
   1bc2c:	0f 4f c7             	cmovg  eax,edi
   1bc2f:	41 c7 47 58 00 00 00 	mov    DWORD PTR [r15+0x58],0x0
   1bc36:	00 
   1bc37:	48 63 f8             	movsxd rdi,eax
   1bc3a:	83 f8 1f             	cmp    eax,0x1f
   1bc3d:	0f 8e d3 11 00 00    	jle    1ce16 <_dtoa_r+0x1466>
   1bc43:	b9 01 00 00 00       	mov    ecx,0x1
   1bc48:	ba 04 00 00 00       	mov    edx,0x4
   1bc4d:	0f 1f 00             	nop    DWORD PTR [rax]
   1bc50:	01 d2                	add    edx,edx
   1bc52:	89 ce                	mov    esi,ecx
   1bc54:	8d 49 01             	lea    ecx,[rcx+0x1]
   1bc57:	48 63 c2             	movsxd rax,edx
   1bc5a:	48 83 c0 1c          	add    rax,0x1c
   1bc5e:	48 39 f8             	cmp    rax,rdi
   1bc61:	76 ed                	jbe    1bc50 <_dtoa_r+0x2a0>
   1bc63:	41 89 77 58          	mov    DWORD PTR [r15+0x58],esi
   1bc67:	4c 89 ff             	mov    rdi,r15
   1bc6a:	44 89 44 24 40       	mov    DWORD PTR [rsp+0x40],r8d
   1bc6f:	44 89 4c 24 38       	mov    DWORD PTR [rsp+0x38],r9d
   1bc74:	f2 0f 11 54 24 48    	movsd  QWORD PTR [rsp+0x48],xmm2
   1bc7a:	e8 d1 11 00 00       	call   1ce50 <_Balloc>
   1bc7f:	44 8b 4c 24 38       	mov    r9d,DWORD PTR [rsp+0x38]
   1bc84:	44 8b 44 24 40       	mov    r8d,DWORD PTR [rsp+0x40]
   1bc89:	48 85 c0             	test   rax,rax
   1bc8c:	48 89 44 24 10       	mov    QWORD PTR [rsp+0x10],rax
   1bc91:	f2 0f 10 54 24 48    	movsd  xmm2,QWORD PTR [rsp+0x48]
   1bc97:	0f 84 5f 11 00 00    	je     1cdfc <_dtoa_r+0x144c>
   1bc9d:	48 8b 44 24 10       	mov    rax,QWORD PTR [rsp+0x10]
   1bca2:	49 89 47 50          	mov    QWORD PTR [r15+0x50],rax
   1bca6:	8b 44 24 28          	mov    eax,DWORD PTR [rsp+0x28]
   1bcaa:	83 f8 0e             	cmp    eax,0xe
   1bcad:	41 89 c3             	mov    r11d,eax
   1bcb0:	0f 96 c0             	setbe  al
   1bcb3:	44 20 c8             	and    al,r9b
   1bcb6:	0f 84 04 03 00 00    	je     1bfc0 <_dtoa_r+0x610>
   1bcbc:	8b 7c 24 30          	mov    edi,DWORD PTR [rsp+0x30]
   1bcc0:	85 ff                	test   edi,edi
   1bcc2:	0f 8e a8 07 00 00    	jle    1c470 <_dtoa_r+0xac0>
   1bcc8:	89 fa                	mov    edx,edi
   1bcca:	48 8d 05 af 4e ff ff 	lea    rax,[rip+0xffffffffffff4eaf]        # 10b80 <__mprec_tens>
   1bcd1:	83 e2 0f             	and    edx,0xf
   1bcd4:	f2 0f 10 0c d0       	movsd  xmm1,QWORD PTR [rax+rdx*8]
   1bcd9:	89 f8                	mov    eax,edi
   1bcdb:	c1 f8 04             	sar    eax,0x4
   1bcde:	81 e7 00 01 00 00    	and    edi,0x100
   1bce4:	0f 84 36 09 00 00    	je     1c620 <_dtoa_r+0xc70>
   1bcea:	83 e0 0f             	and    eax,0xf
   1bced:	ba 03 00 00 00       	mov    edx,0x3
   1bcf2:	66 0f 28 c2          	movapd xmm0,xmm2
   1bcf6:	f2 0f 5e 05 62 4e ff 	divsd  xmm0,QWORD PTR [rip+0xffffffffffff4e62]        # 10b60 <__mprec_bigtens+0x20>
   1bcfd:	ff 
   1bcfe:	85 c0                	test   eax,eax
   1bd00:	74 21                	je     1bd23 <_dtoa_r+0x373>
   1bd02:	48 8d 0d 37 4e ff ff 	lea    rcx,[rip+0xffffffffffff4e37]        # 10b40 <__mprec_bigtens>
   1bd09:	0f 1f 80 00 00 00 00 	nop    DWORD PTR [rax+0x0]
   1bd10:	a8 01                	test   al,0x1
   1bd12:	74 07                	je     1bd1b <_dtoa_r+0x36b>
   1bd14:	f2 0f 59 09          	mulsd  xmm1,QWORD PTR [rcx]
   1bd18:	83 c2 01             	add    edx,0x1
   1bd1b:	48 83 c1 08          	add    rcx,0x8
   1bd1f:	d1 f8                	sar    eax,1
   1bd21:	75 ed                	jne    1bd10 <_dtoa_r+0x360>
   1bd23:	f2 0f 5e c1          	divsd  xmm0,xmm1
   1bd27:	8b 44 24 50          	mov    eax,DWORD PTR [rsp+0x50]
   1bd2b:	85 c0                	test   eax,eax
   1bd2d:	74 12                	je     1bd41 <_dtoa_r+0x391>
   1bd2f:	f2 0f 10 2d 61 47 ff 	movsd  xmm5,QWORD PTR [rip+0xffffffffffff4761]        # 10498 <zeroes.0-0x1a8>
   1bd36:	ff 
   1bd37:	66 0f 2f e8          	comisd xmm5,xmm0
   1bd3b:	0f 87 0f 0c 00 00    	ja     1c950 <_dtoa_r+0xfa0>
   1bd41:	66 0f ef c9          	pxor   xmm1,xmm1
   1bd45:	f2 0f 2a ca          	cvtsi2sd xmm1,edx
   1bd49:	f2 0f 59 c8          	mulsd  xmm1,xmm0
   1bd4d:	f2 0f 58 0d 4b 47 ff 	addsd  xmm1,QWORD PTR [rip+0xffffffffffff474b]        # 104a0 <zeroes.0-0x1a0>
   1bd54:	ff 
   1bd55:	66 48 0f 7e c8       	movq   rax,xmm1
   1bd5a:	66 48 0f 7e ca       	movq   rdx,xmm1
   1bd5f:	48 c1 e8 20          	shr    rax,0x20
   1bd63:	89 d2                	mov    edx,edx
   1bd65:	2d 00 00 40 03       	sub    eax,0x3400000
   1bd6a:	48 c1 e0 20          	shl    rax,0x20
   1bd6e:	48 09 c2             	or     rdx,rax
   1bd71:	8b 44 24 28          	mov    eax,DWORD PTR [rsp+0x28]
   1bd75:	85 c0                	test   eax,eax
   1bd77:	0f 84 14 02 00 00    	je     1bf91 <_dtoa_r+0x5e1>
   1bd7d:	44 8b 4c 24 30       	mov    r9d,DWORD PTR [rsp+0x30]
   1bd82:	8b 44 24 28          	mov    eax,DWORD PTR [rsp+0x28]
   1bd86:	f2 0f 2c c8          	cvttsd2si ecx,xmm0
   1bd8a:	66 0f ef c9          	pxor   xmm1,xmm1
   1bd8e:	66 48 0f 6e da       	movq   xmm3,rdx
   1bd93:	44 8b 54 24 34       	mov    r10d,DWORD PTR [rsp+0x34]
   1bd98:	8d 50 ff             	lea    edx,[rax-0x1]
   1bd9b:	48 8d 3d de 4d ff ff 	lea    rdi,[rip+0xffffffffffff4dde]        # 10b80 <__mprec_tens>
   1bda2:	48 63 d2             	movsxd rdx,edx
   1bda5:	f2 0f 10 24 d7       	movsd  xmm4,QWORD PTR [rdi+rdx*8]
   1bdaa:	48 8b 7c 24 10       	mov    rdi,QWORD PTR [rsp+0x10]
   1bdaf:	f2 0f 2a c9          	cvtsi2sd xmm1,ecx
   1bdb3:	8d 71 30             	lea    esi,[rcx+0x30]
   1bdb6:	48 8d 4f 01          	lea    rcx,[rdi+0x1]
   1bdba:	f2 0f 5c c1          	subsd  xmm0,xmm1
   1bdbe:	45 85 d2             	test   r10d,r10d
   1bdc1:	0f 84 69 08 00 00    	je     1c630 <_dtoa_r+0xc80>
   1bdc7:	f2 0f 10 0d e1 46 ff 	movsd  xmm1,QWORD PTR [rip+0xffffffffffff46e1]        # 104b0 <zeroes.0-0x190>
   1bdce:	ff 
   1bdcf:	40 88 37             	mov    BYTE PTR [rdi],sil
   1bdd2:	f2 0f 5e cc          	divsd  xmm1,xmm4
   1bdd6:	f2 0f 5c cb          	subsd  xmm1,xmm3
   1bdda:	66 0f 2f c8          	comisd xmm1,xmm0
   1bdde:	0f 87 a0 0f 00 00    	ja     1cd84 <_dtoa_r+0x13d4>
   1bde4:	be 01 00 00 00       	mov    esi,0x1
   1bde9:	f2 0f 10 2d a7 46 ff 	movsd  xmm5,QWORD PTR [rip+0xffffffffffff46a7]        # 10498 <zeroes.0-0x1a8>
   1bdf0:	ff 
   1bdf1:	f2 0f 10 25 7f 46 ff 	movsd  xmm4,QWORD PTR [rip+0xffffffffffff467f]        # 10478 <zeroes.0-0x1c8>
   1bdf8:	ff 
   1bdf9:	48 89 ca             	mov    rdx,rcx
   1bdfc:	29 ce                	sub    esi,ecx
   1bdfe:	eb 37                	jmp    1be37 <_dtoa_r+0x487>
   1be00:	8d 0c 16             	lea    ecx,[rsi+rdx*1]
   1be03:	39 c1                	cmp    ecx,eax
   1be05:	0f 8d af 01 00 00    	jge    1bfba <_dtoa_r+0x60a>
   1be0b:	f2 0f 59 c4          	mulsd  xmm0,xmm4
   1be0f:	66 0f ef db          	pxor   xmm3,xmm3
   1be13:	48 83 c2 01          	add    rdx,0x1
   1be17:	f2 0f 59 cc          	mulsd  xmm1,xmm4
   1be1b:	f2 0f 2c c8          	cvttsd2si ecx,xmm0
   1be1f:	f2 0f 2a d9          	cvtsi2sd xmm3,ecx
   1be23:	83 c1 30             	add    ecx,0x30
   1be26:	88 4a ff             	mov    BYTE PTR [rdx-0x1],cl
   1be29:	f2 0f 5c c3          	subsd  xmm0,xmm3
   1be2d:	66 0f 2f c8          	comisd xmm1,xmm0
   1be31:	0f 87 bc 0d 00 00    	ja     1cbf3 <_dtoa_r+0x1243>
   1be37:	66 0f 28 dd          	movapd xmm3,xmm5
   1be3b:	f2 0f 5c d8          	subsd  xmm3,xmm0
   1be3f:	66 0f 2f cb          	comisd xmm1,xmm3
   1be43:	76 bb                	jbe    1be00 <_dtoa_r+0x450>
   1be45:	48 8b 74 24 10       	mov    rsi,QWORD PTR [rsp+0x10]
   1be4a:	eb 0d                	jmp    1be59 <_dtoa_r+0x4a9>
   1be4c:	0f 1f 40 00          	nop    DWORD PTR [rax+0x0]
   1be50:	48 39 d6             	cmp    rsi,rdx
   1be53:	0f 84 a8 0c 00 00    	je     1cb01 <_dtoa_r+0x1151>
   1be59:	48 89 d1             	mov    rcx,rdx
   1be5c:	0f b6 42 ff          	movzx  eax,BYTE PTR [rdx-0x1]
   1be60:	48 83 ea 01          	sub    rdx,0x1
   1be64:	3c 39                	cmp    al,0x39
   1be66:	74 e8                	je     1be50 <_dtoa_r+0x4a0>
   1be68:	48 89 74 24 10       	mov    QWORD PTR [rsp+0x10],rsi
   1be6d:	83 c0 01             	add    eax,0x1
   1be70:	4c 8b 64 24 10       	mov    r12,QWORD PTR [rsp+0x10]
   1be75:	88 02                	mov    BYTE PTR [rdx],al
   1be77:	41 8d 59 01          	lea    ebx,[r9+0x1]
   1be7b:	48 89 4c 24 10       	mov    QWORD PTR [rsp+0x10],rcx
   1be80:	e9 0c 04 00 00       	jmp    1c291 <_dtoa_r+0x8e1>
   1be85:	0f 1f 00             	nop    DWORD PTR [rax]
   1be88:	81 e5 ff ff ff 7f    	and    ebp,0x7fffffff
   1be8e:	8b 54 24 08          	mov    edx,DWORD PTR [rsp+0x8]
   1be92:	41 c7 04 24 01 00 00 	mov    DWORD PTR [r12],0x1
   1be99:	00 
   1be9a:	48 89 e8             	mov    rax,rbp
   1be9d:	48 c1 e0 20          	shl    rax,0x20
   1bea1:	48 09 c2             	or     rdx,rax
   1bea4:	89 e8                	mov    eax,ebp
   1bea6:	25 00 00 f0 7f       	and    eax,0x7ff00000
   1beab:	48 89 54 24 08       	mov    QWORD PTR [rsp+0x8],rdx
   1beb0:	66 48 0f 6e d2       	movq   xmm2,rdx
   1beb5:	3d 00 00 f0 7f       	cmp    eax,0x7ff00000
   1beba:	0f 85 89 fb ff ff    	jne    1ba49 <_dtoa_r+0x99>
   1bec0:	48 8b 44 24 20       	mov    rax,QWORD PTR [rsp+0x20]
   1bec5:	66 48 0f 7e d3       	movq   rbx,xmm2
   1beca:	c7 00 0f 27 00 00    	mov    DWORD PTR [rax],0x270f
   1bed0:	48 b8 ff ff ff ff ff 	movabs rax,0xfffffffffffff
   1bed7:	ff 0f 00 
   1beda:	48 85 c3             	test   rbx,rax
   1bedd:	74 69                	je     1bf48 <_dtoa_r+0x598>
   1bedf:	4c 8d 25 63 44 ff ff 	lea    r12,[rip+0xffffffffffff4463]        # 10349 <zeroes.0-0x2f7>
   1bee6:	48 83 7c 24 18 00    	cmp    QWORD PTR [rsp+0x18],0x0
   1beec:	49 8d 44 24 03       	lea    rax,[r12+0x3]
   1bef1:	0f 84 82 fb ff ff    	je     1ba79 <_dtoa_r+0xc9>
   1bef7:	48 8b 5c 24 18       	mov    rbx,QWORD PTR [rsp+0x18]
   1befc:	48 89 03             	mov    QWORD PTR [rbx],rax
   1beff:	e9 75 fb ff ff       	jmp    1ba79 <_dtoa_r+0xc9>
   1bf04:	0f 1f 40 00          	nop    DWORD PTR [rax+0x0]
   1bf08:	66 48 0f 7e d0       	movq   rax,xmm2
   1bf0d:	66 48 0f 7e d1       	movq   rcx,xmm2
   1bf12:	c7 44 24 54 00 00 00 	mov    DWORD PTR [rsp+0x54],0x0
   1bf19:	00 
   1bf1a:	81 ea ff 03 00 00    	sub    edx,0x3ff
   1bf20:	48 c1 e8 20          	shr    rax,0x20
   1bf24:	89 c9                	mov    ecx,ecx
   1bf26:	25 ff ff 0f 00       	and    eax,0xfffff
   1bf2b:	48 0d 00 00 f0 3f    	or     rax,0x3ff00000
   1bf31:	48 c1 e0 20          	shl    rax,0x20
   1bf35:	48 09 c1             	or     rcx,rax
   1bf38:	8b 44 24 60          	mov    eax,DWORD PTR [rsp+0x60]
   1bf3c:	e9 ee fb ff ff       	jmp    1bb2f <_dtoa_r+0x17f>
   1bf41:	0f 1f 80 00 00 00 00 	nop    DWORD PTR [rax+0x0]
   1bf48:	4c 8d 25 54 42 ff ff 	lea    r12,[rip+0xffffffffffff4254]        # 101a3 <zeroes.0-0x49d>
   1bf4f:	48 83 7c 24 18 00    	cmp    QWORD PTR [rsp+0x18],0x0
   1bf55:	49 8d 44 24 08       	lea    rax,[r12+0x8]
   1bf5a:	75 9b                	jne    1bef7 <_dtoa_r+0x547>
   1bf5c:	e9 18 fb ff ff       	jmp    1ba79 <_dtoa_r+0xc9>
   1bf61:	66 0f ef c9          	pxor   xmm1,xmm1
   1bf65:	f2 0f 2a ca          	cvtsi2sd xmm1,edx
   1bf69:	f2 0f 59 c8          	mulsd  xmm1,xmm0
   1bf6d:	f2 0f 58 0d 2b 45 ff 	addsd  xmm1,QWORD PTR [rip+0xffffffffffff452b]        # 104a0 <zeroes.0-0x1a0>
   1bf74:	ff 
   1bf75:	66 48 0f 7e c8       	movq   rax,xmm1
   1bf7a:	66 48 0f 7e ca       	movq   rdx,xmm1
   1bf7f:	48 c1 e8 20          	shr    rax,0x20
   1bf83:	89 d2                	mov    edx,edx
   1bf85:	2d 00 00 40 03       	sub    eax,0x3400000
   1bf8a:	48 c1 e0 20          	shl    rax,0x20
   1bf8e:	48 09 c2             	or     rdx,rax
   1bf91:	f2 0f 5c 05 e7 44 ff 	subsd  xmm0,QWORD PTR [rip+0xffffffffffff44e7]        # 10480 <zeroes.0-0x1c0>
   1bf98:	ff 
   1bf99:	66 48 0f 6e ca       	movq   xmm1,rdx
   1bf9e:	66 0f 2f c1          	comisd xmm0,xmm1
   1bfa2:	0f 87 39 0a 00 00    	ja     1c9e1 <_dtoa_r+0x1031>
   1bfa8:	66 0f 57 0d d0 46 ff 	xorpd  xmm1,XMMWORD PTR [rip+0xffffffffffff46d0]        # 10680 <blanks.1+0x30>
   1bfaf:	ff 
   1bfb0:	66 0f 2f c8          	comisd xmm1,xmm0
   1bfb4:	0f 87 d6 08 00 00    	ja     1c890 <_dtoa_r+0xee0>
   1bfba:	66 0f d6 54 24 08    	movq   QWORD PTR [rsp+0x8],xmm2
   1bfc0:	8b 44 24 64          	mov    eax,DWORD PTR [rsp+0x64]
   1bfc4:	85 c0                	test   eax,eax
   1bfc6:	78 0d                	js     1bfd5 <_dtoa_r+0x625>
   1bfc8:	8b 7c 24 30          	mov    edi,DWORD PTR [rsp+0x30]
   1bfcc:	83 ff 0e             	cmp    edi,0xe
   1bfcf:	0f 8e 0b 05 00 00    	jle    1c4e0 <_dtoa_r+0xb30>
   1bfd5:	8b 4c 24 34          	mov    ecx,DWORD PTR [rsp+0x34]
   1bfd9:	85 c9                	test   ecx,ecx
   1bfdb:	0f 84 5f 01 00 00    	je     1c140 <_dtoa_r+0x790>
   1bfe1:	83 3c 24 01          	cmp    DWORD PTR [rsp],0x1
   1bfe5:	0f 8e d5 09 00 00    	jle    1c9c0 <_dtoa_r+0x1010>
   1bfeb:	8b 44 24 28          	mov    eax,DWORD PTR [rsp+0x28]
   1bfef:	83 e8 01             	sub    eax,0x1
   1bff2:	39 c5                	cmp    ebp,eax
   1bff4:	0f 8d a6 08 00 00    	jge    1c8a0 <_dtoa_r+0xef0>
   1bffa:	89 c2                	mov    edx,eax
   1bffc:	31 c9                	xor    ecx,ecx
   1bffe:	29 ea                	sub    edx,ebp
   1c000:	89 c5                	mov    ebp,eax
   1c002:	41 01 d0             	add    r8d,edx
   1c005:	8b 44 24 28          	mov    eax,DWORD PTR [rsp+0x28]
   1c009:	89 df                	mov    edi,ebx
   1c00b:	29 c7                	sub    edi,eax
   1c00d:	89 7c 24 40          	mov    DWORD PTR [rsp+0x40],edi
   1c011:	85 c0                	test   eax,eax
   1c013:	78 09                	js     1c01e <_dtoa_r+0x66e>
   1c015:	89 5c 24 40          	mov    DWORD PTR [rsp+0x40],ebx
   1c019:	41 01 c4             	add    r12d,eax
   1c01c:	01 c3                	add    ebx,eax
   1c01e:	be 01 00 00 00       	mov    esi,0x1
   1c023:	4c 89 ff             	mov    rdi,r15
   1c026:	89 4c 24 54          	mov    DWORD PTR [rsp+0x54],ecx
   1c02a:	44 89 44 24 48       	mov    DWORD PTR [rsp+0x48],r8d
   1c02f:	e8 1c 12 00 00       	call   1d250 <__i2b>
   1c034:	44 8b 44 24 48       	mov    r8d,DWORD PTR [rsp+0x48]
   1c039:	8b 4c 24 54          	mov    ecx,DWORD PTR [rsp+0x54]
   1c03d:	48 89 44 24 38       	mov    QWORD PTR [rsp+0x38],rax
   1c042:	e9 08 01 00 00       	jmp    1c14f <_dtoa_r+0x79f>
   1c047:	66 0f 1f 84 00 00 00 	nop    WORD PTR [rax+rax*1+0x0]
   1c04e:	00 00 
   1c050:	c7 44 24 50 00 00 00 	mov    DWORD PTR [rsp+0x50],0x0
   1c057:	00 
   1c058:	31 db                	xor    ebx,ebx
   1c05a:	45 85 e4             	test   r12d,r12d
   1c05d:	78 64                	js     1c0c3 <_dtoa_r+0x713>
   1c05f:	8b 04 24             	mov    eax,DWORD PTR [rsp]
   1c062:	44 89 44 24 30       	mov    DWORD PTR [rsp+0x30],r8d
   1c067:	45 01 c4             	add    r12d,r8d
   1c06a:	31 ed                	xor    ebp,ebp
   1c06c:	41 b9 01 00 00 00    	mov    r9d,0x1
   1c072:	83 f8 09             	cmp    eax,0x9
   1c075:	0f 86 68 fb ff ff    	jbe    1bbe3 <_dtoa_r+0x233>
   1c07b:	c7 04 24 00 00 00 00 	mov    DWORD PTR [rsp],0x0
   1c082:	45 31 ed             	xor    r13d,r13d
   1c085:	c7 44 24 34 01 00 00 	mov    DWORD PTR [rsp+0x34],0x1
   1c08c:	00 
   1c08d:	c7 44 24 28 ff ff ff 	mov    DWORD PTR [rsp+0x28],0xffffffff
   1c094:	ff 
   1c095:	8b 44 24 28          	mov    eax,DWORD PTR [rsp+0x28]
   1c099:	41 c7 47 58 00 00 00 	mov    DWORD PTR [r15+0x58],0x0
   1c0a0:	00 
   1c0a1:	31 f6                	xor    esi,esi
   1c0a3:	89 44 24 58          	mov    DWORD PTR [rsp+0x58],eax
   1c0a7:	e9 bb fb ff ff       	jmp    1bc67 <_dtoa_r+0x2b7>
   1c0ac:	0f 1f 40 00          	nop    DWORD PTR [rax+0x0]
   1c0b0:	c7 44 24 50 01 00 00 	mov    DWORD PTR [rsp+0x50],0x1
   1c0b7:	00 
   1c0b8:	31 db                	xor    ebx,ebx
   1c0ba:	45 85 e4             	test   r12d,r12d
   1c0bd:	0f 89 f5 fa ff ff    	jns    1bbb8 <_dtoa_r+0x208>
   1c0c3:	bb 01 00 00 00       	mov    ebx,0x1
   1c0c8:	45 31 e4             	xor    r12d,r12d
   1c0cb:	29 c3                	sub    ebx,eax
   1c0cd:	e9 e6 fa ff ff       	jmp    1bbb8 <_dtoa_r+0x208>
   1c0d2:	66 0f 1f 44 00 00    	nop    WORD PTR [rax+rax*1+0x0]
   1c0d8:	83 3c 24 02          	cmp    DWORD PTR [rsp],0x2
   1c0dc:	0f 85 b8 0c 00 00    	jne    1cd9a <_dtoa_r+0x13ea>
   1c0e2:	c7 44 24 34 00 00 00 	mov    DWORD PTR [rsp+0x34],0x0
   1c0e9:	00 
   1c0ea:	45 85 ed             	test   r13d,r13d
   1c0ed:	0f 8e 8d 04 00 00    	jle    1c580 <_dtoa_r+0xbd0>
   1c0f3:	44 89 6c 24 58       	mov    DWORD PTR [rsp+0x58],r13d
   1c0f8:	44 89 e8             	mov    eax,r13d
   1c0fb:	44 89 6c 24 28       	mov    DWORD PTR [rsp+0x28],r13d
   1c100:	e9 2a fb ff ff       	jmp    1bc2f <_dtoa_r+0x27f>
   1c105:	0f 1f 00             	nop    DWORD PTR [rax]
   1c108:	66 0f ef c9          	pxor   xmm1,xmm1
   1c10c:	f2 41 0f 2a c8       	cvtsi2sd xmm1,r8d
   1c111:	66 0f 2e c8          	ucomisd xmm1,xmm0
   1c115:	7a 06                	jp     1c11d <_dtoa_r+0x76d>
   1c117:	0f 84 56 fa ff ff    	je     1bb73 <_dtoa_r+0x1c3>
   1c11d:	41 83 e8 01          	sub    r8d,0x1
   1c121:	e9 4d fa ff ff       	jmp    1bb73 <_dtoa_r+0x1c3>
   1c126:	66 2e 0f 1f 84 00 00 	cs nop WORD PTR [rax+rax*1+0x0]
   1c12d:	00 00 00 
   1c130:	b9 20 00 00 00       	mov    ecx,0x20
   1c135:	29 f1                	sub    ecx,esi
   1c137:	d3 e3                	shl    ebx,cl
   1c139:	e9 be f9 ff ff       	jmp    1bafc <_dtoa_r+0x14c>
   1c13e:	66 90                	xchg   ax,ax
   1c140:	89 5c 24 40          	mov    DWORD PTR [rsp+0x40],ebx
   1c144:	89 e9                	mov    ecx,ebp
   1c146:	48 c7 44 24 38 00 00 	mov    QWORD PTR [rsp+0x38],0x0
   1c14d:	00 00 
   1c14f:	8b 7c 24 40          	mov    edi,DWORD PTR [rsp+0x40]
   1c153:	85 ff                	test   edi,edi
   1c155:	7e 19                	jle    1c170 <_dtoa_r+0x7c0>
   1c157:	45 85 e4             	test   r12d,r12d
   1c15a:	7e 14                	jle    1c170 <_dtoa_r+0x7c0>
   1c15c:	44 39 e7             	cmp    edi,r12d
   1c15f:	89 f8                	mov    eax,edi
   1c161:	41 0f 4f c4          	cmovg  eax,r12d
   1c165:	29 c7                	sub    edi,eax
   1c167:	29 c3                	sub    ebx,eax
   1c169:	41 29 c4             	sub    r12d,eax
   1c16c:	89 7c 24 40          	mov    DWORD PTR [rsp+0x40],edi
   1c170:	85 ed                	test   ebp,ebp
   1c172:	74 1e                	je     1c192 <_dtoa_r+0x7e2>
   1c174:	44 8b 5c 24 34       	mov    r11d,DWORD PTR [rsp+0x34]
   1c179:	45 85 db             	test   r11d,r11d
   1c17c:	0f 84 46 01 00 00    	je     1c2c8 <_dtoa_r+0x918>
   1c182:	85 c9                	test   ecx,ecx
   1c184:	0f 8f 1f 07 00 00    	jg     1c8a9 <_dtoa_r+0xef9>
   1c18a:	29 cd                	sub    ebp,ecx
   1c18c:	0f 85 36 01 00 00    	jne    1c2c8 <_dtoa_r+0x918>
   1c192:	be 01 00 00 00       	mov    esi,0x1
   1c197:	4c 89 ff             	mov    rdi,r15
   1c19a:	44 89 44 24 48       	mov    DWORD PTR [rsp+0x48],r8d
   1c19f:	e8 ac 10 00 00       	call   1d250 <__i2b>
   1c1a4:	44 8b 44 24 48       	mov    r8d,DWORD PTR [rsp+0x48]
   1c1a9:	48 89 c5             	mov    rbp,rax
   1c1ac:	45 85 c0             	test   r8d,r8d
   1c1af:	0f 8f 7b 03 00 00    	jg     1c530 <_dtoa_r+0xb80>
   1c1b5:	83 3c 24 01          	cmp    DWORD PTR [rsp],0x1
   1c1b9:	c7 44 24 48 00 00 00 	mov    DWORD PTR [rsp+0x48],0x0
   1c1c0:	00 
   1c1c1:	0f 8e 59 07 00 00    	jle    1c920 <_dtoa_r+0xf70>
   1c1c7:	45 85 c0             	test   r8d,r8d
   1c1ca:	0f 85 88 03 00 00    	jne    1c558 <_dtoa_r+0xba8>
   1c1d0:	b8 01 00 00 00       	mov    eax,0x1
   1c1d5:	44 01 e0             	add    eax,r12d
   1c1d8:	ba 1c 00 00 00       	mov    edx,0x1c
   1c1dd:	83 e0 1f             	and    eax,0x1f
   1c1e0:	0f 84 27 04 00 00    	je     1c60d <_dtoa_r+0xc5d>
   1c1e6:	ba 20 00 00 00       	mov    edx,0x20
   1c1eb:	29 c2                	sub    edx,eax
   1c1ed:	83 fa 04             	cmp    edx,0x4
   1c1f0:	0f 8e 0a 04 00 00    	jle    1c600 <_dtoa_r+0xc50>
   1c1f6:	ba 1c 00 00 00       	mov    edx,0x1c
   1c1fb:	29 c2                	sub    edx,eax
   1c1fd:	01 54 24 40          	add    DWORD PTR [rsp+0x40],edx
   1c201:	01 d3                	add    ebx,edx
   1c203:	41 01 d4             	add    r12d,edx
   1c206:	85 db                	test   ebx,ebx
   1c208:	7e 10                	jle    1c21a <_dtoa_r+0x86a>
   1c20a:	4c 89 f6             	mov    rsi,r14
   1c20d:	89 da                	mov    edx,ebx
   1c20f:	4c 89 ff             	mov    rdi,r15
   1c212:	e8 69 14 00 00       	call   1d680 <__lshift>
   1c217:	49 89 c6             	mov    r14,rax
   1c21a:	45 85 e4             	test   r12d,r12d
   1c21d:	7e 11                	jle    1c230 <_dtoa_r+0x880>
   1c21f:	48 89 ee             	mov    rsi,rbp
   1c222:	44 89 e2             	mov    edx,r12d
   1c225:	4c 89 ff             	mov    rdi,r15
   1c228:	e8 53 14 00 00       	call   1d680 <__lshift>
   1c22d:	48 89 c5             	mov    rbp,rax
   1c230:	44 8b 54 24 50       	mov    r10d,DWORD PTR [rsp+0x50]
   1c235:	83 3c 24 02          	cmp    DWORD PTR [rsp],0x2
   1c239:	0f 9f c3             	setg   bl
   1c23c:	45 85 d2             	test   r10d,r10d
   1c23f:	0f 85 53 03 00 00    	jne    1c598 <_dtoa_r+0xbe8>
   1c245:	8b 7c 24 28          	mov    edi,DWORD PTR [rsp+0x28]
   1c249:	85 ff                	test   edi,edi
   1c24b:	0f 8f 9f 00 00 00    	jg     1c2f0 <_dtoa_r+0x940>
   1c251:	84 db                	test   bl,bl
   1c253:	0f 84 97 00 00 00    	je     1c2f0 <_dtoa_r+0x940>
   1c259:	8b 74 24 28          	mov    esi,DWORD PTR [rsp+0x28]
   1c25d:	85 f6                	test   esi,esi
   1c25f:	0f 84 6b 04 00 00    	je     1c6d0 <_dtoa_r+0xd20>
   1c265:	4c 8b 64 24 10       	mov    r12,QWORD PTR [rsp+0x10]
   1c26a:	41 f7 d5             	not    r13d
   1c26d:	48 89 ee             	mov    rsi,rbp
   1c270:	4c 89 ff             	mov    rdi,r15
   1c273:	41 8d 5d 01          	lea    ebx,[r13+0x1]
   1c277:	e8 74 0c 00 00       	call   1cef0 <_Bfree>
   1c27c:	48 83 7c 24 38 00    	cmp    QWORD PTR [rsp+0x38],0x0
   1c282:	74 0d                	je     1c291 <_dtoa_r+0x8e1>
   1c284:	48 8b 74 24 38       	mov    rsi,QWORD PTR [rsp+0x38]
   1c289:	4c 89 ff             	mov    rdi,r15
   1c28c:	e8 5f 0c 00 00       	call   1cef0 <_Bfree>
   1c291:	4c 89 ff             	mov    rdi,r15
   1c294:	4c 89 f6             	mov    rsi,r14
   1c297:	e8 54 0c 00 00       	call   1cef0 <_Bfree>
   1c29c:	48 8b 44 24 10       	mov    rax,QWORD PTR [rsp+0x10]
   1c2a1:	48 8b 7c 24 20       	mov    rdi,QWORD PTR [rsp+0x20]
   1c2a6:	c6 00 00             	mov    BYTE PTR [rax],0x0
   1c2a9:	89 1f                	mov    DWORD PTR [rdi],ebx
   1c2ab:	48 8b 5c 24 18       	mov    rbx,QWORD PTR [rsp+0x18]
   1c2b0:	48 85 db             	test   rbx,rbx
   1c2b3:	0f 84 c0 f7 ff ff    	je     1ba79 <_dtoa_r+0xc9>
   1c2b9:	48 89 03             	mov    QWORD PTR [rbx],rax
   1c2bc:	e9 b8 f7 ff ff       	jmp    1ba79 <_dtoa_r+0xc9>
   1c2c1:	0f 1f 80 00 00 00 00 	nop    DWORD PTR [rax+0x0]
   1c2c8:	4c 89 f6             	mov    rsi,r14
   1c2cb:	89 ea                	mov    edx,ebp
   1c2cd:	4c 89 ff             	mov    rdi,r15
   1c2d0:	44 89 44 24 48       	mov    DWORD PTR [rsp+0x48],r8d
   1c2d5:	e8 76 12 00 00       	call   1d550 <__pow5mult>
   1c2da:	44 8b 44 24 48       	mov    r8d,DWORD PTR [rsp+0x48]
   1c2df:	49 89 c6             	mov    r14,rax
   1c2e2:	e9 ab fe ff ff       	jmp    1c192 <_dtoa_r+0x7e2>
   1c2e7:	66 0f 1f 84 00 00 00 	nop    WORD PTR [rax+rax*1+0x0]
   1c2ee:	00 00 
   1c2f0:	8b 4c 24 34          	mov    ecx,DWORD PTR [rsp+0x34]
   1c2f4:	85 c9                	test   ecx,ecx
   1c2f6:	0f 84 24 04 00 00    	je     1c720 <_dtoa_r+0xd70>
   1c2fc:	8b 44 24 40          	mov    eax,DWORD PTR [rsp+0x40]
   1c300:	85 c0                	test   eax,eax
   1c302:	7e 14                	jle    1c318 <_dtoa_r+0x968>
   1c304:	48 8b 74 24 38       	mov    rsi,QWORD PTR [rsp+0x38]
   1c309:	89 c2                	mov    edx,eax
   1c30b:	4c 89 ff             	mov    rdi,r15
   1c30e:	e8 6d 13 00 00       	call   1d680 <__lshift>
   1c313:	48 89 44 24 38       	mov    QWORD PTR [rsp+0x38],rax
   1c318:	8b 54 24 48          	mov    edx,DWORD PTR [rsp+0x48]
   1c31c:	4c 8b 6c 24 38       	mov    r13,QWORD PTR [rsp+0x38]
   1c321:	85 d2                	test   edx,edx
   1c323:	0f 85 7b 08 00 00    	jne    1cba4 <_dtoa_r+0x11f4>
   1c329:	8b 44 24 28          	mov    eax,DWORD PTR [rsp+0x28]
   1c32d:	48 8b 5c 24 10       	mov    rbx,QWORD PTR [rsp+0x10]
   1c332:	48 89 6c 24 40       	mov    QWORD PTR [rsp+0x40],rbp
   1c337:	4c 8b 64 24 38       	mov    r12,QWORD PTR [rsp+0x38]
   1c33c:	83 e8 01             	sub    eax,0x1
   1c33f:	48 89 5c 24 28       	mov    QWORD PTR [rsp+0x28],rbx
   1c344:	48 8d 44 03 01       	lea    rax,[rbx+rax*1+0x1]
   1c349:	48 89 44 24 48       	mov    QWORD PTR [rsp+0x48],rax
   1c34e:	e9 c2 00 00 00       	jmp    1c415 <_dtoa_r+0xa65>
   1c353:	0f 1f 44 00 00       	nop    DWORD PTR [rax+rax*1+0x0]
   1c358:	4c 89 f7             	mov    rdi,r14
   1c35b:	e8 80 14 00 00       	call   1d7e0 <__mcmp>
   1c360:	48 89 ee             	mov    rsi,rbp
   1c363:	4c 89 ff             	mov    rdi,r15
   1c366:	89 44 24 38          	mov    DWORD PTR [rsp+0x38],eax
   1c36a:	e8 81 0b 00 00       	call   1cef0 <_Bfree>
   1c36f:	8b 44 24 08          	mov    eax,DWORD PTR [rsp+0x8]
   1c373:	8b 0c 24             	mov    ecx,DWORD PTR [rsp]
   1c376:	8b 54 24 38          	mov    edx,DWORD PTR [rsp+0x38]
   1c37a:	83 e0 01             	and    eax,0x1
   1c37d:	09 d1                	or     ecx,edx
   1c37f:	09 c8                	or     eax,ecx
   1c381:	0f 84 4c 09 00 00    	je     1ccd3 <_dtoa_r+0x1323>
   1c387:	48 8b 44 24 28       	mov    rax,QWORD PTR [rsp+0x28]
   1c38c:	48 8d 68 01          	lea    rbp,[rax+0x1]
   1c390:	48 89 e9             	mov    rcx,rbp
   1c393:	85 db                	test   ebx,ebx
   1c395:	0f 88 92 07 00 00    	js     1cb2d <_dtoa_r+0x117d>
   1c39b:	8b 44 24 08          	mov    eax,DWORD PTR [rsp+0x8]
   1c39f:	0b 1c 24             	or     ebx,DWORD PTR [rsp]
   1c3a2:	83 e0 01             	and    eax,0x1
   1c3a5:	09 d8                	or     eax,ebx
   1c3a7:	0f 84 80 07 00 00    	je     1cb2d <_dtoa_r+0x117d>
   1c3ad:	85 d2                	test   edx,edx
   1c3af:	0f 8f 89 08 00 00    	jg     1cc3e <_dtoa_r+0x128e>
   1c3b5:	0f b6 44 24 34       	movzx  eax,BYTE PTR [rsp+0x34]
   1c3ba:	88 45 ff             	mov    BYTE PTR [rbp-0x1],al
   1c3bd:	48 39 6c 24 48       	cmp    QWORD PTR [rsp+0x48],rbp
   1c3c2:	0f 84 b2 08 00 00    	je     1cc7a <_dtoa_r+0x12ca>
   1c3c8:	4c 89 f6             	mov    rsi,r14
   1c3cb:	31 c9                	xor    ecx,ecx
   1c3cd:	ba 0a 00 00 00       	mov    edx,0xa
   1c3d2:	4c 89 ff             	mov    rdi,r15
   1c3d5:	e8 36 0b 00 00       	call   1cf10 <__multadd>
   1c3da:	31 c9                	xor    ecx,ecx
   1c3dc:	ba 0a 00 00 00       	mov    edx,0xa
   1c3e1:	4c 89 e6             	mov    rsi,r12
   1c3e4:	49 89 c6             	mov    r14,rax
   1c3e7:	4c 89 ff             	mov    rdi,r15
   1c3ea:	4d 39 ec             	cmp    r12,r13
   1c3ed:	0f 84 0d 05 00 00    	je     1c900 <_dtoa_r+0xf50>
   1c3f3:	e8 18 0b 00 00       	call   1cf10 <__multadd>
   1c3f8:	4c 89 ee             	mov    rsi,r13
   1c3fb:	31 c9                	xor    ecx,ecx
   1c3fd:	ba 0a 00 00 00       	mov    edx,0xa
   1c402:	4c 89 ff             	mov    rdi,r15
   1c405:	49 89 c4             	mov    r12,rax
   1c408:	e8 03 0b 00 00       	call   1cf10 <__multadd>
   1c40d:	49 89 c5             	mov    r13,rax
   1c410:	48 89 6c 24 28       	mov    QWORD PTR [rsp+0x28],rbp
   1c415:	48 8b 6c 24 40       	mov    rbp,QWORD PTR [rsp+0x40]
   1c41a:	4c 89 f7             	mov    rdi,r14
   1c41d:	48 89 ee             	mov    rsi,rbp
   1c420:	e8 eb f3 ff ff       	call   1b810 <quorem>
   1c425:	4c 89 e6             	mov    rsi,r12
   1c428:	4c 89 f7             	mov    rdi,r14
   1c42b:	89 44 24 50          	mov    DWORD PTR [rsp+0x50],eax
   1c42f:	83 c0 30             	add    eax,0x30
   1c432:	89 44 24 34          	mov    DWORD PTR [rsp+0x34],eax
   1c436:	e8 a5 13 00 00       	call   1d7e0 <__mcmp>
   1c43b:	48 89 ee             	mov    rsi,rbp
   1c43e:	4c 89 ea             	mov    rdx,r13
   1c441:	4c 89 ff             	mov    rdi,r15
   1c444:	89 c3                	mov    ebx,eax
   1c446:	e8 e5 13 00 00       	call   1d830 <__mdiff>
   1c44b:	48 89 c5             	mov    rbp,rax
   1c44e:	48 89 c6             	mov    rsi,rax
   1c451:	8b 40 10             	mov    eax,DWORD PTR [rax+0x10]
   1c454:	85 c0                	test   eax,eax
   1c456:	0f 84 fc fe ff ff    	je     1c358 <_dtoa_r+0x9a8>
   1c45c:	4c 89 ff             	mov    rdi,r15
   1c45f:	e8 8c 0a 00 00       	call   1cef0 <_Bfree>
   1c464:	ba 01 00 00 00       	mov    edx,0x1
   1c469:	e9 19 ff ff ff       	jmp    1c387 <_dtoa_r+0x9d7>
   1c46e:	66 90                	xchg   ax,ax
   1c470:	0f 84 ca 03 00 00    	je     1c840 <_dtoa_r+0xe90>
   1c476:	8b 4c 24 30          	mov    ecx,DWORD PTR [rsp+0x30]
   1c47a:	48 8d 15 ff 46 ff ff 	lea    rdx,[rip+0xffffffffffff46ff]        # 10b80 <__mprec_tens>
   1c481:	f7 d9                	neg    ecx
   1c483:	89 ce                	mov    esi,ecx
   1c485:	83 e6 0f             	and    esi,0xf
   1c488:	c1 f9 04             	sar    ecx,0x4
   1c48b:	f2 0f 10 0c f2       	movsd  xmm1,QWORD PTR [rdx+rsi*8]
   1c490:	f2 0f 59 ca          	mulsd  xmm1,xmm2
   1c494:	0f 84 dc 08 00 00    	je     1cd76 <_dtoa_r+0x13c6>
   1c49a:	48 8d 35 9f 46 ff ff 	lea    rsi,[rip+0xffffffffffff469f]        # 10b40 <__mprec_bigtens>
   1c4a1:	66 0f 28 c1          	movapd xmm0,xmm1
   1c4a5:	31 ff                	xor    edi,edi
   1c4a7:	ba 02 00 00 00       	mov    edx,0x2
   1c4ac:	0f 1f 40 00          	nop    DWORD PTR [rax+0x0]
   1c4b0:	f6 c1 01             	test   cl,0x1
   1c4b3:	74 09                	je     1c4be <_dtoa_r+0xb0e>
   1c4b5:	f2 0f 59 06          	mulsd  xmm0,QWORD PTR [rsi]
   1c4b9:	83 c2 01             	add    edx,0x1
   1c4bc:	89 c7                	mov    edi,eax
   1c4be:	48 83 c6 08          	add    rsi,0x8
   1c4c2:	d1 f9                	sar    ecx,1
   1c4c4:	75 ea                	jne    1c4b0 <_dtoa_r+0xb00>
   1c4c6:	40 84 ff             	test   dil,dil
   1c4c9:	0f 85 58 f8 ff ff    	jne    1bd27 <_dtoa_r+0x377>
   1c4cf:	66 0f 28 c1          	movapd xmm0,xmm1
   1c4d3:	e9 4f f8 ff ff       	jmp    1bd27 <_dtoa_r+0x377>
   1c4d8:	0f 1f 84 00 00 00 00 	nop    DWORD PTR [rax+rax*1+0x0]
   1c4df:	00 
   1c4e0:	48 63 c7             	movsxd rax,edi
   1c4e3:	48 8d 15 96 46 ff ff 	lea    rdx,[rip+0xffffffffffff4696]        # 10b80 <__mprec_tens>
   1c4ea:	f2 0f 10 14 c2       	movsd  xmm2,QWORD PTR [rdx+rax*8]
   1c4ef:	45 85 ed             	test   r13d,r13d
   1c4f2:	0f 89 16 05 00 00    	jns    1ca0e <_dtoa_r+0x105e>
   1c4f8:	8b 44 24 28          	mov    eax,DWORD PTR [rsp+0x28]
   1c4fc:	85 c0                	test   eax,eax
   1c4fe:	0f 8f 0a 05 00 00    	jg     1ca0e <_dtoa_r+0x105e>
   1c504:	0f 85 86 03 00 00    	jne    1c890 <_dtoa_r+0xee0>
   1c50a:	f2 0f 59 15 6e 3f ff 	mulsd  xmm2,QWORD PTR [rip+0xffffffffffff3f6e]        # 10480 <zeroes.0-0x1c0>
   1c511:	ff 
   1c512:	31 ed                	xor    ebp,ebp
   1c514:	48 c7 44 24 38 00 00 	mov    QWORD PTR [rsp+0x38],0x0
   1c51b:	00 00 
   1c51d:	66 0f 2f 54 24 08    	comisd xmm2,QWORD PTR [rsp+0x8]
   1c523:	0f 83 3c fd ff ff    	jae    1c265 <_dtoa_r+0x8b5>
   1c529:	e9 ca 01 00 00       	jmp    1c6f8 <_dtoa_r+0xd48>
   1c52e:	66 90                	xchg   ax,ax
   1c530:	44 89 c2             	mov    edx,r8d
   1c533:	48 89 c6             	mov    rsi,rax
   1c536:	4c 89 ff             	mov    rdi,r15
   1c539:	e8 12 10 00 00       	call   1d550 <__pow5mult>
   1c53e:	83 3c 24 01          	cmp    DWORD PTR [rsp],0x1
   1c542:	44 8b 44 24 48       	mov    r8d,DWORD PTR [rsp+0x48]
   1c547:	48 89 c5             	mov    rbp,rax
   1c54a:	0f 8e fe 02 00 00    	jle    1c84e <_dtoa_r+0xe9e>
   1c550:	c7 44 24 48 00 00 00 	mov    DWORD PTR [rsp+0x48],0x0
   1c557:	00 
   1c558:	8b 45 14             	mov    eax,DWORD PTR [rbp+0x14]
   1c55b:	83 e8 01             	sub    eax,0x1
   1c55e:	48 98                	cdqe   
   1c560:	8b 7c 85 18          	mov    edi,DWORD PTR [rbp+rax*4+0x18]
   1c564:	e8 f7 0b 00 00       	call   1d160 <__hi0bits>
   1c569:	41 89 c3             	mov    r11d,eax
   1c56c:	b8 20 00 00 00       	mov    eax,0x20
   1c571:	44 29 d8             	sub    eax,r11d
   1c574:	e9 5c fc ff ff       	jmp    1c1d5 <_dtoa_r+0x825>
   1c579:	0f 1f 80 00 00 00 00 	nop    DWORD PTR [rax+0x0]
   1c580:	c7 44 24 28 01 00 00 	mov    DWORD PTR [rsp+0x28],0x1
   1c587:	00 
   1c588:	41 bd 01 00 00 00    	mov    r13d,0x1
   1c58e:	e9 02 fb ff ff       	jmp    1c095 <_dtoa_r+0x6e5>
   1c593:	0f 1f 44 00 00       	nop    DWORD PTR [rax+rax*1+0x0]
   1c598:	48 89 ee             	mov    rsi,rbp
   1c59b:	4c 89 f7             	mov    rdi,r14
   1c59e:	e8 3d 12 00 00       	call   1d7e0 <__mcmp>
   1c5a3:	85 c0                	test   eax,eax
   1c5a5:	0f 89 9a fc ff ff    	jns    1c245 <_dtoa_r+0x895>
   1c5ab:	8b 44 24 30          	mov    eax,DWORD PTR [rsp+0x30]
   1c5af:	31 c9                	xor    ecx,ecx
   1c5b1:	4c 89 f6             	mov    rsi,r14
   1c5b4:	ba 0a 00 00 00       	mov    edx,0xa
   1c5b9:	4c 89 ff             	mov    rdi,r15
   1c5bc:	44 8d 60 ff          	lea    r12d,[rax-0x1]
   1c5c0:	e8 4b 09 00 00       	call   1cf10 <__multadd>
   1c5c5:	44 8b 44 24 58       	mov    r8d,DWORD PTR [rsp+0x58]
   1c5ca:	44 8b 4c 24 34       	mov    r9d,DWORD PTR [rsp+0x34]
   1c5cf:	49 89 c6             	mov    r14,rax
   1c5d2:	45 85 c0             	test   r8d,r8d
   1c5d5:	0f 9e c0             	setle  al
   1c5d8:	21 c3                	and    ebx,eax
   1c5da:	45 85 c9             	test   r9d,r9d
   1c5dd:	0f 85 4a 07 00 00    	jne    1cd2d <_dtoa_r+0x137d>
   1c5e3:	84 db                	test   bl,bl
   1c5e5:	0f 85 30 07 00 00    	jne    1cd1b <_dtoa_r+0x136b>
   1c5eb:	8b 44 24 58          	mov    eax,DWORD PTR [rsp+0x58]
   1c5ef:	8b 5c 24 30          	mov    ebx,DWORD PTR [rsp+0x30]
   1c5f3:	89 44 24 28          	mov    DWORD PTR [rsp+0x28],eax
   1c5f7:	e9 2b 01 00 00       	jmp    1c727 <_dtoa_r+0xd77>
   1c5fc:	0f 1f 40 00          	nop    DWORD PTR [rax+0x0]
   1c600:	0f 84 00 fc ff ff    	je     1c206 <_dtoa_r+0x856>
   1c606:	ba 3c 00 00 00       	mov    edx,0x3c
   1c60b:	29 c2                	sub    edx,eax
   1c60d:	01 54 24 40          	add    DWORD PTR [rsp+0x40],edx
   1c611:	01 d3                	add    ebx,edx
   1c613:	41 01 d4             	add    r12d,edx
   1c616:	e9 eb fb ff ff       	jmp    1c206 <_dtoa_r+0x856>
   1c61b:	0f 1f 44 00 00       	nop    DWORD PTR [rax+rax*1+0x0]
   1c620:	66 0f 28 c2          	movapd xmm0,xmm2
   1c624:	ba 02 00 00 00       	mov    edx,0x2
   1c629:	e9 d0 f6 ff ff       	jmp    1bcfe <_dtoa_r+0x34e>
   1c62e:	66 90                	xchg   ax,ax
   1c630:	48 8b 7c 24 10       	mov    rdi,QWORD PTR [rsp+0x10]
   1c635:	f2 0f 59 e3          	mulsd  xmm4,xmm3
   1c639:	89 c2                	mov    edx,eax
   1c63b:	f2 0f 10 1d 35 3e ff 	movsd  xmm3,QWORD PTR [rip+0xffffffffffff3e35]        # 10478 <zeroes.0-0x1c8>
   1c642:	ff 
   1c643:	40 88 37             	mov    BYTE PTR [rdi],sil
   1c646:	48 01 fa             	add    rdx,rdi
   1c649:	83 f8 01             	cmp    eax,0x1
   1c64c:	0f 84 c1 06 00 00    	je     1cd13 <_dtoa_r+0x1363>
   1c652:	66 0f 1f 44 00 00    	nop    WORD PTR [rax+rax*1+0x0]
   1c658:	f2 0f 59 c3          	mulsd  xmm0,xmm3
   1c65c:	66 0f ef c9          	pxor   xmm1,xmm1
   1c660:	48 83 c1 01          	add    rcx,0x1
   1c664:	f2 0f 2c c0          	cvttsd2si eax,xmm0
   1c668:	f2 0f 2a c8          	cvtsi2sd xmm1,eax
   1c66c:	83 c0 30             	add    eax,0x30
   1c66f:	88 41 ff             	mov    BYTE PTR [rcx-0x1],al
   1c672:	f2 0f 5c c1          	subsd  xmm0,xmm1
   1c676:	48 39 d1             	cmp    rcx,rdx
   1c679:	75 dd                	jne    1c658 <_dtoa_r+0xca8>
   1c67b:	f2 0f 10 0d 2d 3e ff 	movsd  xmm1,QWORD PTR [rip+0xffffffffffff3e2d]        # 104b0 <zeroes.0-0x190>
   1c682:	ff 
   1c683:	66 0f 28 dc          	movapd xmm3,xmm4
   1c687:	f2 0f 58 d9          	addsd  xmm3,xmm1
   1c68b:	66 0f 2f c3          	comisd xmm0,xmm3
   1c68f:	0f 87 b0 f7 ff ff    	ja     1be45 <_dtoa_r+0x495>
   1c695:	f2 0f 5c cc          	subsd  xmm1,xmm4
   1c699:	66 0f 2f c8          	comisd xmm1,xmm0
   1c69d:	0f 86 17 f9 ff ff    	jbe    1bfba <_dtoa_r+0x60a>
   1c6a3:	0f 1f 44 00 00       	nop    DWORD PTR [rax+rax*1+0x0]
   1c6a8:	48 89 d0             	mov    rax,rdx
   1c6ab:	48 83 ea 01          	sub    rdx,0x1
   1c6af:	80 3a 30             	cmp    BYTE PTR [rdx],0x30
   1c6b2:	74 f4                	je     1c6a8 <_dtoa_r+0xcf8>
   1c6b4:	4c 8b 64 24 10       	mov    r12,QWORD PTR [rsp+0x10]
   1c6b9:	41 8d 59 01          	lea    ebx,[r9+0x1]
   1c6bd:	48 89 44 24 10       	mov    QWORD PTR [rsp+0x10],rax
   1c6c2:	e9 ca fb ff ff       	jmp    1c291 <_dtoa_r+0x8e1>
   1c6c7:	66 0f 1f 84 00 00 00 	nop    WORD PTR [rax+rax*1+0x0]
   1c6ce:	00 00 
   1c6d0:	48 89 ee             	mov    rsi,rbp
   1c6d3:	31 c9                	xor    ecx,ecx
   1c6d5:	4c 89 ff             	mov    rdi,r15
   1c6d8:	ba 05 00 00 00       	mov    edx,0x5
   1c6dd:	e8 2e 08 00 00       	call   1cf10 <__multadd>
   1c6e2:	4c 89 f7             	mov    rdi,r14
   1c6e5:	48 89 c6             	mov    rsi,rax
   1c6e8:	48 89 c5             	mov    rbp,rax
   1c6eb:	e8 f0 10 00 00       	call   1d7e0 <__mcmp>
   1c6f0:	85 c0                	test   eax,eax
   1c6f2:	0f 8e 6d fb ff ff    	jle    1c265 <_dtoa_r+0x8b5>
   1c6f8:	48 8b 44 24 10       	mov    rax,QWORD PTR [rsp+0x10]
   1c6fd:	44 8b 6c 24 30       	mov    r13d,DWORD PTR [rsp+0x30]
   1c702:	c6 00 31             	mov    BYTE PTR [rax],0x31
   1c705:	49 89 c4             	mov    r12,rax
   1c708:	48 83 c0 01          	add    rax,0x1
   1c70c:	41 83 c5 01          	add    r13d,0x1
   1c710:	48 89 44 24 10       	mov    QWORD PTR [rsp+0x10],rax
   1c715:	e9 53 fb ff ff       	jmp    1c26d <_dtoa_r+0x8bd>
   1c71a:	66 0f 1f 44 00 00    	nop    WORD PTR [rax+rax*1+0x0]
   1c720:	8b 5c 24 30          	mov    ebx,DWORD PTR [rsp+0x30]
   1c724:	83 c3 01             	add    ebx,0x1
   1c727:	89 1c 24             	mov    DWORD PTR [rsp],ebx
   1c72a:	4c 8b 64 24 10       	mov    r12,QWORD PTR [rsp+0x10]
   1c72f:	45 31 ed             	xor    r13d,r13d
   1c732:	8b 5c 24 28          	mov    ebx,DWORD PTR [rsp+0x28]
   1c736:	eb 1d                	jmp    1c755 <_dtoa_r+0xda5>
   1c738:	0f 1f 84 00 00 00 00 	nop    DWORD PTR [rax+rax*1+0x0]
   1c73f:	00 
   1c740:	4c 89 f6             	mov    rsi,r14
   1c743:	31 c9                	xor    ecx,ecx
   1c745:	ba 0a 00 00 00       	mov    edx,0xa
   1c74a:	4c 89 ff             	mov    rdi,r15
   1c74d:	e8 be 07 00 00       	call   1cf10 <__multadd>
   1c752:	49 89 c6             	mov    r14,rax
   1c755:	48 89 ee             	mov    rsi,rbp
   1c758:	4c 89 f7             	mov    rdi,r14
   1c75b:	e8 b0 f0 ff ff       	call   1b810 <quorem>
   1c760:	83 c0 30             	add    eax,0x30
   1c763:	43 88 04 2c          	mov    BYTE PTR [r12+r13*1],al
   1c767:	49 83 c5 01          	add    r13,0x1
   1c76b:	44 39 eb             	cmp    ebx,r13d
   1c76e:	7f d0                	jg     1c740 <_dtoa_r+0xd90>
   1c770:	89 44 24 34          	mov    DWORD PTR [rsp+0x34],eax
   1c774:	8b 44 24 28          	mov    eax,DWORD PTR [rsp+0x28]
   1c778:	8b 1c 24             	mov    ebx,DWORD PTR [rsp]
   1c77b:	8d 48 ff             	lea    ecx,[rax-0x1]
   1c77e:	48 83 c1 01          	add    rcx,0x1
   1c782:	85 c0                	test   eax,eax
   1c784:	b8 01 00 00 00       	mov    eax,0x1
   1c789:	48 0f 4e c8          	cmovle rcx,rax
   1c78d:	45 31 e4             	xor    r12d,r12d
   1c790:	48 03 4c 24 10       	add    rcx,QWORD PTR [rsp+0x10]
   1c795:	4c 89 f6             	mov    rsi,r14
   1c798:	ba 01 00 00 00       	mov    edx,0x1
   1c79d:	4c 89 ff             	mov    rdi,r15
   1c7a0:	48 89 0c 24          	mov    QWORD PTR [rsp],rcx
   1c7a4:	e8 d7 0e 00 00       	call   1d680 <__lshift>
   1c7a9:	48 89 ee             	mov    rsi,rbp
   1c7ac:	48 89 c7             	mov    rdi,rax
   1c7af:	49 89 c6             	mov    r14,rax
   1c7b2:	e8 29 10 00 00       	call   1d7e0 <__mcmp>
   1c7b7:	48 8b 0c 24          	mov    rcx,QWORD PTR [rsp]
   1c7bb:	85 c0                	test   eax,eax
   1c7bd:	0f 8e 1a 03 00 00    	jle    1cadd <_dtoa_r+0x112d>
   1c7c3:	0f b6 51 ff          	movzx  edx,BYTE PTR [rcx-0x1]
   1c7c7:	48 8b 74 24 10       	mov    rsi,QWORD PTR [rsp+0x10]
   1c7cc:	eb 12                	jmp    1c7e0 <_dtoa_r+0xe30>
   1c7ce:	66 90                	xchg   ax,ax
   1c7d0:	48 39 f0             	cmp    rax,rsi
   1c7d3:	0f 84 f4 02 00 00    	je     1cacd <_dtoa_r+0x111d>
   1c7d9:	0f b6 50 ff          	movzx  edx,BYTE PTR [rax-0x1]
   1c7dd:	48 89 c1             	mov    rcx,rax
   1c7e0:	48 8d 41 ff          	lea    rax,[rcx-0x1]
   1c7e4:	80 fa 39             	cmp    dl,0x39
   1c7e7:	74 e7                	je     1c7d0 <_dtoa_r+0xe20>
   1c7e9:	83 c2 01             	add    edx,0x1
   1c7ec:	88 10                	mov    BYTE PTR [rax],dl
   1c7ee:	48 89 ee             	mov    rsi,rbp
   1c7f1:	4c 89 ff             	mov    rdi,r15
   1c7f4:	48 89 0c 24          	mov    QWORD PTR [rsp],rcx
   1c7f8:	e8 f3 06 00 00       	call   1cef0 <_Bfree>
   1c7fd:	48 8b 44 24 38       	mov    rax,QWORD PTR [rsp+0x38]
   1c802:	48 8b 0c 24          	mov    rcx,QWORD PTR [rsp]
   1c806:	48 85 c0             	test   rax,rax
   1c809:	0f 84 af 02 00 00    	je     1cabe <_dtoa_r+0x110e>
   1c80f:	4d 85 e4             	test   r12,r12
   1c812:	0f 84 1f 06 00 00    	je     1ce37 <_dtoa_r+0x1487>
   1c818:	49 39 c4             	cmp    r12,rax
   1c81b:	0f 84 16 06 00 00    	je     1ce37 <_dtoa_r+0x1487>
   1c821:	4c 89 e6             	mov    rsi,r12
   1c824:	4c 89 ff             	mov    rdi,r15
   1c827:	e8 c4 06 00 00       	call   1cef0 <_Bfree>
   1c82c:	48 8b 0c 24          	mov    rcx,QWORD PTR [rsp]
   1c830:	4c 8b 64 24 10       	mov    r12,QWORD PTR [rsp+0x10]
   1c835:	48 89 4c 24 10       	mov    QWORD PTR [rsp+0x10],rcx
   1c83a:	e9 45 fa ff ff       	jmp    1c284 <_dtoa_r+0x8d4>
   1c83f:	90                   	nop
   1c840:	66 0f 28 c2          	movapd xmm0,xmm2
   1c844:	ba 02 00 00 00       	mov    edx,0x2
   1c849:	e9 d9 f4 ff ff       	jmp    1bd27 <_dtoa_r+0x377>
   1c84e:	48 b8 ff ff ff ff ff 	movabs rax,0xfffffffffffff
   1c855:	ff 0f 00 
   1c858:	48 85 44 24 08       	test   QWORD PTR [rsp+0x8],rax
   1c85d:	0f 85 ed fc ff ff    	jne    1c550 <_dtoa_r+0xba0>
   1c863:	48 8b 44 24 08       	mov    rax,QWORD PTR [rsp+0x8]
   1c868:	48 c1 e8 20          	shr    rax,0x20
   1c86c:	a9 00 00 f0 7f       	test   eax,0x7ff00000
   1c871:	0f 84 d9 fc ff ff    	je     1c550 <_dtoa_r+0xba0>
   1c877:	c7 44 24 48 01 00 00 	mov    DWORD PTR [rsp+0x48],0x1
   1c87e:	00 
   1c87f:	83 c3 01             	add    ebx,0x1
   1c882:	41 83 c4 01          	add    r12d,0x1
   1c886:	e9 3c f9 ff ff       	jmp    1c1c7 <_dtoa_r+0x817>
   1c88b:	0f 1f 44 00 00       	nop    DWORD PTR [rax+rax*1+0x0]
   1c890:	48 c7 44 24 38 00 00 	mov    QWORD PTR [rsp+0x38],0x0
   1c897:	00 00 
   1c899:	31 ed                	xor    ebp,ebp
   1c89b:	e9 c5 f9 ff ff       	jmp    1c265 <_dtoa_r+0x8b5>
   1c8a0:	89 e9                	mov    ecx,ebp
   1c8a2:	29 c1                	sub    ecx,eax
   1c8a4:	e9 5c f7 ff ff       	jmp    1c005 <_dtoa_r+0x655>
   1c8a9:	48 8b 74 24 38       	mov    rsi,QWORD PTR [rsp+0x38]
   1c8ae:	89 ca                	mov    edx,ecx
   1c8b0:	4c 89 ff             	mov    rdi,r15
   1c8b3:	44 89 44 24 5c       	mov    DWORD PTR [rsp+0x5c],r8d
   1c8b8:	89 4c 24 54          	mov    DWORD PTR [rsp+0x54],ecx
   1c8bc:	e8 8f 0c 00 00       	call   1d550 <__pow5mult>
   1c8c1:	4c 89 f2             	mov    rdx,r14
   1c8c4:	4c 89 ff             	mov    rdi,r15
   1c8c7:	48 89 c6             	mov    rsi,rax
   1c8ca:	48 89 44 24 38       	mov    QWORD PTR [rsp+0x38],rax
   1c8cf:	e8 2c 0a 00 00       	call   1d300 <__multiply>
   1c8d4:	4c 89 f6             	mov    rsi,r14
   1c8d7:	4c 89 ff             	mov    rdi,r15
   1c8da:	48 89 44 24 48       	mov    QWORD PTR [rsp+0x48],rax
   1c8df:	e8 0c 06 00 00       	call   1cef0 <_Bfree>
   1c8e4:	4c 8b 74 24 48       	mov    r14,QWORD PTR [rsp+0x48]
   1c8e9:	44 8b 44 24 5c       	mov    r8d,DWORD PTR [rsp+0x5c]
   1c8ee:	8b 4c 24 54          	mov    ecx,DWORD PTR [rsp+0x54]
   1c8f2:	e9 93 f8 ff ff       	jmp    1c18a <_dtoa_r+0x7da>
   1c8f7:	66 0f 1f 84 00 00 00 	nop    WORD PTR [rax+rax*1+0x0]
   1c8fe:	00 00 
   1c900:	e8 0b 06 00 00       	call   1cf10 <__multadd>
   1c905:	49 89 c4             	mov    r12,rax
   1c908:	49 89 c5             	mov    r13,rax
   1c90b:	e9 00 fb ff ff       	jmp    1c410 <_dtoa_r+0xa60>
   1c910:	c7 44 24 34 00 00 00 	mov    DWORD PTR [rsp+0x34],0x0
   1c917:	00 
   1c918:	e9 f6 f2 ff ff       	jmp    1bc13 <_dtoa_r+0x263>
   1c91d:	0f 1f 00             	nop    DWORD PTR [rax]
   1c920:	48 b8 ff ff ff ff ff 	movabs rax,0xfffffffffffff
   1c927:	ff 0f 00 
   1c92a:	48 8b 7c 24 08       	mov    rdi,QWORD PTR [rsp+0x8]
   1c92f:	48 85 c7             	test   rdi,rax
   1c932:	0f 85 8f f8 ff ff    	jne    1c1c7 <_dtoa_r+0x817>
   1c938:	48 89 f8             	mov    rax,rdi
   1c93b:	48 c1 e8 20          	shr    rax,0x20
   1c93f:	a9 00 00 f0 7f       	test   eax,0x7ff00000
   1c944:	0f 84 7d f8 ff ff    	je     1c1c7 <_dtoa_r+0x817>
   1c94a:	e9 28 ff ff ff       	jmp    1c877 <_dtoa_r+0xec7>
   1c94f:	90                   	nop
   1c950:	8b 44 24 28          	mov    eax,DWORD PTR [rsp+0x28]
   1c954:	85 c0                	test   eax,eax
   1c956:	0f 84 05 f6 ff ff    	je     1bf61 <_dtoa_r+0x5b1>
   1c95c:	8b 7c 24 58          	mov    edi,DWORD PTR [rsp+0x58]
   1c960:	85 ff                	test   edi,edi
   1c962:	0f 8e 52 f6 ff ff    	jle    1bfba <_dtoa_r+0x60a>
   1c968:	f2 0f 10 1d 08 3b ff 	movsd  xmm3,QWORD PTR [rip+0xffffffffffff3b08]        # 10478 <zeroes.0-0x1c8>
   1c96f:	ff 
   1c970:	83 c2 01             	add    edx,0x1
   1c973:	66 0f ef c9          	pxor   xmm1,xmm1
   1c977:	8b 44 24 30          	mov    eax,DWORD PTR [rsp+0x30]
   1c97b:	f2 0f 2a ca          	cvtsi2sd xmm1,edx
   1c97f:	f2 0f 59 c3          	mulsd  xmm0,xmm3
   1c983:	44 8d 48 ff          	lea    r9d,[rax-0x1]
   1c987:	f2 0f 59 c8          	mulsd  xmm1,xmm0
   1c98b:	f2 0f 58 0d 0d 3b ff 	addsd  xmm1,QWORD PTR [rip+0xffffffffffff3b0d]        # 104a0 <zeroes.0-0x1a0>
   1c992:	ff 
   1c993:	66 48 0f 7e c8       	movq   rax,xmm1
   1c998:	66 48 0f 7e ca       	movq   rdx,xmm1
   1c99d:	48 c1 e8 20          	shr    rax,0x20
   1c9a1:	89 d2                	mov    edx,edx
   1c9a3:	2d 00 00 40 03       	sub    eax,0x3400000
   1c9a8:	48 c1 e0 20          	shl    rax,0x20
   1c9ac:	48 09 c2             	or     rdx,rax
   1c9af:	89 f8                	mov    eax,edi
   1c9b1:	e9 d0 f3 ff ff       	jmp    1bd86 <_dtoa_r+0x3d6>
   1c9b6:	66 2e 0f 1f 84 00 00 	cs nop WORD PTR [rax+rax*1+0x0]
   1c9bd:	00 00 00 
   1c9c0:	8b 54 24 54          	mov    edx,DWORD PTR [rsp+0x54]
   1c9c4:	85 d2                	test   edx,edx
   1c9c6:	0f 84 48 01 00 00    	je     1cb14 <_dtoa_r+0x1164>
   1c9cc:	05 33 04 00 00       	add    eax,0x433
   1c9d1:	89 5c 24 40          	mov    DWORD PTR [rsp+0x40],ebx
   1c9d5:	89 e9                	mov    ecx,ebp
   1c9d7:	41 01 c4             	add    r12d,eax
   1c9da:	01 c3                	add    ebx,eax
   1c9dc:	e9 3d f6 ff ff       	jmp    1c01e <_dtoa_r+0x66e>
   1c9e1:	48 c7 44 24 38 00 00 	mov    QWORD PTR [rsp+0x38],0x0
   1c9e8:	00 00 
   1c9ea:	31 ed                	xor    ebp,ebp
   1c9ec:	e9 07 fd ff ff       	jmp    1c6f8 <_dtoa_r+0xd48>
   1c9f1:	48 63 44 24 30       	movsxd rax,DWORD PTR [rsp+0x30]
   1c9f6:	48 8d 15 83 41 ff ff 	lea    rdx,[rip+0xffffffffffff4183]        # 10b80 <__mprec_tens>
   1c9fd:	c7 44 24 28 ff ff ff 	mov    DWORD PTR [rsp+0x28],0xffffffff
   1ca04:	ff 
   1ca05:	41 83 cb ff          	or     r11d,0xffffffff
   1ca09:	f2 0f 10 14 c2       	movsd  xmm2,QWORD PTR [rdx+rax*8]
   1ca0e:	f2 0f 10 44 24 08    	movsd  xmm0,QWORD PTR [rsp+0x8]
   1ca14:	48 8b 5c 24 10       	mov    rbx,QWORD PTR [rsp+0x10]
   1ca19:	83 7c 24 28 01       	cmp    DWORD PTR [rsp+0x28],0x1
   1ca1e:	66 0f 28 c8          	movapd xmm1,xmm0
   1ca22:	48 8d 43 01          	lea    rax,[rbx+0x1]
   1ca26:	f2 0f 5e ca          	divsd  xmm1,xmm2
   1ca2a:	f2 0f 2c c9          	cvttsd2si ecx,xmm1
   1ca2e:	66 0f ef c9          	pxor   xmm1,xmm1
   1ca32:	f2 0f 2a c9          	cvtsi2sd xmm1,ecx
   1ca36:	8d 51 30             	lea    edx,[rcx+0x30]
   1ca39:	88 13                	mov    BYTE PTR [rbx],dl
   1ca3b:	f2 0f 59 ca          	mulsd  xmm1,xmm2
   1ca3f:	f2 0f 5c c1          	subsd  xmm0,xmm1
   1ca43:	0f 84 bd 01 00 00    	je     1cc06 <_dtoa_r+0x1256>
   1ca49:	48 8b 5c 24 10       	mov    rbx,QWORD PTR [rsp+0x10]
   1ca4e:	41 8d 53 fe          	lea    edx,[r11-0x2]
   1ca52:	f2 0f 10 1d 1e 3a ff 	movsd  xmm3,QWORD PTR [rip+0xffffffffffff3a1e]        # 10478 <zeroes.0-0x1c8>
   1ca59:	ff 
   1ca5a:	48 8d 54 13 02       	lea    rdx,[rbx+rdx*1+0x2]
   1ca5f:	eb 37                	jmp    1ca98 <_dtoa_r+0x10e8>
   1ca61:	0f 1f 80 00 00 00 00 	nop    DWORD PTR [rax+0x0]
   1ca68:	66 0f 28 c8          	movapd xmm1,xmm0
   1ca6c:	48 83 c0 01          	add    rax,0x1
   1ca70:	f2 0f 5e ca          	divsd  xmm1,xmm2
   1ca74:	f2 0f 2c c9          	cvttsd2si ecx,xmm1
   1ca78:	66 0f ef c9          	pxor   xmm1,xmm1
   1ca7c:	f2 0f 2a c9          	cvtsi2sd xmm1,ecx
   1ca80:	8d 71 30             	lea    esi,[rcx+0x30]
   1ca83:	40 88 70 ff          	mov    BYTE PTR [rax-0x1],sil
   1ca87:	f2 0f 59 ca          	mulsd  xmm1,xmm2
   1ca8b:	f2 0f 5c c1          	subsd  xmm0,xmm1
   1ca8f:	48 39 d0             	cmp    rax,rdx
   1ca92:	0f 84 71 01 00 00    	je     1cc09 <_dtoa_r+0x1259>
   1ca98:	f2 0f 59 c3          	mulsd  xmm0,xmm3
   1ca9c:	66 0f ef ed          	pxor   xmm5,xmm5
   1caa0:	66 0f 2e c5          	ucomisd xmm0,xmm5
   1caa4:	7a c2                	jp     1ca68 <_dtoa_r+0x10b8>
   1caa6:	75 c0                	jne    1ca68 <_dtoa_r+0x10b8>
   1caa8:	8b 5c 24 30          	mov    ebx,DWORD PTR [rsp+0x30]
   1caac:	4c 8b 64 24 10       	mov    r12,QWORD PTR [rsp+0x10]
   1cab1:	48 89 44 24 10       	mov    QWORD PTR [rsp+0x10],rax
   1cab6:	83 c3 01             	add    ebx,0x1
   1cab9:	e9 d3 f7 ff ff       	jmp    1c291 <_dtoa_r+0x8e1>
   1cabe:	4c 8b 64 24 10       	mov    r12,QWORD PTR [rsp+0x10]
   1cac3:	48 89 4c 24 10       	mov    QWORD PTR [rsp+0x10],rcx
   1cac8:	e9 c4 f7 ff ff       	jmp    1c291 <_dtoa_r+0x8e1>
   1cacd:	48 8b 44 24 10       	mov    rax,QWORD PTR [rsp+0x10]
   1cad2:	83 c3 01             	add    ebx,0x1
   1cad5:	c6 00 31             	mov    BYTE PTR [rax],0x31
   1cad8:	e9 11 fd ff ff       	jmp    1c7ee <_dtoa_r+0xe3e>
   1cadd:	75 0b                	jne    1caea <_dtoa_r+0x113a>
   1cadf:	f6 44 24 34 01       	test   BYTE PTR [rsp+0x34],0x1
   1cae4:	0f 85 d9 fc ff ff    	jne    1c7c3 <_dtoa_r+0xe13>
   1caea:	48 89 c8             	mov    rax,rcx
   1caed:	0f 1f 00             	nop    DWORD PTR [rax]
   1caf0:	48 89 c1             	mov    rcx,rax
   1caf3:	48 83 e8 01          	sub    rax,0x1
   1caf7:	80 38 30             	cmp    BYTE PTR [rax],0x30
   1cafa:	74 f4                	je     1caf0 <_dtoa_r+0x1140>
   1cafc:	e9 ed fc ff ff       	jmp    1c7ee <_dtoa_r+0xe3e>
   1cb01:	48 89 74 24 10       	mov    QWORD PTR [rsp+0x10],rsi
   1cb06:	41 83 c1 01          	add    r9d,0x1
   1cb0a:	b8 31 00 00 00       	mov    eax,0x31
   1cb0f:	e9 5c f3 ff ff       	jmp    1be70 <_dtoa_r+0x4c0>
   1cb14:	b8 36 00 00 00       	mov    eax,0x36
   1cb19:	2b 44 24 60          	sub    eax,DWORD PTR [rsp+0x60]
   1cb1d:	89 5c 24 40          	mov    DWORD PTR [rsp+0x40],ebx
   1cb21:	89 e9                	mov    ecx,ebp
   1cb23:	41 01 c4             	add    r12d,eax
   1cb26:	01 c3                	add    ebx,eax
   1cb28:	e9 f1 f4 ff ff       	jmp    1c01e <_dtoa_r+0x66e>
   1cb2d:	4c 89 64 24 38       	mov    QWORD PTR [rsp+0x38],r12
   1cb32:	49 89 ec             	mov    r12,rbp
   1cb35:	48 8b 6c 24 40       	mov    rbp,QWORD PTR [rsp+0x40]
   1cb3a:	85 d2                	test   edx,edx
   1cb3c:	7e 44                	jle    1cb82 <_dtoa_r+0x11d2>
   1cb3e:	4c 89 f6             	mov    rsi,r14
   1cb41:	ba 01 00 00 00       	mov    edx,0x1
   1cb46:	4c 89 ff             	mov    rdi,r15
   1cb49:	48 89 0c 24          	mov    QWORD PTR [rsp],rcx
   1cb4d:	e8 2e 0b 00 00       	call   1d680 <__lshift>
   1cb52:	48 89 ee             	mov    rsi,rbp
   1cb55:	48 89 c7             	mov    rdi,rax
   1cb58:	49 89 c6             	mov    r14,rax
   1cb5b:	e8 80 0c 00 00       	call   1d7e0 <__mcmp>
   1cb60:	48 8b 0c 24          	mov    rcx,QWORD PTR [rsp]
   1cb64:	85 c0                	test   eax,eax
   1cb66:	0f 8e f4 01 00 00    	jle    1cd60 <_dtoa_r+0x13b0>
   1cb6c:	83 7c 24 34 39       	cmp    DWORD PTR [rsp+0x34],0x39
   1cb71:	0f 84 22 01 00 00    	je     1cc99 <_dtoa_r+0x12e9>
   1cb77:	8b 44 24 50          	mov    eax,DWORD PTR [rsp+0x50]
   1cb7b:	83 c0 31             	add    eax,0x31
   1cb7e:	89 44 24 34          	mov    DWORD PTR [rsp+0x34],eax
   1cb82:	0f b6 5c 24 34       	movzx  ebx,BYTE PTR [rsp+0x34]
   1cb87:	48 8b 44 24 28       	mov    rax,QWORD PTR [rsp+0x28]
   1cb8c:	4c 8b 64 24 38       	mov    r12,QWORD PTR [rsp+0x38]
   1cb91:	4c 89 6c 24 38       	mov    QWORD PTR [rsp+0x38],r13
   1cb96:	88 18                	mov    BYTE PTR [rax],bl
   1cb98:	8b 5c 24 30          	mov    ebx,DWORD PTR [rsp+0x30]
   1cb9c:	83 c3 01             	add    ebx,0x1
   1cb9f:	e9 4a fc ff ff       	jmp    1c7ee <_dtoa_r+0xe3e>
   1cba4:	41 8b 75 08          	mov    esi,DWORD PTR [r13+0x8]
   1cba8:	4c 89 ff             	mov    rdi,r15
   1cbab:	e8 a0 02 00 00       	call   1ce50 <_Balloc>
   1cbb0:	49 89 c4             	mov    r12,rax
   1cbb3:	48 85 c0             	test   rax,rax
   1cbb6:	0f 84 61 02 00 00    	je     1ce1d <_dtoa_r+0x146d>
   1cbbc:	48 8b 5c 24 38       	mov    rbx,QWORD PTR [rsp+0x38]
   1cbc1:	49 8d 7c 24 10       	lea    rdi,[r12+0x10]
   1cbc6:	48 63 43 14          	movsxd rax,DWORD PTR [rbx+0x14]
   1cbca:	48 8d 73 10          	lea    rsi,[rbx+0x10]
   1cbce:	48 8d 14 85 08 00 00 	lea    rdx,[rax*4+0x8]
   1cbd5:	00 
   1cbd6:	e8 f5 e4 ff ff       	call   1b0d0 <memcpy>
   1cbdb:	ba 01 00 00 00       	mov    edx,0x1
   1cbe0:	4c 89 e6             	mov    rsi,r12
   1cbe3:	4c 89 ff             	mov    rdi,r15
   1cbe6:	e8 95 0a 00 00       	call   1d680 <__lshift>
   1cbeb:	49 89 c5             	mov    r13,rax
   1cbee:	e9 36 f7 ff ff       	jmp    1c329 <_dtoa_r+0x979>
   1cbf3:	4c 8b 64 24 10       	mov    r12,QWORD PTR [rsp+0x10]
   1cbf8:	41 8d 59 01          	lea    ebx,[r9+0x1]
   1cbfc:	48 89 54 24 10       	mov    QWORD PTR [rsp+0x10],rdx
   1cc01:	e9 8b f6 ff ff       	jmp    1c291 <_dtoa_r+0x8e1>
   1cc06:	48 89 c2             	mov    rdx,rax
   1cc09:	f2 0f 58 c0          	addsd  xmm0,xmm0
   1cc0d:	8b 44 24 30          	mov    eax,DWORD PTR [rsp+0x30]
   1cc11:	8d 58 01             	lea    ebx,[rax+0x1]
   1cc14:	66 0f 2f c2          	comisd xmm0,xmm2
   1cc18:	0f 87 a6 00 00 00    	ja     1ccc4 <_dtoa_r+0x1314>
   1cc1e:	66 0f 2e c2          	ucomisd xmm0,xmm2
   1cc22:	7a 0b                	jp     1cc2f <_dtoa_r+0x127f>
   1cc24:	75 09                	jne    1cc2f <_dtoa_r+0x127f>
   1cc26:	83 e1 01             	and    ecx,0x1
   1cc29:	0f 85 95 00 00 00    	jne    1ccc4 <_dtoa_r+0x1314>
   1cc2f:	4c 8b 64 24 10       	mov    r12,QWORD PTR [rsp+0x10]
   1cc34:	48 89 54 24 10       	mov    QWORD PTR [rsp+0x10],rdx
   1cc39:	e9 53 f6 ff ff       	jmp    1c291 <_dtoa_r+0x8e1>
   1cc3e:	83 7c 24 34 39       	cmp    DWORD PTR [rsp+0x34],0x39
   1cc43:	4c 89 64 24 38       	mov    QWORD PTR [rsp+0x38],r12
   1cc48:	49 89 ec             	mov    r12,rbp
   1cc4b:	48 8b 6c 24 40       	mov    rbp,QWORD PTR [rsp+0x40]
   1cc50:	74 47                	je     1cc99 <_dtoa_r+0x12e9>
   1cc52:	44 0f b6 64 24 34    	movzx  r12d,BYTE PTR [rsp+0x34]
   1cc58:	8b 5c 24 30          	mov    ebx,DWORD PTR [rsp+0x30]
   1cc5c:	48 8b 44 24 28       	mov    rax,QWORD PTR [rsp+0x28]
   1cc61:	41 83 c4 01          	add    r12d,0x1
   1cc65:	83 c3 01             	add    ebx,0x1
   1cc68:	44 88 20             	mov    BYTE PTR [rax],r12b
   1cc6b:	4c 8b 64 24 38       	mov    r12,QWORD PTR [rsp+0x38]
   1cc70:	4c 89 6c 24 38       	mov    QWORD PTR [rsp+0x38],r13
   1cc75:	e9 74 fb ff ff       	jmp    1c7ee <_dtoa_r+0xe3e>
   1cc7a:	8b 5c 24 30          	mov    ebx,DWORD PTR [rsp+0x30]
   1cc7e:	48 8b 6c 24 40       	mov    rbp,QWORD PTR [rsp+0x40]
   1cc83:	4c 89 6c 24 38       	mov    QWORD PTR [rsp+0x38],r13
   1cc88:	83 c3 01             	add    ebx,0x1
   1cc8b:	e9 05 fb ff ff       	jmp    1c795 <_dtoa_r+0xde5>
   1cc90:	48 8b 44 24 28       	mov    rax,QWORD PTR [rsp+0x28]
   1cc95:	4c 8d 60 01          	lea    r12,[rax+0x1]
   1cc99:	48 8b 44 24 28       	mov    rax,QWORD PTR [rsp+0x28]
   1cc9e:	8b 5c 24 30          	mov    ebx,DWORD PTR [rsp+0x30]
   1cca2:	4c 89 e1             	mov    rcx,r12
   1cca5:	ba 39 00 00 00       	mov    edx,0x39
   1ccaa:	4c 8b 64 24 38       	mov    r12,QWORD PTR [rsp+0x38]
   1ccaf:	48 8b 74 24 10       	mov    rsi,QWORD PTR [rsp+0x10]
   1ccb4:	4c 89 6c 24 38       	mov    QWORD PTR [rsp+0x38],r13
   1ccb9:	c6 00 39             	mov    BYTE PTR [rax],0x39
   1ccbc:	83 c3 01             	add    ebx,0x1
   1ccbf:	e9 1c fb ff ff       	jmp    1c7e0 <_dtoa_r+0xe30>
   1ccc4:	44 8b 4c 24 30       	mov    r9d,DWORD PTR [rsp+0x30]
   1ccc9:	48 8b 74 24 10       	mov    rsi,QWORD PTR [rsp+0x10]
   1ccce:	e9 86 f1 ff ff       	jmp    1be59 <_dtoa_r+0x4a9>
   1ccd3:	83 7c 24 34 39       	cmp    DWORD PTR [rsp+0x34],0x39
   1ccd8:	48 8b 6c 24 40       	mov    rbp,QWORD PTR [rsp+0x40]
   1ccdd:	4c 89 64 24 38       	mov    QWORD PTR [rsp+0x38],r12
   1cce2:	74 ac                	je     1cc90 <_dtoa_r+0x12e0>
   1cce4:	8b 44 24 50          	mov    eax,DWORD PTR [rsp+0x50]
   1cce8:	4c 8b 64 24 38       	mov    r12,QWORD PTR [rsp+0x38]
   1cced:	4c 89 6c 24 38       	mov    QWORD PTR [rsp+0x38],r13
   1ccf2:	83 c0 31             	add    eax,0x31
   1ccf5:	85 db                	test   ebx,ebx
   1ccf7:	48 8b 5c 24 28       	mov    rbx,QWORD PTR [rsp+0x28]
   1ccfc:	0f 4e 44 24 34       	cmovle eax,DWORD PTR [rsp+0x34]
   1cd01:	48 8d 4b 01          	lea    rcx,[rbx+0x1]
   1cd05:	88 03                	mov    BYTE PTR [rbx],al
   1cd07:	8b 5c 24 30          	mov    ebx,DWORD PTR [rsp+0x30]
   1cd0b:	83 c3 01             	add    ebx,0x1
   1cd0e:	e9 db fa ff ff       	jmp    1c7ee <_dtoa_r+0xe3e>
   1cd13:	48 89 ca             	mov    rdx,rcx
   1cd16:	e9 60 f9 ff ff       	jmp    1c67b <_dtoa_r+0xccb>
   1cd1b:	8b 44 24 58          	mov    eax,DWORD PTR [rsp+0x58]
   1cd1f:	44 89 64 24 30       	mov    DWORD PTR [rsp+0x30],r12d
   1cd24:	89 44 24 28          	mov    DWORD PTR [rsp+0x28],eax
   1cd28:	e9 2c f5 ff ff       	jmp    1c259 <_dtoa_r+0x8a9>
   1cd2d:	48 8b 74 24 38       	mov    rsi,QWORD PTR [rsp+0x38]
   1cd32:	31 c9                	xor    ecx,ecx
   1cd34:	ba 0a 00 00 00       	mov    edx,0xa
   1cd39:	4c 89 ff             	mov    rdi,r15
   1cd3c:	e8 cf 01 00 00       	call   1cf10 <__multadd>
   1cd41:	44 89 64 24 30       	mov    DWORD PTR [rsp+0x30],r12d
   1cd46:	48 89 44 24 38       	mov    QWORD PTR [rsp+0x38],rax
   1cd4b:	8b 44 24 58          	mov    eax,DWORD PTR [rsp+0x58]
   1cd4f:	89 44 24 28          	mov    DWORD PTR [rsp+0x28],eax
   1cd53:	84 db                	test   bl,bl
   1cd55:	0f 84 a1 f5 ff ff    	je     1c2fc <_dtoa_r+0x94c>
   1cd5b:	e9 f9 f4 ff ff       	jmp    1c259 <_dtoa_r+0x8a9>
   1cd60:	0f 85 1c fe ff ff    	jne    1cb82 <_dtoa_r+0x11d2>
   1cd66:	f6 44 24 34 01       	test   BYTE PTR [rsp+0x34],0x1
   1cd6b:	0f 85 fb fd ff ff    	jne    1cb6c <_dtoa_r+0x11bc>
   1cd71:	e9 0c fe ff ff       	jmp    1cb82 <_dtoa_r+0x11d2>
   1cd76:	66 0f 28 c1          	movapd xmm0,xmm1
   1cd7a:	ba 02 00 00 00       	mov    edx,0x2
   1cd7f:	e9 a3 ef ff ff       	jmp    1bd27 <_dtoa_r+0x377>
   1cd84:	48 89 4c 24 10       	mov    QWORD PTR [rsp+0x10],rcx
   1cd89:	41 8d 59 01          	lea    ebx,[r9+0x1]
   1cd8d:	49 89 fc             	mov    r12,rdi
   1cd90:	e9 fc f4 ff ff       	jmp    1c291 <_dtoa_r+0x8e1>
   1cd95:	e8 e6 c7 ff ff       	call   19580 <__stack_chk_fail>
   1cd9a:	41 c7 47 58 00 00 00 	mov    DWORD PTR [r15+0x58],0x0
   1cda1:	00 
   1cda2:	31 f6                	xor    esi,esi
   1cda4:	4c 89 ff             	mov    rdi,r15
   1cda7:	44 89 44 24 28       	mov    DWORD PTR [rsp+0x28],r8d
   1cdac:	e8 9f 00 00 00       	call   1ce50 <_Balloc>
   1cdb1:	44 8b 44 24 28       	mov    r8d,DWORD PTR [rsp+0x28]
   1cdb6:	48 85 c0             	test   rax,rax
   1cdb9:	48 89 44 24 10       	mov    QWORD PTR [rsp+0x10],rax
   1cdbe:	74 3c                	je     1cdfc <_dtoa_r+0x144c>
   1cdc0:	48 8b 44 24 10       	mov    rax,QWORD PTR [rsp+0x10]
   1cdc5:	83 7c 24 30 0e       	cmp    DWORD PTR [rsp+0x30],0xe
   1cdca:	49 89 47 50          	mov    QWORD PTR [r15+0x50],rax
   1cdce:	8b 44 24 64          	mov    eax,DWORD PTR [rsp+0x64]
   1cdd2:	7f 08                	jg     1cddc <_dtoa_r+0x142c>
   1cdd4:	85 c0                	test   eax,eax
   1cdd6:	0f 89 15 fc ff ff    	jns    1c9f1 <_dtoa_r+0x1041>
   1cddc:	c7 44 24 28 ff ff ff 	mov    DWORD PTR [rsp+0x28],0xffffffff
   1cde3:	ff 
   1cde4:	45 31 ed             	xor    r13d,r13d
   1cde7:	c7 44 24 34 01 00 00 	mov    DWORD PTR [rsp+0x34],0x1
   1cdee:	00 
   1cdef:	c7 44 24 58 ff ff ff 	mov    DWORD PTR [rsp+0x58],0xffffffff
   1cdf6:	ff 
   1cdf7:	e9 e5 f1 ff ff       	jmp    1bfe1 <_dtoa_r+0x631>
   1cdfc:	48 8d 0d 6e 35 ff ff 	lea    rcx,[rip+0xffffffffffff356e]        # 10371 <zeroes.0-0x2cf>
   1ce03:	31 d2                	xor    edx,edx
   1ce05:	be af 01 00 00       	mov    esi,0x1af
   1ce0a:	48 8d 3d 2b 36 ff ff 	lea    rdi,[rip+0xffffffffffff362b]        # 1043c <zeroes.0-0x204>
   1ce11:	e8 da 11 00 00       	call   1dff0 <__assert_func>
   1ce16:	31 f6                	xor    esi,esi
   1ce18:	e9 4a ee ff ff       	jmp    1bc67 <_dtoa_r+0x2b7>
   1ce1d:	48 8d 0d 4d 35 ff ff 	lea    rcx,[rip+0xffffffffffff354d]        # 10371 <zeroes.0-0x2cf>
   1ce24:	31 d2                	xor    edx,edx
   1ce26:	be ef 02 00 00       	mov    esi,0x2ef
   1ce2b:	48 8d 3d 0a 36 ff ff 	lea    rdi,[rip+0xffffffffffff360a]        # 1043c <zeroes.0-0x204>
   1ce32:	e8 b9 11 00 00       	call   1dff0 <__assert_func>
   1ce37:	4c 8b 64 24 10       	mov    r12,QWORD PTR [rsp+0x10]
   1ce3c:	48 89 4c 24 10       	mov    QWORD PTR [rsp+0x10],rcx
   1ce41:	e9 3e f4 ff ff       	jmp    1c284 <_dtoa_r+0x8d4>
   1ce46:	cc                   	int3   
   1ce47:	cc                   	int3   
   1ce48:	cc                   	int3   
   1ce49:	cc                   	int3   
   1ce4a:	cc                   	int3   
   1ce4b:	cc                   	int3   
   1ce4c:	cc                   	int3   
   1ce4d:	cc                   	int3   
   1ce4e:	cc                   	int3   
   1ce4f:	cc                   	int3   

000000000001ce50 <_Balloc>:
   1ce50:	f3 0f 1e fa          	endbr64 
   1ce54:	41 54                	push   r12
   1ce56:	53                   	push   rbx
   1ce57:	89 f3                	mov    ebx,esi
   1ce59:	48 83 ec 18          	sub    rsp,0x18
   1ce5d:	48 8b 47 68          	mov    rax,QWORD PTR [rdi+0x68]
   1ce61:	48 85 c0             	test   rax,rax
   1ce64:	74 2a                	je     1ce90 <_Balloc+0x40>
   1ce66:	48 63 d3             	movsxd rdx,ebx
   1ce69:	48 8d 14 d0          	lea    rdx,[rax+rdx*8]
   1ce6d:	48 8b 02             	mov    rax,QWORD PTR [rdx]
   1ce70:	48 85 c0             	test   rax,rax
   1ce73:	74 4b                	je     1cec0 <_Balloc+0x70>
   1ce75:	48 8b 08             	mov    rcx,QWORD PTR [rax]
   1ce78:	48 89 0a             	mov    QWORD PTR [rdx],rcx
   1ce7b:	48 c7 40 10 00 00 00 	mov    QWORD PTR [rax+0x10],0x0
   1ce82:	00 
   1ce83:	48 83 c4 18          	add    rsp,0x18
   1ce87:	5b                   	pop    rbx
   1ce88:	41 5c                	pop    r12
   1ce8a:	c3                   	ret    
   1ce8b:	0f 1f 44 00 00       	nop    DWORD PTR [rax+rax*1+0x0]
   1ce90:	ba 41 00 00 00       	mov    edx,0x41
   1ce95:	be 08 00 00 00       	mov    esi,0x8
   1ce9a:	48 89 7c 24 08       	mov    QWORD PTR [rsp+0x8],rdi
   1ce9f:	e8 6c 10 00 00       	call   1df10 <_calloc_r>
   1cea4:	48 8b 7c 24 08       	mov    rdi,QWORD PTR [rsp+0x8]
   1cea9:	48 89 47 68          	mov    QWORD PTR [rdi+0x68],rax
   1cead:	48 85 c0             	test   rax,rax
   1ceb0:	75 b4                	jne    1ce66 <_Balloc+0x16>
   1ceb2:	31 c0                	xor    eax,eax
   1ceb4:	eb cd                	jmp    1ce83 <_Balloc+0x33>
   1ceb6:	66 2e 0f 1f 84 00 00 	cs nop WORD PTR [rax+rax*1+0x0]
   1cebd:	00 00 00 
   1cec0:	41 bc 01 00 00 00    	mov    r12d,0x1
   1cec6:	89 d9                	mov    ecx,ebx
   1cec8:	be 01 00 00 00       	mov    esi,0x1
   1cecd:	41 d3 e4             	shl    r12d,cl
   1ced0:	49 63 c4             	movsxd rax,r12d
   1ced3:	48 8d 14 85 1c 00 00 	lea    rdx,[rax*4+0x1c]
   1ceda:	00 
   1cedb:	e8 30 10 00 00       	call   1df10 <_calloc_r>
   1cee0:	48 85 c0             	test   rax,rax
   1cee3:	74 cd                	je     1ceb2 <_Balloc+0x62>
   1cee5:	89 58 08             	mov    DWORD PTR [rax+0x8],ebx
   1cee8:	44 89 60 0c          	mov    DWORD PTR [rax+0xc],r12d
   1ceec:	eb 8d                	jmp    1ce7b <_Balloc+0x2b>
   1ceee:	66 90                	xchg   ax,ax

000000000001cef0 <_Bfree>:
   1cef0:	f3 0f 1e fa          	endbr64 
   1cef4:	48 85 f6             	test   rsi,rsi
   1cef7:	74 15                	je     1cf0e <_Bfree+0x1e>
   1cef9:	48 63 56 08          	movsxd rdx,DWORD PTR [rsi+0x8]
   1cefd:	48 8b 47 68          	mov    rax,QWORD PTR [rdi+0x68]
   1cf01:	48 8d 04 d0          	lea    rax,[rax+rdx*8]
   1cf05:	48 8b 10             	mov    rdx,QWORD PTR [rax]
   1cf08:	48 89 16             	mov    QWORD PTR [rsi],rdx
   1cf0b:	48 89 30             	mov    QWORD PTR [rax],rsi
   1cf0e:	c3                   	ret    
   1cf0f:	90                   	nop

000000000001cf10 <__multadd>:
   1cf10:	f3 0f 1e fa          	endbr64 
   1cf14:	41 56                	push   r14
   1cf16:	41 55                	push   r13
   1cf18:	41 54                	push   r12
   1cf1a:	49 89 f4             	mov    r12,rsi
   1cf1d:	89 d6                	mov    esi,edx
   1cf1f:	55                   	push   rbp
   1cf20:	53                   	push   rbx
   1cf21:	41 8b 6c 24 14       	mov    ebp,DWORD PTR [r12+0x14]
   1cf26:	48 89 fb             	mov    rbx,rdi
   1cf29:	31 ff                	xor    edi,edi
   1cf2b:	0f 1f 44 00 00       	nop    DWORD PTR [rax+rax*1+0x0]
   1cf30:	41 8b 44 bc 18       	mov    eax,DWORD PTR [r12+rdi*4+0x18]
   1cf35:	0f b7 d0             	movzx  edx,ax
   1cf38:	c1 e8 10             	shr    eax,0x10
   1cf3b:	0f af d6             	imul   edx,esi
   1cf3e:	0f af c6             	imul   eax,esi
   1cf41:	01 ca                	add    edx,ecx
   1cf43:	89 d1                	mov    ecx,edx
   1cf45:	0f b7 d2             	movzx  edx,dx
   1cf48:	c1 e9 10             	shr    ecx,0x10
   1cf4b:	01 c8                	add    eax,ecx
   1cf4d:	41 89 c5             	mov    r13d,eax
   1cf50:	c1 e0 10             	shl    eax,0x10
   1cf53:	01 d0                	add    eax,edx
   1cf55:	41 c1 ed 10          	shr    r13d,0x10
   1cf59:	41 89 44 bc 18       	mov    DWORD PTR [r12+rdi*4+0x18],eax
   1cf5e:	48 83 c7 01          	add    rdi,0x1
   1cf62:	44 89 e9             	mov    ecx,r13d
   1cf65:	39 fd                	cmp    ebp,edi
   1cf67:	7f c7                	jg     1cf30 <__multadd+0x20>
   1cf69:	45 85 ed             	test   r13d,r13d
   1cf6c:	74 17                	je     1cf85 <__multadd+0x75>
   1cf6e:	41 39 6c 24 0c       	cmp    DWORD PTR [r12+0xc],ebp
   1cf73:	7e 23                	jle    1cf98 <__multadd+0x88>
   1cf75:	48 63 c5             	movsxd rax,ebp
   1cf78:	83 c5 01             	add    ebp,0x1
   1cf7b:	45 89 6c 84 18       	mov    DWORD PTR [r12+rax*4+0x18],r13d
   1cf80:	41 89 6c 24 14       	mov    DWORD PTR [r12+0x14],ebp
   1cf85:	5b                   	pop    rbx
   1cf86:	4c 89 e0             	mov    rax,r12
   1cf89:	5d                   	pop    rbp
   1cf8a:	41 5c                	pop    r12
   1cf8c:	41 5d                	pop    r13
   1cf8e:	41 5e                	pop    r14
   1cf90:	c3                   	ret    
   1cf91:	0f 1f 80 00 00 00 00 	nop    DWORD PTR [rax+0x0]
   1cf98:	41 8b 44 24 08       	mov    eax,DWORD PTR [r12+0x8]
   1cf9d:	48 89 df             	mov    rdi,rbx
   1cfa0:	8d 70 01             	lea    esi,[rax+0x1]
   1cfa3:	e8 a8 fe ff ff       	call   1ce50 <_Balloc>
   1cfa8:	49 89 c6             	mov    r14,rax
   1cfab:	48 85 c0             	test   rax,rax
   1cfae:	74 47                	je     1cff7 <__multadd+0xe7>
   1cfb0:	49 63 44 24 14       	movsxd rax,DWORD PTR [r12+0x14]
   1cfb5:	49 8d 74 24 10       	lea    rsi,[r12+0x10]
   1cfba:	49 8d 7e 10          	lea    rdi,[r14+0x10]
   1cfbe:	48 8d 14 85 08 00 00 	lea    rdx,[rax*4+0x8]
   1cfc5:	00 
   1cfc6:	e8 05 e1 ff ff       	call   1b0d0 <memcpy>
   1cfcb:	49 63 54 24 08       	movsxd rdx,DWORD PTR [r12+0x8]
   1cfd0:	48 8b 43 68          	mov    rax,QWORD PTR [rbx+0x68]
   1cfd4:	48 8d 04 d0          	lea    rax,[rax+rdx*8]
   1cfd8:	48 8b 10             	mov    rdx,QWORD PTR [rax]
   1cfdb:	49 89 14 24          	mov    QWORD PTR [r12],rdx
   1cfdf:	4c 89 20             	mov    QWORD PTR [rax],r12
   1cfe2:	4d 89 f4             	mov    r12,r14
   1cfe5:	48 63 c5             	movsxd rax,ebp
   1cfe8:	83 c5 01             	add    ebp,0x1
   1cfeb:	45 89 6c 84 18       	mov    DWORD PTR [r12+rax*4+0x18],r13d
   1cff0:	41 89 6c 24 14       	mov    DWORD PTR [r12+0x14],ebp
   1cff5:	eb 8e                	jmp    1cf85 <__multadd+0x75>
   1cff7:	48 8d 0d 73 33 ff ff 	lea    rcx,[rip+0xffffffffffff3373]        # 10371 <zeroes.0-0x2cf>
   1cffe:	31 d2                	xor    edx,edx
   1d000:	be ba 00 00 00       	mov    esi,0xba
   1d005:	48 8d 3d 54 31 ff ff 	lea    rdi,[rip+0xffffffffffff3154]        # 10160 <zeroes.0-0x4e0>
   1d00c:	e8 df 0f 00 00       	call   1dff0 <__assert_func>
   1d011:	66 66 2e 0f 1f 84 00 	data16 cs nop WORD PTR [rax+rax*1+0x0]
   1d018:	00 00 00 00 
   1d01c:	0f 1f 40 00          	nop    DWORD PTR [rax+0x0]

000000000001d020 <__s2b>:
   1d020:	f3 0f 1e fa          	endbr64 
   1d024:	8d 41 08             	lea    eax,[rcx+0x8]
   1d027:	41 57                	push   r15
   1d029:	41 56                	push   r14
   1d02b:	45 89 c6             	mov    r14d,r8d
   1d02e:	41 55                	push   r13
   1d030:	41 89 d5             	mov    r13d,edx
   1d033:	48 63 d0             	movsxd rdx,eax
   1d036:	c1 f8 1f             	sar    eax,0x1f
   1d039:	48 69 d2 39 8e e3 38 	imul   rdx,rdx,0x38e38e39
   1d040:	41 54                	push   r12
   1d042:	41 89 cc             	mov    r12d,ecx
   1d045:	55                   	push   rbp
   1d046:	48 89 fd             	mov    rbp,rdi
   1d049:	53                   	push   rbx
   1d04a:	48 89 f3             	mov    rbx,rsi
   1d04d:	48 c1 fa 21          	sar    rdx,0x21
   1d051:	29 c2                	sub    edx,eax
   1d053:	48 83 ec 08          	sub    rsp,0x8
   1d057:	83 f9 09             	cmp    ecx,0x9
   1d05a:	0f 8e d8 00 00 00    	jle    1d138 <__s2b+0x118>
   1d060:	b8 01 00 00 00       	mov    eax,0x1
   1d065:	31 f6                	xor    esi,esi
   1d067:	66 0f 1f 84 00 00 00 	nop    WORD PTR [rax+rax*1+0x0]
   1d06e:	00 00 
   1d070:	01 c0                	add    eax,eax
   1d072:	83 c6 01             	add    esi,0x1
   1d075:	39 c2                	cmp    edx,eax
   1d077:	7f f7                	jg     1d070 <__s2b+0x50>
   1d079:	48 89 ef             	mov    rdi,rbp
   1d07c:	e8 cf fd ff ff       	call   1ce50 <_Balloc>
   1d081:	48 89 c6             	mov    rsi,rax
   1d084:	48 85 c0             	test   rax,rax
   1d087:	0f 84 b2 00 00 00    	je     1d13f <__s2b+0x11f>
   1d08d:	44 89 70 18          	mov    DWORD PTR [rax+0x18],r14d
   1d091:	c7 40 14 01 00 00 00 	mov    DWORD PTR [rax+0x14],0x1
   1d098:	41 83 fd 09          	cmp    r13d,0x9
   1d09c:	7f 5a                	jg     1d0f8 <__s2b+0xd8>
   1d09e:	48 83 c3 0a          	add    rbx,0xa
   1d0a2:	41 bd 09 00 00 00    	mov    r13d,0x9
   1d0a8:	45 39 ec             	cmp    r12d,r13d
   1d0ab:	7e 32                	jle    1d0df <__s2b+0xbf>
   1d0ad:	41 83 ec 01          	sub    r12d,0x1
   1d0b1:	45 29 ec             	sub    r12d,r13d
   1d0b4:	4e 8d 64 23 01       	lea    r12,[rbx+r12*1+0x1]
   1d0b9:	0f 1f 80 00 00 00 00 	nop    DWORD PTR [rax+0x0]
   1d0c0:	0f be 0b             	movsx  ecx,BYTE PTR [rbx]
   1d0c3:	ba 0a 00 00 00       	mov    edx,0xa
   1d0c8:	48 89 ef             	mov    rdi,rbp
   1d0cb:	48 83 c3 01          	add    rbx,0x1
   1d0cf:	83 e9 30             	sub    ecx,0x30
   1d0d2:	e8 39 fe ff ff       	call   1cf10 <__multadd>
   1d0d7:	48 89 c6             	mov    rsi,rax
   1d0da:	4c 39 e3             	cmp    rbx,r12
   1d0dd:	75 e1                	jne    1d0c0 <__s2b+0xa0>
   1d0df:	48 83 c4 08          	add    rsp,0x8
   1d0e3:	48 89 f0             	mov    rax,rsi
   1d0e6:	5b                   	pop    rbx
   1d0e7:	5d                   	pop    rbp
   1d0e8:	41 5c                	pop    r12
   1d0ea:	41 5d                	pop    r13
   1d0ec:	41 5e                	pop    r14
   1d0ee:	41 5f                	pop    r15
   1d0f0:	c3                   	ret    
   1d0f1:	0f 1f 80 00 00 00 00 	nop    DWORD PTR [rax+0x0]
   1d0f8:	4c 8d 73 09          	lea    r14,[rbx+0x9]
   1d0fc:	44 89 e8             	mov    eax,r13d
   1d0ff:	48 01 c3             	add    rbx,rax
   1d102:	4d 89 f7             	mov    r15,r14
   1d105:	0f 1f 00             	nop    DWORD PTR [rax]
   1d108:	41 0f be 0f          	movsx  ecx,BYTE PTR [r15]
   1d10c:	ba 0a 00 00 00       	mov    edx,0xa
   1d111:	48 89 ef             	mov    rdi,rbp
   1d114:	49 83 c7 01          	add    r15,0x1
   1d118:	83 e9 30             	sub    ecx,0x30
   1d11b:	e8 f0 fd ff ff       	call   1cf10 <__multadd>
   1d120:	48 89 c6             	mov    rsi,rax
   1d123:	49 39 df             	cmp    r15,rbx
   1d126:	75 e0                	jne    1d108 <__s2b+0xe8>
   1d128:	41 8d 5d f8          	lea    ebx,[r13-0x8]
   1d12c:	4c 01 f3             	add    rbx,r14
   1d12f:	e9 74 ff ff ff       	jmp    1d0a8 <__s2b+0x88>
   1d134:	0f 1f 40 00          	nop    DWORD PTR [rax+0x0]
   1d138:	31 f6                	xor    esi,esi
   1d13a:	e9 3a ff ff ff       	jmp    1d079 <__s2b+0x59>
   1d13f:	48 8d 0d 2b 32 ff ff 	lea    rcx,[rip+0xffffffffffff322b]        # 10371 <zeroes.0-0x2cf>
   1d146:	31 d2                	xor    edx,edx
   1d148:	be d3 00 00 00       	mov    esi,0xd3
   1d14d:	48 8d 3d 0c 30 ff ff 	lea    rdi,[rip+0xffffffffffff300c]        # 10160 <zeroes.0-0x4e0>
   1d154:	e8 97 0e 00 00       	call   1dff0 <__assert_func>
   1d159:	0f 1f 80 00 00 00 00 	nop    DWORD PTR [rax+0x0]

000000000001d160 <__hi0bits>:
   1d160:	f3 0f 1e fa          	endbr64 
   1d164:	31 c0                	xor    eax,eax
   1d166:	f7 c7 00 00 ff ff    	test   edi,0xffff0000
   1d16c:	75 08                	jne    1d176 <__hi0bits+0x16>
   1d16e:	c1 e7 10             	shl    edi,0x10
   1d171:	b8 10 00 00 00       	mov    eax,0x10
   1d176:	f7 c7 00 00 00 ff    	test   edi,0xff000000
   1d17c:	75 06                	jne    1d184 <__hi0bits+0x24>
   1d17e:	83 c0 08             	add    eax,0x8
   1d181:	c1 e7 08             	shl    edi,0x8
   1d184:	f7 c7 00 00 00 f0    	test   edi,0xf0000000
   1d18a:	75 06                	jne    1d192 <__hi0bits+0x32>
   1d18c:	83 c0 04             	add    eax,0x4
   1d18f:	c1 e7 04             	shl    edi,0x4
   1d192:	f7 c7 00 00 00 c0    	test   edi,0xc0000000
   1d198:	75 06                	jne    1d1a0 <__hi0bits+0x40>
   1d19a:	83 c0 02             	add    eax,0x2
   1d19d:	c1 e7 02             	shl    edi,0x2
   1d1a0:	85 ff                	test   edi,edi
   1d1a2:	78 11                	js     1d1b5 <__hi0bits+0x55>
   1d1a4:	83 c0 01             	add    eax,0x1
   1d1a7:	ba 20 00 00 00       	mov    edx,0x20
   1d1ac:	81 e7 00 00 00 40    	and    edi,0x40000000
   1d1b2:	0f 44 c2             	cmove  eax,edx
   1d1b5:	c3                   	ret    
   1d1b6:	66 2e 0f 1f 84 00 00 	cs nop WORD PTR [rax+rax*1+0x0]
   1d1bd:	00 00 00 

000000000001d1c0 <__lo0bits>:
   1d1c0:	f3 0f 1e fa          	endbr64 
   1d1c4:	8b 07                	mov    eax,DWORD PTR [rdi]
   1d1c6:	45 31 c0             	xor    r8d,r8d
   1d1c9:	a8 07                	test   al,0x7
   1d1cb:	74 1b                	je     1d1e8 <__lo0bits+0x28>
   1d1cd:	a8 01                	test   al,0x1
   1d1cf:	75 0e                	jne    1d1df <__lo0bits+0x1f>
   1d1d1:	a8 02                	test   al,0x2
   1d1d3:	74 6b                	je     1d240 <__lo0bits+0x80>
   1d1d5:	d1 e8                	shr    eax,1
   1d1d7:	41 b8 01 00 00 00    	mov    r8d,0x1
   1d1dd:	89 07                	mov    DWORD PTR [rdi],eax
   1d1df:	44 89 c0             	mov    eax,r8d
   1d1e2:	c3                   	ret    
   1d1e3:	0f 1f 44 00 00       	nop    DWORD PTR [rax+rax*1+0x0]
   1d1e8:	66 85 c0             	test   ax,ax
   1d1eb:	75 09                	jne    1d1f6 <__lo0bits+0x36>
   1d1ed:	c1 e8 10             	shr    eax,0x10
   1d1f0:	41 b8 10 00 00 00    	mov    r8d,0x10
   1d1f6:	84 c0                	test   al,al
   1d1f8:	75 07                	jne    1d201 <__lo0bits+0x41>
   1d1fa:	41 83 c0 08          	add    r8d,0x8
   1d1fe:	c1 e8 08             	shr    eax,0x8
   1d201:	a8 0f                	test   al,0xf
   1d203:	75 07                	jne    1d20c <__lo0bits+0x4c>
   1d205:	41 83 c0 04          	add    r8d,0x4
   1d209:	c1 e8 04             	shr    eax,0x4
   1d20c:	a8 03                	test   al,0x3
   1d20e:	75 07                	jne    1d217 <__lo0bits+0x57>
   1d210:	41 83 c0 02          	add    r8d,0x2
   1d214:	c1 e8 02             	shr    eax,0x2
   1d217:	a8 01                	test   al,0x1
   1d219:	75 08                	jne    1d223 <__lo0bits+0x63>
   1d21b:	41 83 c0 01          	add    r8d,0x1
   1d21f:	d1 e8                	shr    eax,1
   1d221:	74 0d                	je     1d230 <__lo0bits+0x70>
   1d223:	89 07                	mov    DWORD PTR [rdi],eax
   1d225:	44 89 c0             	mov    eax,r8d
   1d228:	c3                   	ret    
   1d229:	0f 1f 80 00 00 00 00 	nop    DWORD PTR [rax+0x0]
   1d230:	41 b8 20 00 00 00    	mov    r8d,0x20
   1d236:	eb a7                	jmp    1d1df <__lo0bits+0x1f>
   1d238:	0f 1f 84 00 00 00 00 	nop    DWORD PTR [rax+rax*1+0x0]
   1d23f:	00 
   1d240:	c1 e8 02             	shr    eax,0x2
   1d243:	41 b8 02 00 00 00    	mov    r8d,0x2
   1d249:	89 07                	mov    DWORD PTR [rdi],eax
   1d24b:	44 89 c0             	mov    eax,r8d
   1d24e:	c3                   	ret    
   1d24f:	90                   	nop

000000000001d250 <__i2b>:
   1d250:	f3 0f 1e fa          	endbr64 
   1d254:	53                   	push   rbx
   1d255:	89 f3                	mov    ebx,esi
   1d257:	48 83 ec 10          	sub    rsp,0x10
   1d25b:	48 8b 57 68          	mov    rdx,QWORD PTR [rdi+0x68]
   1d25f:	48 85 d2             	test   rdx,rdx
   1d262:	74 2c                	je     1d290 <__i2b+0x40>
   1d264:	48 8b 42 08          	mov    rax,QWORD PTR [rdx+0x8]
   1d268:	48 85 c0             	test   rax,rax
   1d26b:	74 63                	je     1d2d0 <__i2b+0x80>
   1d26d:	48 8b 08             	mov    rcx,QWORD PTR [rax]
   1d270:	48 89 4a 08          	mov    QWORD PTR [rdx+0x8],rcx
   1d274:	48 b9 00 00 00 00 01 	movabs rcx,0x100000000
   1d27b:	00 00 00 
   1d27e:	89 58 18             	mov    DWORD PTR [rax+0x18],ebx
   1d281:	48 89 48 10          	mov    QWORD PTR [rax+0x10],rcx
   1d285:	48 83 c4 10          	add    rsp,0x10
   1d289:	5b                   	pop    rbx
   1d28a:	c3                   	ret    
   1d28b:	0f 1f 44 00 00       	nop    DWORD PTR [rax+rax*1+0x0]
   1d290:	ba 41 00 00 00       	mov    edx,0x41
   1d295:	be 08 00 00 00       	mov    esi,0x8
   1d29a:	48 89 7c 24 08       	mov    QWORD PTR [rsp+0x8],rdi
   1d29f:	e8 6c 0c 00 00       	call   1df10 <_calloc_r>
   1d2a4:	48 8b 7c 24 08       	mov    rdi,QWORD PTR [rsp+0x8]
   1d2a9:	48 89 c2             	mov    rdx,rax
   1d2ac:	48 89 47 68          	mov    QWORD PTR [rdi+0x68],rax
   1d2b0:	48 85 c0             	test   rax,rax
   1d2b3:	75 af                	jne    1d264 <__i2b+0x14>
   1d2b5:	48 8d 0d b5 30 ff ff 	lea    rcx,[rip+0xffffffffffff30b5]        # 10371 <zeroes.0-0x2cf>
   1d2bc:	31 d2                	xor    edx,edx
   1d2be:	be 45 01 00 00       	mov    esi,0x145
   1d2c3:	48 8d 3d 96 2e ff ff 	lea    rdi,[rip+0xffffffffffff2e96]        # 10160 <zeroes.0-0x4e0>
   1d2ca:	e8 21 0d 00 00       	call   1dff0 <__assert_func>
   1d2cf:	90                   	nop
   1d2d0:	ba 24 00 00 00       	mov    edx,0x24
   1d2d5:	be 01 00 00 00       	mov    esi,0x1
   1d2da:	e8 31 0c 00 00       	call   1df10 <_calloc_r>
   1d2df:	48 85 c0             	test   rax,rax
   1d2e2:	74 d1                	je     1d2b5 <__i2b+0x65>
   1d2e4:	48 be 01 00 00 00 02 	movabs rsi,0x200000001
   1d2eb:	00 00 00 
   1d2ee:	48 89 70 08          	mov    QWORD PTR [rax+0x8],rsi
   1d2f2:	eb 80                	jmp    1d274 <__i2b+0x24>
   1d2f4:	66 66 2e 0f 1f 84 00 	data16 cs nop WORD PTR [rax+rax*1+0x0]
   1d2fb:	00 00 00 00 
   1d2ff:	90                   	nop

000000000001d300 <__multiply>:
   1d300:	f3 0f 1e fa          	endbr64 
   1d304:	41 57                	push   r15
   1d306:	49 89 f3             	mov    r11,rsi
   1d309:	41 56                	push   r14
   1d30b:	41 55                	push   r13
   1d30d:	41 54                	push   r12
   1d30f:	55                   	push   rbp
   1d310:	53                   	push   rbx
   1d311:	48 89 d3             	mov    rbx,rdx
   1d314:	48 83 ec 18          	sub    rsp,0x18
   1d318:	4c 63 76 14          	movsxd r14,DWORD PTR [rsi+0x14]
   1d31c:	8b 52 14             	mov    edx,DWORD PTR [rdx+0x14]
   1d31f:	41 39 d6             	cmp    r14d,edx
   1d322:	7c 11                	jl     1d335 <__multiply+0x35>
   1d324:	89 d0                	mov    eax,edx
   1d326:	44 89 f2             	mov    edx,r14d
   1d329:	4c 63 f0             	movsxd r14,eax
   1d32c:	48 89 d8             	mov    rax,rbx
   1d32f:	48 89 f3             	mov    rbx,rsi
   1d332:	49 89 c3             	mov    r11,rax
   1d335:	46 8d 24 32          	lea    r12d,[rdx+r14*1]
   1d339:	31 f6                	xor    esi,esi
   1d33b:	44 39 63 0c          	cmp    DWORD PTR [rbx+0xc],r12d
   1d33f:	4c 89 5c 24 08       	mov    QWORD PTR [rsp+0x8],r11
   1d344:	40 0f 9c c6          	setl   sil
   1d348:	03 73 08             	add    esi,DWORD PTR [rbx+0x8]
   1d34b:	89 14 24             	mov    DWORD PTR [rsp],edx
   1d34e:	e8 fd fa ff ff       	call   1ce50 <_Balloc>
   1d353:	48 63 14 24          	movsxd rdx,DWORD PTR [rsp]
   1d357:	4c 8b 5c 24 08       	mov    r11,QWORD PTR [rsp+0x8]
   1d35c:	48 85 c0             	test   rax,rax
   1d35f:	49 89 c7             	mov    r15,rax
   1d362:	0f 84 bf 01 00 00    	je     1d527 <__multiply+0x227>
   1d368:	4c 8d 68 18          	lea    r13,[rax+0x18]
   1d36c:	49 63 c4             	movsxd rax,r12d
   1d36f:	49 8d 6c 85 00       	lea    rbp,[r13+rax*4+0x0]
   1d374:	4c 89 e8             	mov    rax,r13
   1d377:	49 39 ed             	cmp    r13,rbp
   1d37a:	73 13                	jae    1d38f <__multiply+0x8f>
   1d37c:	0f 1f 40 00          	nop    DWORD PTR [rax+0x0]
   1d380:	c7 00 00 00 00 00    	mov    DWORD PTR [rax],0x0
   1d386:	48 83 c0 04          	add    rax,0x4
   1d38a:	48 39 c5             	cmp    rbp,rax
   1d38d:	77 f1                	ja     1d380 <__multiply+0x80>
   1d38f:	49 83 c3 18          	add    r11,0x18
   1d393:	48 8d 43 18          	lea    rax,[rbx+0x18]
   1d397:	4f 8d 34 b3          	lea    r14,[r11+r14*4]
   1d39b:	48 89 c6             	mov    rsi,rax
   1d39e:	48 8d 04 90          	lea    rax,[rax+rdx*4]
   1d3a2:	4d 39 f3             	cmp    r11,r14
   1d3a5:	0f 83 4c 01 00 00    	jae    1d4f7 <__multiply+0x1f7>
   1d3ab:	48 89 c2             	mov    rdx,rax
   1d3ae:	bf 04 00 00 00       	mov    edi,0x4
   1d3b3:	48 89 2c 24          	mov    QWORD PTR [rsp],rbp
   1d3b7:	48 89 f5             	mov    rbp,rsi
   1d3ba:	48 29 da             	sub    rdx,rbx
   1d3bd:	48 83 c3 19          	add    rbx,0x19
   1d3c1:	44 89 64 24 08       	mov    DWORD PTR [rsp+0x8],r12d
   1d3c6:	48 83 ea 19          	sub    rdx,0x19
   1d3ca:	48 c1 ea 02          	shr    rdx,0x2
   1d3ce:	48 39 d8             	cmp    rax,rbx
   1d3d1:	48 8d 0c 95 04 00 00 	lea    rcx,[rdx*4+0x4]
   1d3d8:	00 
   1d3d9:	48 0f 43 f9          	cmovae rdi,rcx
   1d3dd:	49 89 fc             	mov    r12,rdi
   1d3e0:	eb 23                	jmp    1d405 <__multiply+0x105>
   1d3e2:	66 0f 1f 44 00 00    	nop    WORD PTR [rax+rax*1+0x0]
   1d3e8:	c1 ea 10             	shr    edx,0x10
   1d3eb:	41 89 d1             	mov    r9d,edx
   1d3ee:	0f 85 87 00 00 00    	jne    1d47b <__multiply+0x17b>
   1d3f4:	49 83 c3 04          	add    r11,0x4
   1d3f8:	49 83 c5 04          	add    r13,0x4
   1d3fc:	4d 39 de             	cmp    r14,r11
   1d3ff:	0f 86 e9 00 00 00    	jbe    1d4ee <__multiply+0x1ee>
   1d405:	41 8b 13             	mov    edx,DWORD PTR [r11]
   1d408:	41 89 d1             	mov    r9d,edx
   1d40b:	41 81 e1 ff ff 00 00 	and    r9d,0xffff
   1d412:	74 d4                	je     1d3e8 <__multiply+0xe8>
   1d414:	4d 89 e8             	mov    r8,r13
   1d417:	48 89 ef             	mov    rdi,rbp
   1d41a:	45 31 d2             	xor    r10d,r10d
   1d41d:	0f 1f 00             	nop    DWORD PTR [rax]
   1d420:	8b 17                	mov    edx,DWORD PTR [rdi]
   1d422:	41 8b 30             	mov    esi,DWORD PTR [r8]
   1d425:	48 83 c7 04          	add    rdi,0x4
   1d429:	49 83 c0 04          	add    r8,0x4
   1d42d:	0f b7 ca             	movzx  ecx,dx
   1d430:	c1 ea 10             	shr    edx,0x10
   1d433:	0f b7 de             	movzx  ebx,si
   1d436:	41 0f af c9          	imul   ecx,r9d
   1d43a:	c1 ee 10             	shr    esi,0x10
   1d43d:	41 0f af d1          	imul   edx,r9d
   1d441:	01 d9                	add    ecx,ebx
   1d443:	44 01 d1             	add    ecx,r10d
   1d446:	01 f2                	add    edx,esi
   1d448:	89 ce                	mov    esi,ecx
   1d44a:	0f b7 c9             	movzx  ecx,cx
   1d44d:	c1 ee 10             	shr    esi,0x10
   1d450:	01 f2                	add    edx,esi
   1d452:	41 89 d2             	mov    r10d,edx
   1d455:	c1 e2 10             	shl    edx,0x10
   1d458:	09 ca                	or     edx,ecx
   1d45a:	41 c1 ea 10          	shr    r10d,0x10
   1d45e:	41 89 50 fc          	mov    DWORD PTR [r8-0x4],edx
   1d462:	48 39 f8             	cmp    rax,rdi
   1d465:	77 b9                	ja     1d420 <__multiply+0x120>
   1d467:	47 89 54 25 00       	mov    DWORD PTR [r13+r12*1+0x0],r10d
   1d46c:	41 8b 13             	mov    edx,DWORD PTR [r11]
   1d46f:	c1 ea 10             	shr    edx,0x10
   1d472:	41 89 d1             	mov    r9d,edx
   1d475:	0f 84 79 ff ff ff    	je     1d3f4 <__multiply+0xf4>
   1d47b:	41 8b 4d 00          	mov    ecx,DWORD PTR [r13+0x0]
   1d47f:	4d 89 ea             	mov    r10,r13
   1d482:	48 89 ef             	mov    rdi,rbp
   1d485:	31 d2                	xor    edx,edx
   1d487:	41 89 c8             	mov    r8d,ecx
   1d48a:	66 0f 1f 44 00 00    	nop    WORD PTR [rax+rax*1+0x0]
   1d490:	0f b7 1f             	movzx  ebx,WORD PTR [rdi]
   1d493:	41 c1 e8 10          	shr    r8d,0x10
   1d497:	0f b7 c9             	movzx  ecx,cx
   1d49a:	49 83 c2 04          	add    r10,0x4
   1d49e:	48 83 c7 04          	add    rdi,0x4
   1d4a2:	41 0f af d9          	imul   ebx,r9d
   1d4a6:	41 01 d8             	add    r8d,ebx
   1d4a9:	41 8d 1c 10          	lea    ebx,[r8+rdx*1]
   1d4ad:	45 8b 02             	mov    r8d,DWORD PTR [r10]
   1d4b0:	89 da                	mov    edx,ebx
   1d4b2:	c1 eb 10             	shr    ebx,0x10
   1d4b5:	c1 e2 10             	shl    edx,0x10
   1d4b8:	09 d1                	or     ecx,edx
   1d4ba:	41 0f b7 d0          	movzx  edx,r8w
   1d4be:	41 89 4a fc          	mov    DWORD PTR [r10-0x4],ecx
   1d4c2:	0f b7 4f fe          	movzx  ecx,WORD PTR [rdi-0x2]
   1d4c6:	41 0f af c9          	imul   ecx,r9d
   1d4ca:	01 d1                	add    ecx,edx
   1d4cc:	01 d9                	add    ecx,ebx
   1d4ce:	89 ca                	mov    edx,ecx
   1d4d0:	c1 ea 10             	shr    edx,0x10
   1d4d3:	48 39 f8             	cmp    rax,rdi
   1d4d6:	77 b8                	ja     1d490 <__multiply+0x190>
   1d4d8:	49 83 c3 04          	add    r11,0x4
   1d4dc:	43 89 4c 25 00       	mov    DWORD PTR [r13+r12*1+0x0],ecx
   1d4e1:	49 83 c5 04          	add    r13,0x4
   1d4e5:	4d 39 de             	cmp    r14,r11
   1d4e8:	0f 87 17 ff ff ff    	ja     1d405 <__multiply+0x105>
   1d4ee:	48 8b 2c 24          	mov    rbp,QWORD PTR [rsp]
   1d4f2:	44 8b 64 24 08       	mov    r12d,DWORD PTR [rsp+0x8]
   1d4f7:	45 85 e4             	test   r12d,r12d
   1d4fa:	7f 0a                	jg     1d506 <__multiply+0x206>
   1d4fc:	eb 13                	jmp    1d511 <__multiply+0x211>
   1d4fe:	66 90                	xchg   ax,ax
   1d500:	41 83 ec 01          	sub    r12d,0x1
   1d504:	74 0b                	je     1d511 <__multiply+0x211>
   1d506:	8b 45 fc             	mov    eax,DWORD PTR [rbp-0x4]
   1d509:	48 83 ed 04          	sub    rbp,0x4
   1d50d:	85 c0                	test   eax,eax
   1d50f:	74 ef                	je     1d500 <__multiply+0x200>
   1d511:	45 89 67 14          	mov    DWORD PTR [r15+0x14],r12d
   1d515:	48 83 c4 18          	add    rsp,0x18
   1d519:	4c 89 f8             	mov    rax,r15
   1d51c:	5b                   	pop    rbx
   1d51d:	5d                   	pop    rbp
   1d51e:	41 5c                	pop    r12
   1d520:	41 5d                	pop    r13
   1d522:	41 5e                	pop    r14
   1d524:	41 5f                	pop    r15
   1d526:	c3                   	ret    
   1d527:	48 8d 0d 43 2e ff ff 	lea    rcx,[rip+0xffffffffffff2e43]        # 10371 <zeroes.0-0x2cf>
   1d52e:	31 d2                	xor    edx,edx
   1d530:	be 62 01 00 00       	mov    esi,0x162
   1d535:	48 8d 3d 24 2c ff ff 	lea    rdi,[rip+0xffffffffffff2c24]        # 10160 <zeroes.0-0x4e0>
   1d53c:	e8 af 0a 00 00       	call   1dff0 <__assert_func>
   1d541:	66 66 2e 0f 1f 84 00 	data16 cs nop WORD PTR [rax+rax*1+0x0]
   1d548:	00 00 00 00 
   1d54c:	0f 1f 40 00          	nop    DWORD PTR [rax+0x0]

000000000001d550 <__pow5mult>:
   1d550:	f3 0f 1e fa          	endbr64 
   1d554:	41 55                	push   r13
   1d556:	89 d0                	mov    eax,edx
   1d558:	49 89 fd             	mov    r13,rdi
   1d55b:	41 54                	push   r12
   1d55d:	49 89 f4             	mov    r12,rsi
   1d560:	55                   	push   rbp
   1d561:	53                   	push   rbx
   1d562:	89 d3                	mov    ebx,edx
   1d564:	48 83 ec 08          	sub    rsp,0x8
   1d568:	83 e0 03             	and    eax,0x3
   1d56b:	0f 85 97 00 00 00    	jne    1d608 <__pow5mult+0xb8>
   1d571:	c1 fb 02             	sar    ebx,0x2
   1d574:	74 58                	je     1d5ce <__pow5mult+0x7e>
   1d576:	49 8b 6d 60          	mov    rbp,QWORD PTR [r13+0x60]
   1d57a:	48 85 ed             	test   rbp,rbp
   1d57d:	75 19                	jne    1d598 <__pow5mult+0x48>
   1d57f:	e9 ac 00 00 00       	jmp    1d630 <__pow5mult+0xe0>
   1d584:	0f 1f 40 00          	nop    DWORD PTR [rax+0x0]
   1d588:	d1 fb                	sar    ebx,1
   1d58a:	74 42                	je     1d5ce <__pow5mult+0x7e>
   1d58c:	48 8b 45 00          	mov    rax,QWORD PTR [rbp+0x0]
   1d590:	48 85 c0             	test   rax,rax
   1d593:	74 4b                	je     1d5e0 <__pow5mult+0x90>
   1d595:	48 89 c5             	mov    rbp,rax
   1d598:	f6 c3 01             	test   bl,0x1
   1d59b:	74 eb                	je     1d588 <__pow5mult+0x38>
   1d59d:	48 89 ea             	mov    rdx,rbp
   1d5a0:	4c 89 e6             	mov    rsi,r12
   1d5a3:	4c 89 ef             	mov    rdi,r13
   1d5a6:	e8 55 fd ff ff       	call   1d300 <__multiply>
   1d5ab:	4d 85 e4             	test   r12,r12
   1d5ae:	74 50                	je     1d600 <__pow5mult+0xb0>
   1d5b0:	49 63 4c 24 08       	movsxd rcx,DWORD PTR [r12+0x8]
   1d5b5:	49 8b 55 68          	mov    rdx,QWORD PTR [r13+0x68]
   1d5b9:	d1 fb                	sar    ebx,1
   1d5bb:	48 8d 14 ca          	lea    rdx,[rdx+rcx*8]
   1d5bf:	48 8b 0a             	mov    rcx,QWORD PTR [rdx]
   1d5c2:	49 89 0c 24          	mov    QWORD PTR [r12],rcx
   1d5c6:	4c 89 22             	mov    QWORD PTR [rdx],r12
   1d5c9:	49 89 c4             	mov    r12,rax
   1d5cc:	75 be                	jne    1d58c <__pow5mult+0x3c>
   1d5ce:	48 83 c4 08          	add    rsp,0x8
   1d5d2:	4c 89 e0             	mov    rax,r12
   1d5d5:	5b                   	pop    rbx
   1d5d6:	5d                   	pop    rbp
   1d5d7:	41 5c                	pop    r12
   1d5d9:	41 5d                	pop    r13
   1d5db:	c3                   	ret    
   1d5dc:	0f 1f 40 00          	nop    DWORD PTR [rax+0x0]
   1d5e0:	48 89 ea             	mov    rdx,rbp
   1d5e3:	48 89 ee             	mov    rsi,rbp
   1d5e6:	4c 89 ef             	mov    rdi,r13
   1d5e9:	e8 12 fd ff ff       	call   1d300 <__multiply>
   1d5ee:	48 89 45 00          	mov    QWORD PTR [rbp+0x0],rax
   1d5f2:	48 c7 00 00 00 00 00 	mov    QWORD PTR [rax],0x0
   1d5f9:	eb 9a                	jmp    1d595 <__pow5mult+0x45>
   1d5fb:	0f 1f 44 00 00       	nop    DWORD PTR [rax+rax*1+0x0]
   1d600:	49 89 c4             	mov    r12,rax
   1d603:	eb 83                	jmp    1d588 <__pow5mult+0x38>
   1d605:	0f 1f 00             	nop    DWORD PTR [rax]
   1d608:	83 e8 01             	sub    eax,0x1
   1d60b:	48 8d 15 ce 34 ff ff 	lea    rdx,[rip+0xffffffffffff34ce]        # 10ae0 <p05.0>
   1d612:	31 c9                	xor    ecx,ecx
   1d614:	48 98                	cdqe   
   1d616:	8b 14 82             	mov    edx,DWORD PTR [rdx+rax*4]
   1d619:	e8 f2 f8 ff ff       	call   1cf10 <__multadd>
   1d61e:	49 89 c4             	mov    r12,rax
   1d621:	e9 4b ff ff ff       	jmp    1d571 <__pow5mult+0x21>
   1d626:	66 2e 0f 1f 84 00 00 	cs nop WORD PTR [rax+rax*1+0x0]
   1d62d:	00 00 00 
   1d630:	be 01 00 00 00       	mov    esi,0x1
   1d635:	4c 89 ef             	mov    rdi,r13
   1d638:	e8 13 f8 ff ff       	call   1ce50 <_Balloc>
   1d63d:	48 89 c5             	mov    rbp,rax
   1d640:	48 85 c0             	test   rax,rax
   1d643:	74 1f                	je     1d664 <__pow5mult+0x114>
   1d645:	48 b8 01 00 00 00 71 	movabs rax,0x27100000001
   1d64c:	02 00 00 
   1d64f:	48 89 45 14          	mov    QWORD PTR [rbp+0x14],rax
   1d653:	49 89 6d 60          	mov    QWORD PTR [r13+0x60],rbp
   1d657:	48 c7 45 00 00 00 00 	mov    QWORD PTR [rbp+0x0],0x0
   1d65e:	00 
   1d65f:	e9 34 ff ff ff       	jmp    1d598 <__pow5mult+0x48>
   1d664:	48 8d 0d 06 2d ff ff 	lea    rcx,[rip+0xffffffffffff2d06]        # 10371 <zeroes.0-0x2cf>
   1d66b:	31 d2                	xor    edx,edx
   1d66d:	be 45 01 00 00       	mov    esi,0x145
   1d672:	48 8d 3d e7 2a ff ff 	lea    rdi,[rip+0xffffffffffff2ae7]        # 10160 <zeroes.0-0x4e0>
   1d679:	e8 72 09 00 00       	call   1dff0 <__assert_func>
   1d67e:	66 90                	xchg   ax,ax

000000000001d680 <__lshift>:
   1d680:	f3 0f 1e fa          	endbr64 
   1d684:	41 57                	push   r15
   1d686:	41 89 d7             	mov    r15d,edx
   1d689:	41 56                	push   r14
   1d68b:	41 c1 ff 05          	sar    r15d,0x5
   1d68f:	41 89 d6             	mov    r14d,edx
   1d692:	41 55                	push   r13
   1d694:	41 54                	push   r12
   1d696:	49 89 fc             	mov    r12,rdi
   1d699:	55                   	push   rbp
   1d69a:	53                   	push   rbx
   1d69b:	48 89 f3             	mov    rbx,rsi
   1d69e:	48 83 ec 08          	sub    rsp,0x8
   1d6a2:	44 8b 6b 14          	mov    r13d,DWORD PTR [rbx+0x14]
   1d6a6:	8b 43 0c             	mov    eax,DWORD PTR [rbx+0xc]
   1d6a9:	8b 76 08             	mov    esi,DWORD PTR [rsi+0x8]
   1d6ac:	45 01 fd             	add    r13d,r15d
   1d6af:	41 8d 6d 01          	lea    ebp,[r13+0x1]
   1d6b3:	39 c5                	cmp    ebp,eax
   1d6b5:	7e 12                	jle    1d6c9 <__lshift+0x49>
   1d6b7:	66 0f 1f 84 00 00 00 	nop    WORD PTR [rax+rax*1+0x0]
   1d6be:	00 00 
   1d6c0:	01 c0                	add    eax,eax
   1d6c2:	83 c6 01             	add    esi,0x1
   1d6c5:	39 c5                	cmp    ebp,eax
   1d6c7:	7f f7                	jg     1d6c0 <__lshift+0x40>
   1d6c9:	4c 89 e7             	mov    rdi,r12
   1d6cc:	e8 7f f7 ff ff       	call   1ce50 <_Balloc>
   1d6d1:	49 89 c1             	mov    r9,rax
   1d6d4:	48 85 c0             	test   rax,rax
   1d6d7:	0f 84 e1 00 00 00    	je     1d7be <__lshift+0x13e>
   1d6dd:	48 8d 78 18          	lea    rdi,[rax+0x18]
   1d6e1:	45 85 ff             	test   r15d,r15d
   1d6e4:	7e 26                	jle    1d70c <__lshift+0x8c>
   1d6e6:	41 8d 47 ff          	lea    eax,[r15-0x1]
   1d6ea:	49 8d 54 81 1c       	lea    rdx,[r9+rax*4+0x1c]
   1d6ef:	48 89 f8             	mov    rax,rdi
   1d6f2:	66 0f 1f 44 00 00    	nop    WORD PTR [rax+rax*1+0x0]
   1d6f8:	48 83 c0 04          	add    rax,0x4
   1d6fc:	c7 40 fc 00 00 00 00 	mov    DWORD PTR [rax-0x4],0x0
   1d703:	48 39 d0             	cmp    rax,rdx
   1d706:	75 f0                	jne    1d6f8 <__lshift+0x78>
   1d708:	4a 8d 3c bf          	lea    rdi,[rdi+r15*4]
   1d70c:	48 63 43 14          	movsxd rax,DWORD PTR [rbx+0x14]
   1d710:	48 8d 73 18          	lea    rsi,[rbx+0x18]
   1d714:	4c 8d 14 86          	lea    r10,[rsi+rax*4]
   1d718:	41 83 e6 1f          	and    r14d,0x1f
   1d71c:	0f 84 8e 00 00 00    	je     1d7b0 <__lshift+0x130>
   1d722:	41 bb 20 00 00 00    	mov    r11d,0x20
   1d728:	49 89 f8             	mov    r8,rdi
   1d72b:	31 d2                	xor    edx,edx
   1d72d:	45 29 f3             	sub    r11d,r14d
   1d730:	8b 06                	mov    eax,DWORD PTR [rsi]
   1d732:	44 89 f1             	mov    ecx,r14d
   1d735:	49 83 c0 04          	add    r8,0x4
   1d739:	48 83 c6 04          	add    rsi,0x4
   1d73d:	d3 e0                	shl    eax,cl
   1d73f:	44 89 d9             	mov    ecx,r11d
   1d742:	09 d0                	or     eax,edx
   1d744:	41 89 40 fc          	mov    DWORD PTR [r8-0x4],eax
   1d748:	8b 56 fc             	mov    edx,DWORD PTR [rsi-0x4]
   1d74b:	d3 ea                	shr    edx,cl
   1d74d:	49 39 f2             	cmp    r10,rsi
   1d750:	77 de                	ja     1d730 <__lshift+0xb0>
   1d752:	4c 89 d0             	mov    rax,r10
   1d755:	48 8d 4b 19          	lea    rcx,[rbx+0x19]
   1d759:	48 29 d8             	sub    rax,rbx
   1d75c:	48 83 e8 19          	sub    rax,0x19
   1d760:	48 c1 e8 02          	shr    rax,0x2
   1d764:	49 39 ca             	cmp    r10,rcx
   1d767:	b9 04 00 00 00       	mov    ecx,0x4
   1d76c:	48 8d 04 85 04 00 00 	lea    rax,[rax*4+0x4]
   1d773:	00 
   1d774:	48 0f 42 c1          	cmovb  rax,rcx
   1d778:	85 d2                	test   edx,edx
   1d77a:	44 0f 45 ed          	cmovne r13d,ebp
   1d77e:	89 14 07             	mov    DWORD PTR [rdi+rax*1],edx
   1d781:	48 63 53 08          	movsxd rdx,DWORD PTR [rbx+0x8]
   1d785:	49 8b 44 24 68       	mov    rax,QWORD PTR [r12+0x68]
   1d78a:	45 89 69 14          	mov    DWORD PTR [r9+0x14],r13d
   1d78e:	48 8d 04 d0          	lea    rax,[rax+rdx*8]
   1d792:	48 8b 10             	mov    rdx,QWORD PTR [rax]
   1d795:	48 89 13             	mov    QWORD PTR [rbx],rdx
   1d798:	48 89 18             	mov    QWORD PTR [rax],rbx
   1d79b:	48 83 c4 08          	add    rsp,0x8
   1d79f:	4c 89 c8             	mov    rax,r9
   1d7a2:	5b                   	pop    rbx
   1d7a3:	5d                   	pop    rbp
   1d7a4:	41 5c                	pop    r12
   1d7a6:	41 5d                	pop    r13
   1d7a8:	41 5e                	pop    r14
   1d7aa:	41 5f                	pop    r15
   1d7ac:	c3                   	ret    
   1d7ad:	0f 1f 00             	nop    DWORD PTR [rax]
   1d7b0:	a5                   	movs   DWORD PTR es:[rdi],DWORD PTR ds:[rsi]
   1d7b1:	49 39 f2             	cmp    r10,rsi
   1d7b4:	76 cb                	jbe    1d781 <__lshift+0x101>
   1d7b6:	a5                   	movs   DWORD PTR es:[rdi],DWORD PTR ds:[rsi]
   1d7b7:	49 39 f2             	cmp    r10,rsi
   1d7ba:	77 f4                	ja     1d7b0 <__lshift+0x130>
   1d7bc:	eb c3                	jmp    1d781 <__lshift+0x101>
   1d7be:	48 8d 0d ac 2b ff ff 	lea    rcx,[rip+0xffffffffffff2bac]        # 10371 <zeroes.0-0x2cf>
   1d7c5:	31 d2                	xor    edx,edx
   1d7c7:	be de 01 00 00       	mov    esi,0x1de
   1d7cc:	48 8d 3d 8d 29 ff ff 	lea    rdi,[rip+0xffffffffffff298d]        # 10160 <zeroes.0-0x4e0>
   1d7d3:	e8 18 08 00 00       	call   1dff0 <__assert_func>
   1d7d8:	0f 1f 84 00 00 00 00 	nop    DWORD PTR [rax+rax*1+0x0]
   1d7df:	00 

000000000001d7e0 <__mcmp>:
   1d7e0:	f3 0f 1e fa          	endbr64 
   1d7e4:	48 63 46 14          	movsxd rax,DWORD PTR [rsi+0x14]
   1d7e8:	44 8b 47 14          	mov    r8d,DWORD PTR [rdi+0x14]
   1d7ec:	41 29 c0             	sub    r8d,eax
   1d7ef:	75 39                	jne    1d82a <__mcmp+0x4a>
   1d7f1:	48 8d 14 85 00 00 00 	lea    rdx,[rax*4+0x0]
   1d7f8:	00 
   1d7f9:	48 83 c7 18          	add    rdi,0x18
   1d7fd:	48 8d 04 17          	lea    rax,[rdi+rdx*1]
   1d801:	48 8d 54 16 18       	lea    rdx,[rsi+rdx*1+0x18]
   1d806:	eb 0d                	jmp    1d815 <__mcmp+0x35>
   1d808:	0f 1f 84 00 00 00 00 	nop    DWORD PTR [rax+rax*1+0x0]
   1d80f:	00 
   1d810:	48 39 c7             	cmp    rdi,rax
   1d813:	73 15                	jae    1d82a <__mcmp+0x4a>
   1d815:	48 83 e8 04          	sub    rax,0x4
   1d819:	48 83 ea 04          	sub    rdx,0x4
   1d81d:	8b 0a                	mov    ecx,DWORD PTR [rdx]
   1d81f:	39 08                	cmp    DWORD PTR [rax],ecx
   1d821:	74 ed                	je     1d810 <__mcmp+0x30>
   1d823:	45 19 c0             	sbb    r8d,r8d
   1d826:	41 83 c8 01          	or     r8d,0x1
   1d82a:	44 89 c0             	mov    eax,r8d
   1d82d:	c3                   	ret    
   1d82e:	66 90                	xchg   ax,ax

000000000001d830 <__mdiff>:
   1d830:	f3 0f 1e fa          	endbr64 
   1d834:	41 56                	push   r14
   1d836:	41 55                	push   r13
   1d838:	41 54                	push   r12
   1d83a:	55                   	push   rbp
   1d83b:	48 89 d5             	mov    rbp,rdx
   1d83e:	53                   	push   rbx
   1d83f:	48 63 42 14          	movsxd rax,DWORD PTR [rdx+0x14]
   1d843:	48 89 f3             	mov    rbx,rsi
   1d846:	44 8b 66 14          	mov    r12d,DWORD PTR [rsi+0x14]
   1d84a:	41 29 c4             	sub    r12d,eax
   1d84d:	0f 85 7d 01 00 00    	jne    1d9d0 <__mdiff+0x1a0>
   1d853:	48 8d 14 85 00 00 00 	lea    rdx,[rax*4+0x0]
   1d85a:	00 
   1d85b:	48 8d 4e 18          	lea    rcx,[rsi+0x18]
   1d85f:	48 8d 04 11          	lea    rax,[rcx+rdx*1]
   1d863:	48 8d 54 15 18       	lea    rdx,[rbp+rdx*1+0x18]
   1d868:	eb 0f                	jmp    1d879 <__mdiff+0x49>
   1d86a:	66 0f 1f 44 00 00    	nop    WORD PTR [rax+rax*1+0x0]
   1d870:	48 39 c1             	cmp    rcx,rax
   1d873:	0f 83 77 01 00 00    	jae    1d9f0 <__mdiff+0x1c0>
   1d879:	48 83 e8 04          	sub    rax,0x4
   1d87d:	48 83 ea 04          	sub    rdx,0x4
   1d881:	8b 32                	mov    esi,DWORD PTR [rdx]
   1d883:	39 30                	cmp    DWORD PTR [rax],esi
   1d885:	74 e9                	je     1d870 <__mdiff+0x40>
   1d887:	0f 82 4f 01 00 00    	jb     1d9dc <__mdiff+0x1ac>
   1d88d:	8b 73 08             	mov    esi,DWORD PTR [rbx+0x8]
   1d890:	e8 bb f5 ff ff       	call   1ce50 <_Balloc>
   1d895:	49 89 c0             	mov    r8,rax
   1d898:	48 85 c0             	test   rax,rax
   1d89b:	0f 84 72 01 00 00    	je     1da13 <__mdiff+0x1e3>
   1d8a1:	44 89 60 10          	mov    DWORD PTR [rax+0x10],r12d
   1d8a5:	48 63 43 14          	movsxd rax,DWORD PTR [rbx+0x14]
   1d8a9:	4c 8d 5b 18          	lea    r11,[rbx+0x18]
   1d8ad:	48 8d 55 18          	lea    rdx,[rbp+0x18]
   1d8b1:	4d 8d 60 18          	lea    r12,[r8+0x18]
   1d8b5:	b9 18 00 00 00       	mov    ecx,0x18
   1d8ba:	31 f6                	xor    esi,esi
   1d8bc:	48 89 c7             	mov    rdi,rax
   1d8bf:	4d 8d 0c 83          	lea    r9,[r11+rax*4]
   1d8c3:	48 63 45 14          	movsxd rax,DWORD PTR [rbp+0x14]
   1d8c7:	4c 8d 14 82          	lea    r10,[rdx+rax*4]
   1d8cb:	0f 1f 44 00 00       	nop    DWORD PTR [rax+rax*1+0x0]
   1d8d0:	8b 04 0b             	mov    eax,DWORD PTR [rbx+rcx*1]
   1d8d3:	44 8b 32             	mov    r14d,DWORD PTR [rdx]
   1d8d6:	48 83 c2 04          	add    rdx,0x4
   1d8da:	44 0f b7 e8          	movzx  r13d,ax
   1d8de:	c1 e8 10             	shr    eax,0x10
   1d8e1:	41 01 f5             	add    r13d,esi
   1d8e4:	41 0f b7 f6          	movzx  esi,r14w
   1d8e8:	41 c1 ee 10          	shr    r14d,0x10
   1d8ec:	41 29 f5             	sub    r13d,esi
   1d8ef:	44 29 f0             	sub    eax,r14d
   1d8f2:	44 89 ee             	mov    esi,r13d
   1d8f5:	45 0f b7 ed          	movzx  r13d,r13w
   1d8f9:	c1 fe 10             	sar    esi,0x10
   1d8fc:	01 f0                	add    eax,esi
   1d8fe:	89 c6                	mov    esi,eax
   1d900:	c1 e0 10             	shl    eax,0x10
   1d903:	44 09 e8             	or     eax,r13d
   1d906:	c1 fe 10             	sar    esi,0x10
   1d909:	41 89 04 08          	mov    DWORD PTR [r8+rcx*1],eax
   1d90d:	48 83 c1 04          	add    rcx,0x4
   1d911:	49 39 d2             	cmp    r10,rdx
   1d914:	77 ba                	ja     1d8d0 <__mdiff+0xa0>
   1d916:	4c 89 d2             	mov    rdx,r10
   1d919:	48 8d 4d 19          	lea    rcx,[rbp+0x19]
   1d91d:	48 29 ea             	sub    rdx,rbp
   1d920:	31 ed                	xor    ebp,ebp
   1d922:	48 83 ea 19          	sub    rdx,0x19
   1d926:	48 89 d3             	mov    rbx,rdx
   1d929:	48 83 e2 fc          	and    rdx,0xfffffffffffffffc
   1d92d:	48 c1 eb 02          	shr    rbx,0x2
   1d931:	49 39 ca             	cmp    r10,rcx
   1d934:	48 0f 42 d5          	cmovb  rdx,rbp
   1d938:	48 8d 1c 9d 04 00 00 	lea    rbx,[rbx*4+0x4]
   1d93f:	00 
   1d940:	4c 01 e2             	add    rdx,r12
   1d943:	49 39 ca             	cmp    r10,rcx
   1d946:	b9 04 00 00 00       	mov    ecx,0x4
   1d94b:	48 0f 42 d9          	cmovb  rbx,rcx
   1d94f:	49 01 db             	add    r11,rbx
   1d952:	4c 01 e3             	add    rbx,r12
   1d955:	4d 39 d9             	cmp    r9,r11
   1d958:	76 44                	jbe    1d99e <__mdiff+0x16e>
   1d95a:	49 89 da             	mov    r10,rbx
   1d95d:	4c 89 d9             	mov    rcx,r11
   1d960:	8b 01                	mov    eax,DWORD PTR [rcx]
   1d962:	49 83 c2 04          	add    r10,0x4
   1d966:	48 83 c1 04          	add    rcx,0x4
   1d96a:	0f b7 d0             	movzx  edx,ax
   1d96d:	c1 e8 10             	shr    eax,0x10
   1d970:	01 f2                	add    edx,esi
   1d972:	89 d6                	mov    esi,edx
   1d974:	0f b7 d2             	movzx  edx,dx
   1d977:	c1 fe 10             	sar    esi,0x10
   1d97a:	01 f0                	add    eax,esi
   1d97c:	89 c6                	mov    esi,eax
   1d97e:	c1 e0 10             	shl    eax,0x10
   1d981:	09 d0                	or     eax,edx
   1d983:	c1 fe 10             	sar    esi,0x10
   1d986:	41 89 42 fc          	mov    DWORD PTR [r10-0x4],eax
   1d98a:	49 39 c9             	cmp    r9,rcx
   1d98d:	77 d1                	ja     1d960 <__mdiff+0x130>
   1d98f:	49 83 e9 01          	sub    r9,0x1
   1d993:	4d 29 d9             	sub    r9,r11
   1d996:	49 83 e1 fc          	and    r9,0xfffffffffffffffc
   1d99a:	4a 8d 14 0b          	lea    rdx,[rbx+r9*1]
   1d99e:	85 c0                	test   eax,eax
   1d9a0:	75 14                	jne    1d9b6 <__mdiff+0x186>
   1d9a2:	66 0f 1f 44 00 00    	nop    WORD PTR [rax+rax*1+0x0]
   1d9a8:	8b 42 fc             	mov    eax,DWORD PTR [rdx-0x4]
   1d9ab:	48 83 ea 04          	sub    rdx,0x4
   1d9af:	83 ef 01             	sub    edi,0x1
   1d9b2:	85 c0                	test   eax,eax
   1d9b4:	74 f2                	je     1d9a8 <__mdiff+0x178>
   1d9b6:	41 89 78 14          	mov    DWORD PTR [r8+0x14],edi
   1d9ba:	4c 89 c0             	mov    rax,r8
   1d9bd:	5b                   	pop    rbx
   1d9be:	5d                   	pop    rbp
   1d9bf:	41 5c                	pop    r12
   1d9c1:	41 5d                	pop    r13
   1d9c3:	41 5e                	pop    r14
   1d9c5:	c3                   	ret    
   1d9c6:	66 2e 0f 1f 84 00 00 	cs nop WORD PTR [rax+rax*1+0x0]
   1d9cd:	00 00 00 
   1d9d0:	41 bc 00 00 00 00    	mov    r12d,0x0
   1d9d6:	0f 89 b1 fe ff ff    	jns    1d88d <__mdiff+0x5d>
   1d9dc:	48 89 d8             	mov    rax,rbx
   1d9df:	41 bc 01 00 00 00    	mov    r12d,0x1
   1d9e5:	48 89 eb             	mov    rbx,rbp
   1d9e8:	48 89 c5             	mov    rbp,rax
   1d9eb:	e9 9d fe ff ff       	jmp    1d88d <__mdiff+0x5d>
   1d9f0:	31 f6                	xor    esi,esi
   1d9f2:	e8 59 f4 ff ff       	call   1ce50 <_Balloc>
   1d9f7:	49 89 c0             	mov    r8,rax
   1d9fa:	48 85 c0             	test   rax,rax
   1d9fd:	74 2e                	je     1da2d <__mdiff+0x1fd>
   1d9ff:	49 c7 40 14 01 00 00 	mov    QWORD PTR [r8+0x14],0x1
   1da06:	00 
   1da07:	4c 89 c0             	mov    rax,r8
   1da0a:	5b                   	pop    rbx
   1da0b:	5d                   	pop    rbp
   1da0c:	41 5c                	pop    r12
   1da0e:	41 5d                	pop    r13
   1da10:	41 5e                	pop    r14
   1da12:	c3                   	ret    
   1da13:	48 8d 0d 57 29 ff ff 	lea    rcx,[rip+0xffffffffffff2957]        # 10371 <zeroes.0-0x2cf>
   1da1a:	31 d2                	xor    edx,edx
   1da1c:	be 45 02 00 00       	mov    esi,0x245
   1da21:	48 8d 3d 38 27 ff ff 	lea    rdi,[rip+0xffffffffffff2738]        # 10160 <zeroes.0-0x4e0>
   1da28:	e8 c3 05 00 00       	call   1dff0 <__assert_func>
   1da2d:	48 8d 0d 3d 29 ff ff 	lea    rcx,[rip+0xffffffffffff293d]        # 10371 <zeroes.0-0x2cf>
   1da34:	31 d2                	xor    edx,edx
   1da36:	be 37 02 00 00       	mov    esi,0x237
   1da3b:	48 8d 3d 1e 27 ff ff 	lea    rdi,[rip+0xffffffffffff271e]        # 10160 <zeroes.0-0x4e0>
   1da42:	e8 a9 05 00 00       	call   1dff0 <__assert_func>
   1da47:	66 0f 1f 84 00 00 00 	nop    WORD PTR [rax+rax*1+0x0]
   1da4e:	00 00 

000000000001da50 <__ulp>:
   1da50:	f3 0f 1e fa          	endbr64 
   1da54:	66 48 0f 7e c0       	movq   rax,xmm0
   1da59:	31 d2                	xor    edx,edx
   1da5b:	48 c1 e8 20          	shr    rax,0x20
   1da5f:	25 00 00 f0 7f       	and    eax,0x7ff00000
   1da64:	2d 00 00 40 03       	sub    eax,0x3400000
   1da69:	85 c0                	test   eax,eax
   1da6b:	7e 13                	jle    1da80 <__ulp+0x30>
   1da6d:	48 c1 e0 20          	shl    rax,0x20
   1da71:	48 09 d0             	or     rax,rdx
   1da74:	66 48 0f 6e c0       	movq   xmm0,rax
   1da79:	c3                   	ret    
   1da7a:	66 0f 1f 44 00 00    	nop    WORD PTR [rax+rax*1+0x0]
   1da80:	f7 d8                	neg    eax
   1da82:	89 c1                	mov    ecx,eax
   1da84:	c1 f9 14             	sar    ecx,0x14
   1da87:	3d ff ff 3f 01       	cmp    eax,0x13fffff
   1da8c:	7f 1a                	jg     1daa8 <__ulp+0x58>
   1da8e:	b8 00 00 08 00       	mov    eax,0x80000
   1da93:	31 d2                	xor    edx,edx
   1da95:	d3 f8                	sar    eax,cl
   1da97:	48 c1 e0 20          	shl    rax,0x20
   1da9b:	48 09 d0             	or     rax,rdx
   1da9e:	66 48 0f 6e c0       	movq   xmm0,rax
   1daa3:	c3                   	ret    
   1daa4:	0f 1f 40 00          	nop    DWORD PTR [rax+0x0]
   1daa8:	83 e9 14             	sub    ecx,0x14
   1daab:	ba 00 00 00 80       	mov    edx,0x80000000
   1dab0:	b8 01 00 00 00       	mov    eax,0x1
   1dab5:	d3 ea                	shr    edx,cl
   1dab7:	83 f9 1f             	cmp    ecx,0x1f
   1daba:	48 0f 4d d0          	cmovge rdx,rax
   1dabe:	31 c0                	xor    eax,eax
   1dac0:	48 c1 e0 20          	shl    rax,0x20
   1dac4:	48 09 d0             	or     rax,rdx
   1dac7:	66 48 0f 6e c0       	movq   xmm0,rax
   1dacc:	c3                   	ret    
   1dacd:	0f 1f 00             	nop    DWORD PTR [rax]

000000000001dad0 <__b2d>:
   1dad0:	f3 0f 1e fa          	endbr64 
   1dad4:	48 63 47 14          	movsxd rax,DWORD PTR [rdi+0x14]
   1dad8:	4c 8d 4f 18          	lea    r9,[rdi+0x18]
   1dadc:	b9 20 00 00 00       	mov    ecx,0x20
   1dae1:	4d 8d 04 81          	lea    r8,[r9+rax*4]
   1dae5:	45 8b 50 fc          	mov    r10d,DWORD PTR [r8-0x4]
   1dae9:	4d 8d 58 fc          	lea    r11,[r8-0x4]
   1daed:	44 89 d7             	mov    edi,r10d
   1daf0:	e8 6b f6 ff ff       	call   1d160 <__hi0bits>
   1daf5:	89 cf                	mov    edi,ecx
   1daf7:	29 c7                	sub    edi,eax
   1daf9:	89 3e                	mov    DWORD PTR [rsi],edi
   1dafb:	83 f8 0a             	cmp    eax,0xa
   1dafe:	7e 70                	jle    1db70 <__b2d+0xa0>
   1db00:	83 e8 0b             	sub    eax,0xb
   1db03:	4d 39 d9             	cmp    r9,r11
   1db06:	73 48                	jae    1db50 <__b2d+0x80>
   1db08:	41 8b 70 f8          	mov    esi,DWORD PTR [r8-0x8]
   1db0c:	85 c0                	test   eax,eax
   1db0e:	74 46                	je     1db56 <__b2d+0x86>
   1db10:	29 c1                	sub    ecx,eax
   1db12:	44 89 d2             	mov    edx,r10d
   1db15:	41 89 f3             	mov    r11d,esi
   1db18:	89 cf                	mov    edi,ecx
   1db1a:	89 c1                	mov    ecx,eax
   1db1c:	d3 e2                	shl    edx,cl
   1db1e:	89 f9                	mov    ecx,edi
   1db20:	41 d3 eb             	shr    r11d,cl
   1db23:	89 c1                	mov    ecx,eax
   1db25:	49 8d 40 f8          	lea    rax,[r8-0x8]
   1db29:	44 09 da             	or     edx,r11d
   1db2c:	d3 e6                	shl    esi,cl
   1db2e:	81 ca 00 00 f0 3f    	or     edx,0x3ff00000
   1db34:	48 c1 e2 20          	shl    rdx,0x20
   1db38:	49 39 c1             	cmp    r9,rax
   1db3b:	73 26                	jae    1db63 <__b2d+0x93>
   1db3d:	41 8b 40 f4          	mov    eax,DWORD PTR [r8-0xc]
   1db41:	89 f9                	mov    ecx,edi
   1db43:	d3 e8                	shr    eax,cl
   1db45:	09 c6                	or     esi,eax
   1db47:	48 09 f2             	or     rdx,rsi
   1db4a:	66 48 0f 6e c2       	movq   xmm0,rdx
   1db4f:	c3                   	ret    
   1db50:	31 f6                	xor    esi,esi
   1db52:	85 c0                	test   eax,eax
   1db54:	75 5a                	jne    1dbb0 <__b2d+0xe0>
   1db56:	44 89 d2             	mov    edx,r10d
   1db59:	81 ca 00 00 f0 3f    	or     edx,0x3ff00000
   1db5f:	48 c1 e2 20          	shl    rdx,0x20
   1db63:	48 09 f2             	or     rdx,rsi
   1db66:	66 48 0f 6e c2       	movq   xmm0,rdx
   1db6b:	c3                   	ret    
   1db6c:	0f 1f 40 00          	nop    DWORD PTR [rax+0x0]
   1db70:	b9 0b 00 00 00       	mov    ecx,0xb
   1db75:	44 89 d2             	mov    edx,r10d
   1db78:	31 ff                	xor    edi,edi
   1db7a:	29 c1                	sub    ecx,eax
   1db7c:	d3 ea                	shr    edx,cl
   1db7e:	81 ca 00 00 f0 3f    	or     edx,0x3ff00000
   1db84:	48 c1 e2 20          	shl    rdx,0x20
   1db88:	4d 39 d9             	cmp    r9,r11
   1db8b:	73 06                	jae    1db93 <__b2d+0xc3>
   1db8d:	41 8b 78 f8          	mov    edi,DWORD PTR [r8-0x8]
   1db91:	d3 ef                	shr    edi,cl
   1db93:	8d 48 15             	lea    ecx,[rax+0x15]
   1db96:	44 89 d6             	mov    esi,r10d
   1db99:	d3 e6                	shl    esi,cl
   1db9b:	09 fe                	or     esi,edi
   1db9d:	48 09 f2             	or     rdx,rsi
   1dba0:	66 48 0f 6e c2       	movq   xmm0,rdx
   1dba5:	c3                   	ret    
   1dba6:	66 2e 0f 1f 84 00 00 	cs nop WORD PTR [rax+rax*1+0x0]
   1dbad:	00 00 00 
   1dbb0:	44 89 d2             	mov    edx,r10d
   1dbb3:	89 c1                	mov    ecx,eax
   1dbb5:	31 f6                	xor    esi,esi
   1dbb7:	d3 e2                	shl    edx,cl
   1dbb9:	81 ca 00 00 f0 3f    	or     edx,0x3ff00000
   1dbbf:	48 c1 e2 20          	shl    rdx,0x20
   1dbc3:	48 09 f2             	or     rdx,rsi
   1dbc6:	66 48 0f 6e c2       	movq   xmm0,rdx
   1dbcb:	c3                   	ret    
   1dbcc:	0f 1f 40 00          	nop    DWORD PTR [rax+0x0]

000000000001dbd0 <__d2b>:
   1dbd0:	f3 0f 1e fa          	endbr64 
   1dbd4:	41 54                	push   r12
   1dbd6:	66 49 0f 7e c4       	movq   r12,xmm0
   1dbdb:	55                   	push   rbp
   1dbdc:	48 89 f5             	mov    rbp,rsi
   1dbdf:	be 01 00 00 00       	mov    esi,0x1
   1dbe4:	53                   	push   rbx
   1dbe5:	48 89 d3             	mov    rbx,rdx
   1dbe8:	48 83 ec 10          	sub    rsp,0x10
   1dbec:	64 48 8b 04 25 28 00 	mov    rax,QWORD PTR fs:0x28
   1dbf3:	00 00 
   1dbf5:	48 89 44 24 08       	mov    QWORD PTR [rsp+0x8],rax
   1dbfa:	31 c0                	xor    eax,eax
   1dbfc:	e8 4f f2 ff ff       	call   1ce50 <_Balloc>
   1dc01:	48 85 c0             	test   rax,rax
   1dc04:	0f 84 04 01 00 00    	je     1dd0e <__d2b+0x13e>
   1dc0a:	49 89 c1             	mov    r9,rax
   1dc0d:	4c 89 e0             	mov    rax,r12
   1dc10:	48 c1 e8 20          	shr    rax,0x20
   1dc14:	89 c6                	mov    esi,eax
   1dc16:	c1 e8 14             	shr    eax,0x14
   1dc19:	81 e6 ff ff 0f 00    	and    esi,0xfffff
   1dc1f:	89 f7                	mov    edi,esi
   1dc21:	81 cf 00 00 10 00    	or     edi,0x100000
   1dc27:	25 ff 07 00 00       	and    eax,0x7ff
   1dc2c:	0f 45 f7             	cmovne esi,edi
   1dc2f:	89 c2                	mov    edx,eax
   1dc31:	89 74 24 04          	mov    DWORD PTR [rsp+0x4],esi
   1dc35:	45 85 e4             	test   r12d,r12d
   1dc38:	75 56                	jne    1dc90 <__d2b+0xc0>
   1dc3a:	48 8d 7c 24 04       	lea    rdi,[rsp+0x4]
   1dc3f:	be 01 00 00 00       	mov    esi,0x1
   1dc44:	e8 77 f5 ff ff       	call   1d1c0 <__lo0bits>
   1dc49:	8b 4c 24 04          	mov    ecx,DWORD PTR [rsp+0x4]
   1dc4d:	41 89 71 14          	mov    DWORD PTR [r9+0x14],esi
   1dc51:	83 c0 20             	add    eax,0x20
   1dc54:	41 89 49 18          	mov    DWORD PTR [r9+0x18],ecx
   1dc58:	85 d2                	test   edx,edx
   1dc5a:	74 7b                	je     1dcd7 <__d2b+0x107>
   1dc5c:	8d 94 02 cd fb ff ff 	lea    edx,[rdx+rax*1-0x433]
   1dc63:	be 35 00 00 00       	mov    esi,0x35
   1dc68:	89 55 00             	mov    DWORD PTR [rbp+0x0],edx
   1dc6b:	29 c6                	sub    esi,eax
   1dc6d:	89 33                	mov    DWORD PTR [rbx],esi
   1dc6f:	48 8b 44 24 08       	mov    rax,QWORD PTR [rsp+0x8]
   1dc74:	64 48 2b 04 25 28 00 	sub    rax,QWORD PTR fs:0x28
   1dc7b:	00 00 
   1dc7d:	0f 85 86 00 00 00    	jne    1dd09 <__d2b+0x139>
   1dc83:	48 83 c4 10          	add    rsp,0x10
   1dc87:	4c 89 c8             	mov    rax,r9
   1dc8a:	5b                   	pop    rbx
   1dc8b:	5d                   	pop    rbp
   1dc8c:	41 5c                	pop    r12
   1dc8e:	c3                   	ret    
   1dc8f:	90                   	nop
   1dc90:	48 89 e7             	mov    rdi,rsp
   1dc93:	44 89 24 24          	mov    DWORD PTR [rsp],r12d
   1dc97:	e8 24 f5 ff ff       	call   1d1c0 <__lo0bits>
   1dc9c:	8b 74 24 04          	mov    esi,DWORD PTR [rsp+0x4]
   1dca0:	85 c0                	test   eax,eax
   1dca2:	74 5c                	je     1dd00 <__d2b+0x130>
   1dca4:	b9 20 00 00 00       	mov    ecx,0x20
   1dca9:	89 f7                	mov    edi,esi
   1dcab:	29 c1                	sub    ecx,eax
   1dcad:	d3 e7                	shl    edi,cl
   1dcaf:	8b 0c 24             	mov    ecx,DWORD PTR [rsp]
   1dcb2:	09 f9                	or     ecx,edi
   1dcb4:	41 89 49 18          	mov    DWORD PTR [r9+0x18],ecx
   1dcb8:	89 c1                	mov    ecx,eax
   1dcba:	d3 ee                	shr    esi,cl
   1dcbc:	89 74 24 04          	mov    DWORD PTR [rsp+0x4],esi
   1dcc0:	83 fe 01             	cmp    esi,0x1
   1dcc3:	41 89 71 1c          	mov    DWORD PTR [r9+0x1c],esi
   1dcc7:	be 01 00 00 00       	mov    esi,0x1
   1dccc:	83 de ff             	sbb    esi,0xffffffff
   1dccf:	41 89 71 14          	mov    DWORD PTR [r9+0x14],esi
   1dcd3:	85 d2                	test   edx,edx
   1dcd5:	75 85                	jne    1dc5c <__d2b+0x8c>
   1dcd7:	2d 32 04 00 00       	sub    eax,0x432
   1dcdc:	89 45 00             	mov    DWORD PTR [rbp+0x0],eax
   1dcdf:	48 63 c6             	movsxd rax,esi
   1dce2:	c1 e6 05             	shl    esi,0x5
   1dce5:	41 8b 7c 81 14       	mov    edi,DWORD PTR [r9+rax*4+0x14]
   1dcea:	e8 71 f4 ff ff       	call   1d160 <__hi0bits>
   1dcef:	29 c6                	sub    esi,eax
   1dcf1:	e9 77 ff ff ff       	jmp    1dc6d <__d2b+0x9d>
   1dcf6:	66 2e 0f 1f 84 00 00 	cs nop WORD PTR [rax+rax*1+0x0]
   1dcfd:	00 00 00 
   1dd00:	8b 0c 24             	mov    ecx,DWORD PTR [rsp]
   1dd03:	41 89 49 18          	mov    DWORD PTR [r9+0x18],ecx
   1dd07:	eb b7                	jmp    1dcc0 <__d2b+0xf0>
   1dd09:	e8 72 b8 ff ff       	call   19580 <__stack_chk_fail>
   1dd0e:	48 8d 0d 5c 26 ff ff 	lea    rcx,[rip+0xffffffffffff265c]        # 10371 <zeroes.0-0x2cf>
   1dd15:	31 d2                	xor    edx,edx
   1dd17:	be 0f 03 00 00       	mov    esi,0x30f
   1dd1c:	48 8d 3d 3d 24 ff ff 	lea    rdi,[rip+0xffffffffffff243d]        # 10160 <zeroes.0-0x4e0>
   1dd23:	e8 c8 02 00 00       	call   1dff0 <__assert_func>
   1dd28:	0f 1f 84 00 00 00 00 	nop    DWORD PTR [rax+rax*1+0x0]
   1dd2f:	00 

000000000001dd30 <__ratio>:
   1dd30:	f3 0f 1e fa          	endbr64 
   1dd34:	41 54                	push   r12
   1dd36:	49 89 fc             	mov    r12,rdi
   1dd39:	55                   	push   rbp
   1dd3a:	48 89 f5             	mov    rbp,rsi
   1dd3d:	53                   	push   rbx
   1dd3e:	48 83 ec 10          	sub    rsp,0x10
   1dd42:	64 48 8b 04 25 28 00 	mov    rax,QWORD PTR fs:0x28
   1dd49:	00 00 
   1dd4b:	48 89 44 24 08       	mov    QWORD PTR [rsp+0x8],rax
   1dd50:	31 c0                	xor    eax,eax
   1dd52:	48 89 e6             	mov    rsi,rsp
   1dd55:	e8 76 fd ff ff       	call   1dad0 <__b2d>
   1dd5a:	48 8d 74 24 04       	lea    rsi,[rsp+0x4]
   1dd5f:	48 89 ef             	mov    rdi,rbp
   1dd62:	66 0f 28 c8          	movapd xmm1,xmm0
   1dd66:	66 48 0f 7e c3       	movq   rbx,xmm0
   1dd6b:	e8 60 fd ff ff       	call   1dad0 <__b2d>
   1dd70:	41 8b 44 24 14       	mov    eax,DWORD PTR [r12+0x14]
   1dd75:	2b 45 14             	sub    eax,DWORD PTR [rbp+0x14]
   1dd78:	c1 e0 05             	shl    eax,0x5
   1dd7b:	03 04 24             	add    eax,DWORD PTR [rsp]
   1dd7e:	2b 44 24 04          	sub    eax,DWORD PTR [rsp+0x4]
   1dd82:	85 c0                	test   eax,eax
   1dd84:	7e 42                	jle    1ddc8 <__ratio+0x98>
   1dd86:	66 48 0f 7e ca       	movq   rdx,xmm1
   1dd8b:	c1 e0 14             	shl    eax,0x14
   1dd8e:	48 c1 ea 20          	shr    rdx,0x20
   1dd92:	01 c2                	add    edx,eax
   1dd94:	89 d8                	mov    eax,ebx
   1dd96:	89 d2                	mov    edx,edx
   1dd98:	48 c1 e2 20          	shl    rdx,0x20
   1dd9c:	48 09 d0             	or     rax,rdx
   1dd9f:	66 48 0f 6e c8       	movq   xmm1,rax
   1dda4:	f2 0f 5e c8          	divsd  xmm1,xmm0
   1dda8:	48 8b 44 24 08       	mov    rax,QWORD PTR [rsp+0x8]
   1ddad:	64 48 2b 04 25 28 00 	sub    rax,QWORD PTR fs:0x28
   1ddb4:	00 00 
   1ddb6:	75 33                	jne    1ddeb <__ratio+0xbb>
   1ddb8:	48 83 c4 10          	add    rsp,0x10
   1ddbc:	66 0f 28 c1          	movapd xmm0,xmm1
   1ddc0:	5b                   	pop    rbx
   1ddc1:	5d                   	pop    rbp
   1ddc2:	41 5c                	pop    r12
   1ddc4:	c3                   	ret    
   1ddc5:	0f 1f 00             	nop    DWORD PTR [rax]
   1ddc8:	66 48 0f 7e c2       	movq   rdx,xmm0
   1ddcd:	c1 e0 14             	shl    eax,0x14
   1ddd0:	66 48 0f 7e c1       	movq   rcx,xmm0
   1ddd5:	48 c1 ea 20          	shr    rdx,0x20
   1ddd9:	29 c2                	sub    edx,eax
   1dddb:	89 c8                	mov    eax,ecx
   1dddd:	48 c1 e2 20          	shl    rdx,0x20
   1dde1:	48 09 d0             	or     rax,rdx
   1dde4:	66 48 0f 6e c0       	movq   xmm0,rax
   1dde9:	eb b9                	jmp    1dda4 <__ratio+0x74>
   1ddeb:	e8 90 b7 ff ff       	call   19580 <__stack_chk_fail>

000000000001ddf0 <_mprec_log10>:
   1ddf0:	f3 0f 1e fa          	endbr64 
   1ddf4:	83 ff 17             	cmp    edi,0x17
   1ddf7:	7e 27                	jle    1de20 <_mprec_log10+0x30>
   1ddf9:	f2 0f 10 05 97 26 ff 	movsd  xmm0,QWORD PTR [rip+0xffffffffffff2697]        # 10498 <zeroes.0-0x1a8>
   1de00:	ff 
   1de01:	f2 0f 10 0d 6f 26 ff 	movsd  xmm1,QWORD PTR [rip+0xffffffffffff266f]        # 10478 <zeroes.0-0x1c8>
   1de08:	ff 
   1de09:	0f 1f 80 00 00 00 00 	nop    DWORD PTR [rax+0x0]
   1de10:	f2 0f 59 c1          	mulsd  xmm0,xmm1
   1de14:	83 ef 01             	sub    edi,0x1
   1de17:	75 f7                	jne    1de10 <_mprec_log10+0x20>
   1de19:	c3                   	ret    
   1de1a:	66 0f 1f 44 00 00    	nop    WORD PTR [rax+rax*1+0x0]
   1de20:	48 63 ff             	movsxd rdi,edi
   1de23:	48 8d 05 56 2d ff ff 	lea    rax,[rip+0xffffffffffff2d56]        # 10b80 <__mprec_tens>
   1de2a:	f2 0f 10 04 f8       	movsd  xmm0,QWORD PTR [rax+rdi*8]
   1de2f:	c3                   	ret    

000000000001de30 <__copybits>:
   1de30:	f3 0f 1e fa          	endbr64 
   1de34:	8d 4e ff             	lea    ecx,[rsi-0x1]
   1de37:	48 8d 72 18          	lea    rsi,[rdx+0x18]
   1de3b:	48 89 f8             	mov    rax,rdi
   1de3e:	c1 f9 05             	sar    ecx,0x5
   1de41:	8d 49 01             	lea    ecx,[rcx+0x1]
   1de44:	48 63 c9             	movsxd rcx,ecx
   1de47:	4c 8d 04 8f          	lea    r8,[rdi+rcx*4]
   1de4b:	48 63 4a 14          	movsxd rcx,DWORD PTR [rdx+0x14]
   1de4f:	48 8d 0c 8e          	lea    rcx,[rsi+rcx*4]
   1de53:	48 39 ce             	cmp    rsi,rcx
   1de56:	73 32                	jae    1de8a <__copybits+0x5a>
   1de58:	0f 1f 84 00 00 00 00 	nop    DWORD PTR [rax+rax*1+0x0]
   1de5f:	00 
   1de60:	a5                   	movs   DWORD PTR es:[rdi],DWORD PTR ds:[rsi]
   1de61:	48 39 f1             	cmp    rcx,rsi
   1de64:	77 fa                	ja     1de60 <__copybits+0x30>
   1de66:	48 29 d1             	sub    rcx,rdx
   1de69:	48 8d 51 e7          	lea    rdx,[rcx-0x19]
   1de6d:	48 c1 ea 02          	shr    rdx,0x2
   1de71:	48 8d 44 90 04       	lea    rax,[rax+rdx*4+0x4]
   1de76:	49 39 c0             	cmp    r8,rax
   1de79:	76 14                	jbe    1de8f <__copybits+0x5f>
   1de7b:	0f 1f 44 00 00       	nop    DWORD PTR [rax+rax*1+0x0]
   1de80:	c7 00 00 00 00 00    	mov    DWORD PTR [rax],0x0
   1de86:	48 83 c0 04          	add    rax,0x4
   1de8a:	49 39 c0             	cmp    r8,rax
   1de8d:	77 f1                	ja     1de80 <__copybits+0x50>
   1de8f:	c3                   	ret    

000000000001de90 <__any_on>:
   1de90:	f3 0f 1e fa          	endbr64 
   1de94:	48 63 4f 14          	movsxd rcx,DWORD PTR [rdi+0x14]
   1de98:	48 8d 57 18          	lea    rdx,[rdi+0x18]
   1de9c:	89 f7                	mov    edi,esi
   1de9e:	c1 ff 05             	sar    edi,0x5
   1dea1:	39 f9                	cmp    ecx,edi
   1dea3:	7d 2b                	jge    1ded0 <__any_on+0x40>
   1dea5:	48 8d 04 8a          	lea    rax,[rdx+rcx*4]
   1dea9:	eb 10                	jmp    1debb <__any_on+0x2b>
   1deab:	0f 1f 44 00 00       	nop    DWORD PTR [rax+rax*1+0x0]
   1deb0:	8b 48 fc             	mov    ecx,DWORD PTR [rax-0x4]
   1deb3:	48 83 e8 04          	sub    rax,0x4
   1deb7:	85 c9                	test   ecx,ecx
   1deb9:	75 45                	jne    1df00 <__any_on+0x70>
   1debb:	48 39 d0             	cmp    rax,rdx
   1debe:	77 f0                	ja     1deb0 <__any_on+0x20>
   1dec0:	45 31 c0             	xor    r8d,r8d
   1dec3:	44 89 c0             	mov    eax,r8d
   1dec6:	c3                   	ret    
   1dec7:	66 0f 1f 84 00 00 00 	nop    WORD PTR [rax+rax*1+0x0]
   1dece:	00 00 
   1ded0:	48 63 c7             	movsxd rax,edi
   1ded3:	48 8d 04 82          	lea    rax,[rdx+rax*4]
   1ded7:	7e e2                	jle    1debb <__any_on+0x2b>
   1ded9:	83 e6 1f             	and    esi,0x1f
   1dedc:	74 dd                	je     1debb <__any_on+0x2b>
   1dede:	44 8b 08             	mov    r9d,DWORD PTR [rax]
   1dee1:	89 f1                	mov    ecx,esi
   1dee3:	41 b8 01 00 00 00    	mov    r8d,0x1
   1dee9:	44 89 cf             	mov    edi,r9d
   1deec:	d3 ef                	shr    edi,cl
   1deee:	d3 e7                	shl    edi,cl
   1def0:	41 39 f9             	cmp    r9d,edi
   1def3:	75 ce                	jne    1dec3 <__any_on+0x33>
   1def5:	eb c4                	jmp    1debb <__any_on+0x2b>
   1def7:	66 0f 1f 84 00 00 00 	nop    WORD PTR [rax+rax*1+0x0]
   1defe:	00 00 
   1df00:	41 b8 01 00 00 00    	mov    r8d,0x1
   1df06:	44 89 c0             	mov    eax,r8d
   1df09:	c3                   	ret    
   1df0a:	cc                   	int3   
   1df0b:	cc                   	int3   
   1df0c:	cc                   	int3   
   1df0d:	cc                   	int3   
   1df0e:	cc                   	int3   
   1df0f:	cc                   	int3   

000000000001df10 <_calloc_r>:
   1df10:	f3 0f 1e fa          	endbr64 
   1df14:	48 89 f0             	mov    rax,rsi
   1df17:	41 54                	push   r12
   1df19:	48 f7 e2             	mul    rdx
   1df1c:	0f 80 a4 00 00 00    	jo     1dfc6 <_calloc_r+0xb6>
   1df22:	48 89 c6             	mov    rsi,rax
   1df25:	e8 56 81 ff ff       	call   16080 <_malloc_r>
   1df2a:	49 89 c4             	mov    r12,rax
   1df2d:	48 85 c0             	test   rax,rax
   1df30:	74 48                	je     1df7a <_calloc_r+0x6a>
   1df32:	48 8b 50 f8          	mov    rdx,QWORD PTR [rax-0x8]
   1df36:	48 83 e2 fc          	and    rdx,0xfffffffffffffffc
   1df3a:	48 83 ea 08          	sub    rdx,0x8
   1df3e:	48 83 fa 48          	cmp    rdx,0x48
   1df42:	77 3c                	ja     1df80 <_calloc_r+0x70>
   1df44:	48 83 fa 27          	cmp    rdx,0x27
   1df48:	76 19                	jbe    1df63 <_calloc_r+0x53>
   1df4a:	48 c7 00 00 00 00 00 	mov    QWORD PTR [rax],0x0
   1df51:	48 8d 40 10          	lea    rax,[rax+0x10]
   1df55:	48 c7 40 f8 00 00 00 	mov    QWORD PTR [rax-0x8],0x0
   1df5c:	00 
   1df5d:	48 83 fa 37          	cmp    rdx,0x37
   1df61:	77 2d                	ja     1df90 <_calloc_r+0x80>
   1df63:	48 c7 00 00 00 00 00 	mov    QWORD PTR [rax],0x0
   1df6a:	48 c7 40 08 00 00 00 	mov    QWORD PTR [rax+0x8],0x0
   1df71:	00 
   1df72:	48 c7 40 10 00 00 00 	mov    QWORD PTR [rax+0x10],0x0
   1df79:	00 
   1df7a:	4c 89 e0             	mov    rax,r12
   1df7d:	41 5c                	pop    r12
   1df7f:	c3                   	ret    
   1df80:	31 f6                	xor    esi,esi
   1df82:	48 89 c7             	mov    rdi,rax
   1df85:	e8 46 8b ff ff       	call   16ad0 <memset>
   1df8a:	4c 89 e0             	mov    rax,r12
   1df8d:	41 5c                	pop    r12
   1df8f:	c3                   	ret    
   1df90:	49 c7 44 24 10 00 00 	mov    QWORD PTR [r12+0x10],0x0
   1df97:	00 00 
   1df99:	49 8d 44 24 20       	lea    rax,[r12+0x20]
   1df9e:	49 c7 44 24 18 00 00 	mov    QWORD PTR [r12+0x18],0x0
   1dfa5:	00 00 
   1dfa7:	48 83 fa 48          	cmp    rdx,0x48
   1dfab:	75 b6                	jne    1df63 <_calloc_r+0x53>
   1dfad:	49 c7 44 24 20 00 00 	mov    QWORD PTR [r12+0x20],0x0
   1dfb4:	00 00 
   1dfb6:	49 8d 44 24 30       	lea    rax,[r12+0x30]
   1dfbb:	49 c7 44 24 28 00 00 	mov    QWORD PTR [r12+0x28],0x0
   1dfc2:	00 00 
   1dfc4:	eb 9d                	jmp    1df63 <_calloc_r+0x53>
   1dfc6:	e8 15 00 00 00       	call   1dfe0 <__errno>
   1dfcb:	45 31 e4             	xor    r12d,r12d
   1dfce:	c7 00 0c 00 00 00    	mov    DWORD PTR [rax],0xc
   1dfd4:	eb a4                	jmp    1df7a <_calloc_r+0x6a>
   1dfd6:	cc                   	int3   
   1dfd7:	cc                   	int3   
   1dfd8:	cc                   	int3   
   1dfd9:	cc                   	int3   
   1dfda:	cc                   	int3   
   1dfdb:	cc                   	int3   
   1dfdc:	cc                   	int3   
   1dfdd:	cc                   	int3   
   1dfde:	cc                   	int3   
   1dfdf:	cc                   	int3   

000000000001dfe0 <__errno>:
   1dfe0:	f3 0f 1e fa          	endbr64 
   1dfe4:	48 8b 05 15 5e 00 00 	mov    rax,QWORD PTR [rip+0x5e15]        # 23e00 <_impure_ptr>
   1dfeb:	c3                   	ret    
   1dfec:	cc                   	int3   
   1dfed:	cc                   	int3   
   1dfee:	cc                   	int3   
   1dfef:	cc                   	int3   

000000000001dff0 <__assert_func>:
   1dff0:	f3 0f 1e fa          	endbr64 
   1dff4:	50                   	push   rax
   1dff5:	58                   	pop    rax
   1dff6:	4c 8d 0d 9d 22 ff ff 	lea    r9,[rip+0xffffffffffff229d]        # 1029a <zeroes.0-0x3a6>
   1dffd:	48 89 d0             	mov    rax,rdx
   1e000:	48 83 ec 08          	sub    rsp,0x8
   1e004:	49 89 fa             	mov    r10,rdi
   1e007:	41 89 f0             	mov    r8d,esi
   1e00a:	48 89 ca             	mov    rdx,rcx
   1e00d:	48 85 c0             	test   rax,rax
   1e010:	74 26                	je     1e038 <__assert_func+0x48>
   1e012:	48 8b 0d e7 5d 00 00 	mov    rcx,QWORD PTR [rip+0x5de7]        # 23e00 <_impure_ptr>
   1e019:	48 83 ec 08          	sub    rsp,0x8
   1e01d:	48 8d 35 24 2c ff ff 	lea    rsi,[rip+0xffffffffffff2c24]        # 10c48 <__mprec_tens+0xc8>
   1e024:	48 8b 79 18          	mov    rdi,QWORD PTR [rcx+0x18]
   1e028:	50                   	push   rax
   1e029:	4c 89 d1             	mov    rcx,r10
   1e02c:	31 c0                	xor    eax,eax
   1e02e:	e8 ed 00 00 00       	call   1e120 <fiprintf>
   1e033:	e8 38 26 00 00       	call   20670 <abort>
   1e038:	48 8d 05 b9 23 ff ff 	lea    rax,[rip+0xffffffffffff23b9]        # 103f8 <zeroes.0-0x248>
   1e03f:	49 89 c1             	mov    r9,rax
   1e042:	eb ce                	jmp    1e012 <__assert_func+0x22>
   1e044:	66 66 2e 0f 1f 84 00 	data16 cs nop WORD PTR [rax+rax*1+0x0]
   1e04b:	00 00 00 00 
   1e04f:	90                   	nop

000000000001e050 <__assert>:
   1e050:	f3 0f 1e fa          	endbr64 
   1e054:	50                   	push   rax
   1e055:	58                   	pop    rax
   1e056:	48 89 d1             	mov    rcx,rdx
   1e059:	48 83 ec 08          	sub    rsp,0x8
   1e05d:	31 d2                	xor    edx,edx
   1e05f:	e8 8c ff ff ff       	call   1dff0 <__assert_func>
   1e064:	cc                   	int3   
   1e065:	cc                   	int3   
   1e066:	cc                   	int3   
   1e067:	cc                   	int3   
   1e068:	cc                   	int3   
   1e069:	cc                   	int3   
   1e06a:	cc                   	int3   
   1e06b:	cc                   	int3   
   1e06c:	cc                   	int3   
   1e06d:	cc                   	int3   
   1e06e:	cc                   	int3   
   1e06f:	cc                   	int3   

000000000001e070 <_fiprintf_r>:
   1e070:	f3 0f 1e fa          	endbr64 
   1e074:	48 81 ec d8 00 00 00 	sub    rsp,0xd8
   1e07b:	48 89 4c 24 38       	mov    QWORD PTR [rsp+0x38],rcx
   1e080:	4c 89 44 24 40       	mov    QWORD PTR [rsp+0x40],r8
   1e085:	4c 89 4c 24 48       	mov    QWORD PTR [rsp+0x48],r9
   1e08a:	84 c0                	test   al,al
   1e08c:	74 37                	je     1e0c5 <_fiprintf_r+0x55>
   1e08e:	0f 29 44 24 50       	movaps XMMWORD PTR [rsp+0x50],xmm0
   1e093:	0f 29 4c 24 60       	movaps XMMWORD PTR [rsp+0x60],xmm1
   1e098:	0f 29 54 24 70       	movaps XMMWORD PTR [rsp+0x70],xmm2
   1e09d:	0f 29 9c 24 80 00 00 	movaps XMMWORD PTR [rsp+0x80],xmm3
   1e0a4:	00 
   1e0a5:	0f 29 a4 24 90 00 00 	movaps XMMWORD PTR [rsp+0x90],xmm4
   1e0ac:	00 
   1e0ad:	0f 29 ac 24 a0 00 00 	movaps XMMWORD PTR [rsp+0xa0],xmm5
   1e0b4:	00 
   1e0b5:	0f 29 b4 24 b0 00 00 	movaps XMMWORD PTR [rsp+0xb0],xmm6
   1e0bc:	00 
   1e0bd:	0f 29 bc 24 c0 00 00 	movaps XMMWORD PTR [rsp+0xc0],xmm7
   1e0c4:	00 
   1e0c5:	64 48 8b 04 25 28 00 	mov    rax,QWORD PTR fs:0x28
   1e0cc:	00 00 
   1e0ce:	48 89 44 24 18       	mov    QWORD PTR [rsp+0x18],rax
   1e0d3:	31 c0                	xor    eax,eax
   1e0d5:	48 8d 84 24 e0 00 00 	lea    rax,[rsp+0xe0]
   1e0dc:	00 
   1e0dd:	48 89 e1             	mov    rcx,rsp
   1e0e0:	c7 04 24 18 00 00 00 	mov    DWORD PTR [rsp],0x18
   1e0e7:	48 89 44 24 08       	mov    QWORD PTR [rsp+0x8],rax
   1e0ec:	48 8d 44 24 20       	lea    rax,[rsp+0x20]
   1e0f1:	c7 44 24 04 30 00 00 	mov    DWORD PTR [rsp+0x4],0x30
   1e0f8:	00 
   1e0f9:	48 89 44 24 10       	mov    QWORD PTR [rsp+0x10],rax
   1e0fe:	e8 ed 01 00 00       	call   1e2f0 <_vfiprintf_r>
   1e103:	48 8b 54 24 18       	mov    rdx,QWORD PTR [rsp+0x18]
   1e108:	64 48 2b 14 25 28 00 	sub    rdx,QWORD PTR fs:0x28
   1e10f:	00 00 
   1e111:	75 08                	jne    1e11b <_fiprintf_r+0xab>
   1e113:	48 81 c4 d8 00 00 00 	add    rsp,0xd8
   1e11a:	c3                   	ret    
   1e11b:	e8 60 b4 ff ff       	call   19580 <__stack_chk_fail>

000000000001e120 <fiprintf>:
   1e120:	f3 0f 1e fa          	endbr64 
   1e124:	48 81 ec d8 00 00 00 	sub    rsp,0xd8
   1e12b:	49 89 fa             	mov    r10,rdi
   1e12e:	49 89 f3             	mov    r11,rsi
   1e131:	48 89 54 24 30       	mov    QWORD PTR [rsp+0x30],rdx
   1e136:	48 89 4c 24 38       	mov    QWORD PTR [rsp+0x38],rcx
   1e13b:	4c 89 44 24 40       	mov    QWORD PTR [rsp+0x40],r8
   1e140:	4c 89 4c 24 48       	mov    QWORD PTR [rsp+0x48],r9
   1e145:	84 c0                	test   al,al
   1e147:	74 37                	je     1e180 <fiprintf+0x60>
   1e149:	0f 29 44 24 50       	movaps XMMWORD PTR [rsp+0x50],xmm0
   1e14e:	0f 29 4c 24 60       	movaps XMMWORD PTR [rsp+0x60],xmm1
   1e153:	0f 29 54 24 70       	movaps XMMWORD PTR [rsp+0x70],xmm2
   1e158:	0f 29 9c 24 80 00 00 	movaps XMMWORD PTR [rsp+0x80],xmm3
   1e15f:	00 
   1e160:	0f 29 a4 24 90 00 00 	movaps XMMWORD PTR [rsp+0x90],xmm4
   1e167:	00 
   1e168:	0f 29 ac 24 a0 00 00 	movaps XMMWORD PTR [rsp+0xa0],xmm5
   1e16f:	00 
   1e170:	0f 29 b4 24 b0 00 00 	movaps XMMWORD PTR [rsp+0xb0],xmm6
   1e177:	00 
   1e178:	0f 29 bc 24 c0 00 00 	movaps XMMWORD PTR [rsp+0xc0],xmm7
   1e17f:	00 
   1e180:	64 48 8b 04 25 28 00 	mov    rax,QWORD PTR fs:0x28
   1e187:	00 00 
   1e189:	48 89 44 24 18       	mov    QWORD PTR [rsp+0x18],rax
   1e18e:	31 c0                	xor    eax,eax
   1e190:	48 8b 3d 69 5c 00 00 	mov    rdi,QWORD PTR [rip+0x5c69]        # 23e00 <_impure_ptr>
   1e197:	4c 89 da             	mov    rdx,r11
   1e19a:	48 89 e1             	mov    rcx,rsp
   1e19d:	48 8d 84 24 e0 00 00 	lea    rax,[rsp+0xe0]
   1e1a4:	00 
   1e1a5:	4c 89 d6             	mov    rsi,r10
   1e1a8:	c7 04 24 10 00 00 00 	mov    DWORD PTR [rsp],0x10
   1e1af:	48 89 44 24 08       	mov    QWORD PTR [rsp+0x8],rax
   1e1b4:	48 8d 44 24 20       	lea    rax,[rsp+0x20]
   1e1b9:	c7 44 24 04 30 00 00 	mov    DWORD PTR [rsp+0x4],0x30
   1e1c0:	00 
   1e1c1:	48 89 44 24 10       	mov    QWORD PTR [rsp+0x10],rax
   1e1c6:	e8 25 01 00 00       	call   1e2f0 <_vfiprintf_r>
   1e1cb:	48 8b 54 24 18       	mov    rdx,QWORD PTR [rsp+0x18]
   1e1d0:	64 48 2b 14 25 28 00 	sub    rdx,QWORD PTR fs:0x28
   1e1d7:	00 00 
   1e1d9:	75 08                	jne    1e1e3 <fiprintf+0xc3>
   1e1db:	48 81 c4 d8 00 00 00 	add    rsp,0xd8
   1e1e2:	c3                   	ret    
   1e1e3:	e8 98 b3 ff ff       	call   19580 <__stack_chk_fail>
   1e1e8:	cc                   	int3   
   1e1e9:	cc                   	int3   
   1e1ea:	cc                   	int3   
   1e1eb:	cc                   	int3   
   1e1ec:	cc                   	int3   
   1e1ed:	cc                   	int3   
   1e1ee:	cc                   	int3   
   1e1ef:	cc                   	int3   

000000000001e1f0 <__sprint_r.part.0>:
   1e1f0:	41 57                	push   r15
   1e1f2:	49 89 f7             	mov    r15,rsi
   1e1f5:	41 56                	push   r14
   1e1f7:	41 55                	push   r13
   1e1f9:	49 89 fd             	mov    r13,rdi
   1e1fc:	41 54                	push   r12
   1e1fe:	49 89 d4             	mov    r12,rdx
   1e201:	55                   	push   rbp
   1e202:	53                   	push   rbx
   1e203:	48 83 ec 18          	sub    rsp,0x18
   1e207:	f6 86 ad 00 00 00 20 	test   BYTE PTR [rsi+0xad],0x20
   1e20e:	0f 84 ac 00 00 00    	je     1e2c0 <__sprint_r.part.0+0xd0>
   1e214:	48 8b 02             	mov    rax,QWORD PTR [rdx]
   1e217:	48 83 7a 10 00       	cmp    QWORD PTR [rdx+0x10],0x0
   1e21c:	48 89 04 24          	mov    QWORD PTR [rsp],rax
   1e220:	0f 84 94 00 00 00    	je     1e2ba <__sprint_r.part.0+0xca>
   1e226:	48 8b 04 24          	mov    rax,QWORD PTR [rsp]
   1e22a:	48 8b 18             	mov    rbx,QWORD PTR [rax]
   1e22d:	48 8b 40 08          	mov    rax,QWORD PTR [rax+0x8]
   1e231:	48 89 c5             	mov    rbp,rax
   1e234:	48 89 44 24 08       	mov    QWORD PTR [rsp+0x8],rax
   1e239:	48 c1 ed 02          	shr    rbp,0x2
   1e23d:	85 ed                	test   ebp,ebp
   1e23f:	7e 57                	jle    1e298 <__sprint_r.part.0+0xa8>
   1e241:	8d 45 ff             	lea    eax,[rbp-0x1]
   1e244:	4c 8d 74 83 04       	lea    r14,[rbx+rax*4+0x4]
   1e249:	eb 0e                	jmp    1e259 <__sprint_r.part.0+0x69>
   1e24b:	0f 1f 44 00 00       	nop    DWORD PTR [rax+rax*1+0x0]
   1e250:	48 83 c3 04          	add    rbx,0x4
   1e254:	49 39 de             	cmp    r14,rbx
   1e257:	74 3f                	je     1e298 <__sprint_r.part.0+0xa8>
   1e259:	8b 33                	mov    esi,DWORD PTR [rbx]
   1e25b:	4c 89 fa             	mov    rdx,r15
   1e25e:	4c 89 ef             	mov    rdi,r13
   1e261:	e8 fa 17 00 00       	call   1fa60 <_fputwc_r>
   1e266:	83 f8 ff             	cmp    eax,0xffffffff
   1e269:	75 e5                	jne    1e250 <__sprint_r.part.0+0x60>
   1e26b:	b8 ff ff ff ff       	mov    eax,0xffffffff
   1e270:	49 c7 44 24 10 00 00 	mov    QWORD PTR [r12+0x10],0x0
   1e277:	00 00 
   1e279:	41 c7 44 24 08 00 00 	mov    DWORD PTR [r12+0x8],0x0
   1e280:	00 00 
   1e282:	48 83 c4 18          	add    rsp,0x18
   1e286:	5b                   	pop    rbx
   1e287:	5d                   	pop    rbp
   1e288:	41 5c                	pop    r12
   1e28a:	41 5d                	pop    r13
   1e28c:	41 5e                	pop    r14
   1e28e:	41 5f                	pop    r15
   1e290:	c3                   	ret    
   1e291:	0f 1f 80 00 00 00 00 	nop    DWORD PTR [rax+0x0]
   1e298:	49 8b 44 24 10       	mov    rax,QWORD PTR [r12+0x10]
   1e29d:	48 63 ed             	movsxd rbp,ebp
   1e2a0:	48 83 04 24 10       	add    QWORD PTR [rsp],0x10
   1e2a5:	48 c1 e5 02          	shl    rbp,0x2
   1e2a9:	48 29 e8             	sub    rax,rbp
   1e2ac:	49 89 44 24 10       	mov    QWORD PTR [r12+0x10],rax
   1e2b1:	48 85 c0             	test   rax,rax
   1e2b4:	0f 85 6c ff ff ff    	jne    1e226 <__sprint_r.part.0+0x36>
   1e2ba:	31 c0                	xor    eax,eax
   1e2bc:	eb b2                	jmp    1e270 <__sprint_r.part.0+0x80>
   1e2be:	66 90                	xchg   ax,ax
   1e2c0:	e8 4b 1e 00 00       	call   20110 <__sfvwrite_r>
   1e2c5:	eb a9                	jmp    1e270 <__sprint_r.part.0+0x80>
   1e2c7:	66 0f 1f 84 00 00 00 	nop    WORD PTR [rax+rax*1+0x0]
   1e2ce:	00 00 

000000000001e2d0 <__sprint_r>:
   1e2d0:	f3 0f 1e fa          	endbr64 
   1e2d4:	48 83 7a 10 00       	cmp    QWORD PTR [rdx+0x10],0x0
   1e2d9:	74 05                	je     1e2e0 <__sprint_r+0x10>
   1e2db:	e9 10 ff ff ff       	jmp    1e1f0 <__sprint_r.part.0>
   1e2e0:	c7 42 08 00 00 00 00 	mov    DWORD PTR [rdx+0x8],0x0
   1e2e7:	31 c0                	xor    eax,eax
   1e2e9:	c3                   	ret    
   1e2ea:	66 0f 1f 44 00 00    	nop    WORD PTR [rax+rax*1+0x0]

000000000001e2f0 <_vfiprintf_r>:
   1e2f0:	f3 0f 1e fa          	endbr64 
   1e2f4:	41 57                	push   r15
   1e2f6:	49 89 d7             	mov    r15,rdx
   1e2f9:	41 56                	push   r14
   1e2fb:	41 55                	push   r13
   1e2fd:	49 89 f5             	mov    r13,rsi
   1e300:	41 54                	push   r12
   1e302:	49 89 fc             	mov    r12,rdi
   1e305:	55                   	push   rbp
   1e306:	53                   	push   rbx
   1e307:	48 81 ec 58 01 00 00 	sub    rsp,0x158
   1e30e:	48 89 4c 24 20       	mov    QWORD PTR [rsp+0x20],rcx
   1e313:	64 48 8b 04 25 28 00 	mov    rax,QWORD PTR fs:0x28
   1e31a:	00 00 
   1e31c:	48 89 84 24 48 01 00 	mov    QWORD PTR [rsp+0x148],rax
   1e323:	00 
   1e324:	31 c0                	xor    eax,eax
   1e326:	48 85 ff             	test   rdi,rdi
   1e329:	74 0b                	je     1e336 <_vfiprintf_r+0x46>
   1e32b:	48 83 7f 48 00       	cmp    QWORD PTR [rdi+0x48],0x0
   1e330:	0f 84 b9 12 00 00    	je     1f5ef <_vfiprintf_r+0x12ff>
   1e336:	41 0f b7 45 10       	movzx  eax,WORD PTR [r13+0x10]
   1e33b:	f6 c4 20             	test   ah,0x20
   1e33e:	75 13                	jne    1e353 <_vfiprintf_r+0x63>
   1e340:	41 81 a5 ac 00 00 00 	and    DWORD PTR [r13+0xac],0xffffdfff
   1e347:	ff df ff ff 
   1e34b:	80 cc 20             	or     ah,0x20
   1e34e:	66 41 89 45 10       	mov    WORD PTR [r13+0x10],ax
   1e353:	a8 08                	test   al,0x8
   1e355:	0f 84 35 03 00 00    	je     1e690 <_vfiprintf_r+0x3a0>
   1e35b:	49 83 7d 18 00       	cmp    QWORD PTR [r13+0x18],0x0
   1e360:	0f 84 2a 03 00 00    	je     1e690 <_vfiprintf_r+0x3a0>
   1e366:	83 e0 1a             	and    eax,0x1a
   1e369:	66 83 f8 0a          	cmp    ax,0xa
   1e36d:	0f 84 42 03 00 00    	je     1e6b5 <_vfiprintf_r+0x3c5>
   1e373:	48 8d 84 24 90 00 00 	lea    rax,[rsp+0x90]
   1e37a:	00 
   1e37b:	4c 89 64 24 28       	mov    QWORD PTR [rsp+0x28],r12
   1e380:	4d 89 fc             	mov    r12,r15
   1e383:	48 89 44 24 10       	mov    QWORD PTR [rsp+0x10],rax
   1e388:	48 89 c1             	mov    rcx,rax
   1e38b:	48 89 44 24 70       	mov    QWORD PTR [rsp+0x70],rax
   1e390:	48 c7 84 24 80 00 00 	mov    QWORD PTR [rsp+0x80],0x0
   1e397:	00 00 00 00 00 
   1e39c:	c7 44 24 78 00 00 00 	mov    DWORD PTR [rsp+0x78],0x0
   1e3a3:	00 
   1e3a4:	48 c7 44 24 48 00 00 	mov    QWORD PTR [rsp+0x48],0x0
   1e3ab:	00 00 
   1e3ad:	c7 44 24 38 00 00 00 	mov    DWORD PTR [rsp+0x38],0x0
   1e3b4:	00 
   1e3b5:	41 0f b6 04 24       	movzx  eax,BYTE PTR [r12]
   1e3ba:	4c 89 e3             	mov    rbx,r12
   1e3bd:	84 c0                	test   al,al
   1e3bf:	0f 84 88 00 00 00    	je     1e44d <_vfiprintf_r+0x15d>
   1e3c5:	3c 25                	cmp    al,0x25
   1e3c7:	0f 84 80 00 00 00    	je     1e44d <_vfiprintf_r+0x15d>
   1e3cd:	0f 1f 00             	nop    DWORD PTR [rax]
   1e3d0:	48 89 dd             	mov    rbp,rbx
   1e3d3:	0f b6 43 01          	movzx  eax,BYTE PTR [rbx+0x1]
   1e3d7:	48 83 c3 01          	add    rbx,0x1
   1e3db:	84 c0                	test   al,al
   1e3dd:	74 04                	je     1e3e3 <_vfiprintf_r+0xf3>
   1e3df:	3c 25                	cmp    al,0x25
   1e3e1:	75 ed                	jne    1e3d0 <_vfiprintf_r+0xe0>
   1e3e3:	49 89 de             	mov    r14,rbx
   1e3e6:	4d 29 e6             	sub    r14,r12
   1e3e9:	44 39 e3             	cmp    ebx,r12d
   1e3ec:	74 5f                	je     1e44d <_vfiprintf_r+0x15d>
   1e3ee:	8b 74 24 78          	mov    esi,DWORD PTR [rsp+0x78]
   1e3f2:	49 63 c6             	movsxd rax,r14d
   1e3f5:	4c 89 21             	mov    QWORD PTR [rcx],r12
   1e3f8:	48 83 c1 10          	add    rcx,0x10
   1e3fc:	48 89 41 f8          	mov    QWORD PTR [rcx-0x8],rax
   1e400:	48 03 84 24 80 00 00 	add    rax,QWORD PTR [rsp+0x80]
   1e407:	00 
   1e408:	8d 56 01             	lea    edx,[rsi+0x1]
   1e40b:	48 89 84 24 80 00 00 	mov    QWORD PTR [rsp+0x80],rax
   1e412:	00 
   1e413:	89 54 24 78          	mov    DWORD PTR [rsp+0x78],edx
   1e417:	83 fa 07             	cmp    edx,0x7
   1e41a:	7e 28                	jle    1e444 <_vfiprintf_r+0x154>
   1e41c:	48 85 c0             	test   rax,rax
   1e41f:	0f 84 bf 0d 00 00    	je     1f1e4 <_vfiprintf_r+0xef4>
   1e425:	48 8b 7c 24 28       	mov    rdi,QWORD PTR [rsp+0x28]
   1e42a:	48 8d 54 24 70       	lea    rdx,[rsp+0x70]
   1e42f:	4c 89 ee             	mov    rsi,r13
   1e432:	e8 b9 fd ff ff       	call   1e1f0 <__sprint_r.part.0>
   1e437:	85 c0                	test   eax,eax
   1e439:	0f 85 cc 02 00 00    	jne    1e70b <_vfiprintf_r+0x41b>
   1e43f:	48 8b 4c 24 10       	mov    rcx,QWORD PTR [rsp+0x10]
   1e444:	44 01 74 24 38       	add    DWORD PTR [rsp+0x38],r14d
   1e449:	0f b6 45 01          	movzx  eax,BYTE PTR [rbp+0x1]
   1e44d:	84 c0                	test   al,al
   1e44f:	0f 84 e5 11 00 00    	je     1f63a <_vfiprintf_r+0x134a>
   1e455:	c6 44 24 6f 00       	mov    BYTE PTR [rsp+0x6f],0x0
   1e45a:	48 83 c3 01          	add    rbx,0x1
   1e45e:	31 f6                	xor    esi,esi
   1e460:	45 31 f6             	xor    r14d,r14d
   1e463:	41 bf ff ff ff ff    	mov    r15d,0xffffffff
   1e469:	0f be 13             	movsx  edx,BYTE PTR [rbx]
   1e46c:	4c 8d 63 01          	lea    r12,[rbx+0x1]
   1e470:	8d 42 e0             	lea    eax,[rdx-0x20]
   1e473:	83 f8 58             	cmp    eax,0x58
   1e476:	77 40                	ja     1e4b8 <_vfiprintf_r+0x1c8>
   1e478:	48 8d 3d 01 28 ff ff 	lea    rdi,[rip+0xffffffffffff2801]        # 10c80 <__mprec_tens+0x100>
   1e47f:	48 63 04 87          	movsxd rax,DWORD PTR [rdi+rax*4]
   1e483:	48 01 f8             	add    rax,rdi
   1e486:	3e ff e0             	notrack jmp rax
   1e489:	0f 1f 80 00 00 00 00 	nop    DWORD PTR [rax+0x0]
   1e490:	31 f6                	xor    esi,esi
   1e492:	8d 42 d0             	lea    eax,[rdx-0x30]
   1e495:	8d 14 b6             	lea    edx,[rsi+rsi*4]
   1e498:	49 83 c4 01          	add    r12,0x1
   1e49c:	8d 34 50             	lea    esi,[rax+rdx*2]
   1e49f:	41 0f be 54 24 ff    	movsx  edx,BYTE PTR [r12-0x1]
   1e4a5:	8d 42 d0             	lea    eax,[rdx-0x30]
   1e4a8:	83 f8 09             	cmp    eax,0x9
   1e4ab:	76 e8                	jbe    1e495 <_vfiprintf_r+0x1a5>
   1e4ad:	8d 42 e0             	lea    eax,[rdx-0x20]
   1e4b0:	83 f8 58             	cmp    eax,0x58
   1e4b3:	76 c3                	jbe    1e478 <_vfiprintf_r+0x188>
   1e4b5:	0f 1f 00             	nop    DWORD PTR [rax]
   1e4b8:	89 74 24 1c          	mov    DWORD PTR [rsp+0x1c],esi
   1e4bc:	85 d2                	test   edx,edx
   1e4be:	0f 84 76 11 00 00    	je     1f63a <_vfiprintf_r+0x134a>
   1e4c4:	88 94 24 20 01 00 00 	mov    BYTE PTR [rsp+0x120],dl
   1e4cb:	bb 01 00 00 00       	mov    ebx,0x1
   1e4d0:	48 8d ac 24 20 01 00 	lea    rbp,[rsp+0x120]
   1e4d7:	00 
   1e4d8:	c6 44 24 6f 00       	mov    BYTE PTR [rsp+0x6f],0x0
   1e4dd:	c7 44 24 08 01 00 00 	mov    DWORD PTR [rsp+0x8],0x1
   1e4e4:	00 
   1e4e5:	44 89 74 24 18       	mov    DWORD PTR [rsp+0x18],r14d
   1e4ea:	45 31 ff             	xor    r15d,r15d
   1e4ed:	0f 1f 00             	nop    DWORD PTR [rax]
   1e4f0:	44 8b 4c 24 18       	mov    r9d,DWORD PTR [rsp+0x18]
   1e4f5:	8b 54 24 78          	mov    edx,DWORD PTR [rsp+0x78]
   1e4f9:	8d 43 02             	lea    eax,[rbx+0x2]
   1e4fc:	45 89 ce             	mov    r14d,r9d
   1e4ff:	8d 7a 01             	lea    edi,[rdx+0x1]
   1e502:	41 83 e6 02          	and    r14d,0x2
   1e506:	89 fe                	mov    esi,edi
   1e508:	0f 45 d8             	cmovne ebx,eax
   1e50b:	41 81 e1 84 00 00 00 	and    r9d,0x84
   1e512:	48 8b 84 24 80 00 00 	mov    rax,QWORD PTR [rsp+0x80]
   1e519:	00 
   1e51a:	44 89 4c 24 30       	mov    DWORD PTR [rsp+0x30],r9d
   1e51f:	75 11                	jne    1e532 <_vfiprintf_r+0x242>
   1e521:	44 8b 54 24 1c       	mov    r10d,DWORD PTR [rsp+0x1c]
   1e526:	41 29 da             	sub    r10d,ebx
   1e529:	45 85 d2             	test   r10d,r10d
   1e52c:	0f 8f de 09 00 00    	jg     1ef10 <_vfiprintf_r+0xc20>
   1e532:	80 7c 24 6f 00       	cmp    BYTE PTR [rsp+0x6f],0x0
   1e537:	74 32                	je     1e56b <_vfiprintf_r+0x27b>
   1e539:	48 8d 54 24 6f       	lea    rdx,[rsp+0x6f]
   1e53e:	48 83 c0 01          	add    rax,0x1
   1e542:	48 c7 41 08 01 00 00 	mov    QWORD PTR [rcx+0x8],0x1
   1e549:	00 
   1e54a:	48 89 11             	mov    QWORD PTR [rcx],rdx
   1e54d:	48 89 84 24 80 00 00 	mov    QWORD PTR [rsp+0x80],rax
   1e554:	00 
   1e555:	89 74 24 78          	mov    DWORD PTR [rsp+0x78],esi
   1e559:	83 fe 07             	cmp    esi,0x7
   1e55c:	0f 8f 2e 09 00 00    	jg     1ee90 <_vfiprintf_r+0xba0>
   1e562:	89 f2                	mov    edx,esi
   1e564:	48 83 c1 10          	add    rcx,0x10
   1e568:	83 c6 01             	add    esi,0x1
   1e56b:	45 85 f6             	test   r14d,r14d
   1e56e:	74 68                	je     1e5d8 <_vfiprintf_r+0x2e8>
   1e570:	48 8d 94 24 1e 01 00 	lea    rdx,[rsp+0x11e]
   1e577:	00 
   1e578:	48 83 c0 02          	add    rax,0x2
   1e57c:	48 c7 41 08 02 00 00 	mov    QWORD PTR [rcx+0x8],0x2
   1e583:	00 
   1e584:	48 89 11             	mov    QWORD PTR [rcx],rdx
   1e587:	48 89 84 24 80 00 00 	mov    QWORD PTR [rsp+0x80],rax
   1e58e:	00 
   1e58f:	89 74 24 78          	mov    DWORD PTR [rsp+0x78],esi
   1e593:	83 fe 07             	cmp    esi,0x7
   1e596:	0f 8e 64 09 00 00    	jle    1ef00 <_vfiprintf_r+0xc10>
   1e59c:	48 85 c0             	test   rax,rax
   1e59f:	0f 84 8a 0c 00 00    	je     1f22f <_vfiprintf_r+0xf3f>
   1e5a5:	48 8b 7c 24 28       	mov    rdi,QWORD PTR [rsp+0x28]
   1e5aa:	48 8d 54 24 70       	lea    rdx,[rsp+0x70]
   1e5af:	4c 89 ee             	mov    rsi,r13
   1e5b2:	e8 39 fc ff ff       	call   1e1f0 <__sprint_r.part.0>
   1e5b7:	85 c0                	test   eax,eax
   1e5b9:	0f 85 4c 01 00 00    	jne    1e70b <_vfiprintf_r+0x41b>
   1e5bf:	8b 54 24 78          	mov    edx,DWORD PTR [rsp+0x78]
   1e5c3:	48 8b 84 24 80 00 00 	mov    rax,QWORD PTR [rsp+0x80]
   1e5ca:	00 
   1e5cb:	48 8b 4c 24 10       	mov    rcx,QWORD PTR [rsp+0x10]
   1e5d0:	8d 72 01             	lea    esi,[rdx+0x1]
   1e5d3:	0f 1f 44 00 00       	nop    DWORD PTR [rax+rax*1+0x0]
   1e5d8:	81 7c 24 30 80 00 00 	cmp    DWORD PTR [rsp+0x30],0x80
   1e5df:	00 
   1e5e0:	0f 84 1a 06 00 00    	je     1ec00 <_vfiprintf_r+0x910>
   1e5e6:	44 2b 7c 24 08       	sub    r15d,DWORD PTR [rsp+0x8]
   1e5eb:	45 85 ff             	test   r15d,r15d
   1e5ee:	0f 8f 54 07 00 00    	jg     1ed48 <_vfiprintf_r+0xa58>
   1e5f4:	48 63 54 24 08       	movsxd rdx,DWORD PTR [rsp+0x8]
   1e5f9:	48 89 29             	mov    QWORD PTR [rcx],rbp
   1e5fc:	89 74 24 78          	mov    DWORD PTR [rsp+0x78],esi
   1e600:	48 01 d0             	add    rax,rdx
   1e603:	48 89 51 08          	mov    QWORD PTR [rcx+0x8],rdx
   1e607:	48 89 84 24 80 00 00 	mov    QWORD PTR [rsp+0x80],rax
   1e60e:	00 
   1e60f:	83 fe 07             	cmp    esi,0x7
   1e612:	0f 8e d8 05 00 00    	jle    1ebf0 <_vfiprintf_r+0x900>
   1e618:	48 85 c0             	test   rax,rax
   1e61b:	0f 84 0f 0a 00 00    	je     1f030 <_vfiprintf_r+0xd40>
   1e621:	48 8b 7c 24 28       	mov    rdi,QWORD PTR [rsp+0x28]
   1e626:	48 8d 54 24 70       	lea    rdx,[rsp+0x70]
   1e62b:	4c 89 ee             	mov    rsi,r13
   1e62e:	e8 bd fb ff ff       	call   1e1f0 <__sprint_r.part.0>
   1e633:	85 c0                	test   eax,eax
   1e635:	0f 85 d0 00 00 00    	jne    1e70b <_vfiprintf_r+0x41b>
   1e63b:	48 8b 84 24 80 00 00 	mov    rax,QWORD PTR [rsp+0x80]
   1e642:	00 
   1e643:	48 8b 4c 24 10       	mov    rcx,QWORD PTR [rsp+0x10]
   1e648:	f6 44 24 18 04       	test   BYTE PTR [rsp+0x18],0x4
   1e64d:	74 11                	je     1e660 <_vfiprintf_r+0x370>
   1e64f:	44 8b 7c 24 1c       	mov    r15d,DWORD PTR [rsp+0x1c]
   1e654:	41 29 df             	sub    r15d,ebx
   1e657:	45 85 ff             	test   r15d,r15d
   1e65a:	0f 8f 00 0a 00 00    	jg     1f060 <_vfiprintf_r+0xd70>
   1e660:	8b 74 24 1c          	mov    esi,DWORD PTR [rsp+0x1c]
   1e664:	39 de                	cmp    esi,ebx
   1e666:	0f 4d de             	cmovge ebx,esi
   1e669:	01 5c 24 38          	add    DWORD PTR [rsp+0x38],ebx
   1e66d:	48 85 c0             	test   rax,rax
   1e670:	0f 85 ea 07 00 00    	jne    1ee60 <_vfiprintf_r+0xb70>
   1e676:	c7 44 24 78 00 00 00 	mov    DWORD PTR [rsp+0x78],0x0
   1e67d:	00 
   1e67e:	48 8b 4c 24 10       	mov    rcx,QWORD PTR [rsp+0x10]
   1e683:	e9 2d fd ff ff       	jmp    1e3b5 <_vfiprintf_r+0xc5>
   1e688:	0f 1f 84 00 00 00 00 	nop    DWORD PTR [rax+rax*1+0x0]
   1e68f:	00 
   1e690:	4c 89 ee             	mov    rsi,r13
   1e693:	4c 89 e7             	mov    rdi,r12
   1e696:	e8 c5 16 00 00       	call   1fd60 <__swsetup_r>
   1e69b:	85 c0                	test   eax,eax
   1e69d:	0f 85 49 11 00 00    	jne    1f7ec <_vfiprintf_r+0x14fc>
   1e6a3:	41 0f b7 45 10       	movzx  eax,WORD PTR [r13+0x10]
   1e6a8:	83 e0 1a             	and    eax,0x1a
   1e6ab:	66 83 f8 0a          	cmp    ax,0xa
   1e6af:	0f 85 be fc ff ff    	jne    1e373 <_vfiprintf_r+0x83>
   1e6b5:	66 41 83 7d 12 00    	cmp    WORD PTR [r13+0x12],0x0
   1e6bb:	0f 88 b2 fc ff ff    	js     1e373 <_vfiprintf_r+0x83>
   1e6c1:	48 8b 84 24 48 01 00 	mov    rax,QWORD PTR [rsp+0x148]
   1e6c8:	00 
   1e6c9:	64 48 2b 04 25 28 00 	sub    rax,QWORD PTR fs:0x28
   1e6d0:	00 00 
   1e6d2:	0f 85 62 11 00 00    	jne    1f83a <_vfiprintf_r+0x154a>
   1e6d8:	48 8b 4c 24 20       	mov    rcx,QWORD PTR [rsp+0x20]
   1e6dd:	4c 89 fa             	mov    rdx,r15
   1e6e0:	4c 89 ee             	mov    rsi,r13
   1e6e3:	4c 89 e7             	mov    rdi,r12
   1e6e6:	48 81 c4 58 01 00 00 	add    rsp,0x158
   1e6ed:	5b                   	pop    rbx
   1e6ee:	5d                   	pop    rbp
   1e6ef:	41 5c                	pop    r12
   1e6f1:	41 5d                	pop    r13
   1e6f3:	41 5e                	pop    r14
   1e6f5:	41 5f                	pop    r15
   1e6f7:	e9 64 11 00 00       	jmp    1f860 <__sbprintf>
   1e6fc:	41 83 ce 10          	or     r14d,0x10
   1e700:	4c 89 e3             	mov    rbx,r12
   1e703:	e9 61 fd ff ff       	jmp    1e469 <_vfiprintf_r+0x179>
   1e708:	4d 89 f5             	mov    r13,r14
   1e70b:	41 f6 45 10 40       	test   BYTE PTR [r13+0x10],0x40
   1e710:	0f 85 d6 10 00 00    	jne    1f7ec <_vfiprintf_r+0x14fc>
   1e716:	48 8b 84 24 48 01 00 	mov    rax,QWORD PTR [rsp+0x148]
   1e71d:	00 
   1e71e:	64 48 2b 04 25 28 00 	sub    rax,QWORD PTR fs:0x28
   1e725:	00 00 
   1e727:	0f 85 0d 11 00 00    	jne    1f83a <_vfiprintf_r+0x154a>
   1e72d:	8b 44 24 38          	mov    eax,DWORD PTR [rsp+0x38]
   1e731:	48 81 c4 58 01 00 00 	add    rsp,0x158
   1e738:	5b                   	pop    rbx
   1e739:	5d                   	pop    rbp
   1e73a:	41 5c                	pop    r12
   1e73c:	41 5d                	pop    r13
   1e73e:	41 5e                	pop    r14
   1e740:	41 5f                	pop    r15
   1e742:	c3                   	ret    
   1e743:	48 8b 44 24 20       	mov    rax,QWORD PTR [rsp+0x20]
   1e748:	89 74 24 1c          	mov    DWORD PTR [rsp+0x1c],esi
   1e74c:	8b 00                	mov    eax,DWORD PTR [rax]
   1e74e:	41 f6 c6 10          	test   r14b,0x10
   1e752:	0f 85 93 03 00 00    	jne    1eaeb <_vfiprintf_r+0x7fb>
   1e758:	41 f6 c6 40          	test   r14b,0x40
   1e75c:	0f 84 44 0c 00 00    	je     1f3a6 <_vfiprintf_r+0x10b6>
   1e762:	83 f8 2f             	cmp    eax,0x2f
   1e765:	0f 87 8f 0f 00 00    	ja     1f6fa <_vfiprintf_r+0x140a>
   1e76b:	48 8b 7c 24 20       	mov    rdi,QWORD PTR [rsp+0x20]
   1e770:	89 c2                	mov    edx,eax
   1e772:	83 c0 08             	add    eax,0x8
   1e775:	89 07                	mov    DWORD PTR [rdi],eax
   1e777:	48 03 57 10          	add    rdx,QWORD PTR [rdi+0x10]
   1e77b:	48 0f bf 32          	movsx  rsi,WORD PTR [rdx]
   1e77f:	48 89 f0             	mov    rax,rsi
   1e782:	48 85 c0             	test   rax,rax
   1e785:	0f 89 88 03 00 00    	jns    1eb13 <_vfiprintf_r+0x823>
   1e78b:	ba 2d 00 00 00       	mov    edx,0x2d
   1e790:	48 f7 de             	neg    rsi
   1e793:	b8 01 00 00 00       	mov    eax,0x1
   1e798:	88 54 24 6f          	mov    BYTE PTR [rsp+0x6f],dl
   1e79c:	41 83 ff ff          	cmp    r15d,0xffffffff
   1e7a0:	0f 85 e2 00 00 00    	jne    1e888 <_vfiprintf_r+0x598>
   1e7a6:	66 2e 0f 1f 84 00 00 	cs nop WORD PTR [rax+rax*1+0x0]
   1e7ad:	00 00 00 
   1e7b0:	83 f8 01             	cmp    eax,0x1
   1e7b3:	0f 84 37 0d 00 00    	je     1f4f0 <_vfiprintf_r+0x1200>
   1e7b9:	48 8d bc 24 48 01 00 	lea    rdi,[rsp+0x148]
   1e7c0:	00 
   1e7c1:	48 89 fd             	mov    rbp,rdi
   1e7c4:	83 f8 02             	cmp    eax,0x2
   1e7c7:	0f 85 b3 0c 00 00    	jne    1f480 <_vfiprintf_r+0x1190>
   1e7cd:	48 8b 54 24 48       	mov    rdx,QWORD PTR [rsp+0x48]
   1e7d2:	66 0f 1f 44 00 00    	nop    WORD PTR [rax+rax*1+0x0]
   1e7d8:	48 89 f0             	mov    rax,rsi
   1e7db:	48 83 ed 01          	sub    rbp,0x1
   1e7df:	83 e0 0f             	and    eax,0xf
   1e7e2:	48 c1 ee 04          	shr    rsi,0x4
   1e7e6:	0f b6 04 02          	movzx  eax,BYTE PTR [rdx+rax*1]
   1e7ea:	88 45 00             	mov    BYTE PTR [rbp+0x0],al
   1e7ed:	75 e9                	jne    1e7d8 <_vfiprintf_r+0x4e8>
   1e7ef:	89 f8                	mov    eax,edi
   1e7f1:	44 89 74 24 18       	mov    DWORD PTR [rsp+0x18],r14d
   1e7f6:	29 e8                	sub    eax,ebp
   1e7f8:	89 44 24 08          	mov    DWORD PTR [rsp+0x8],eax
   1e7fc:	e9 4f 03 00 00       	jmp    1eb50 <_vfiprintf_r+0x860>
   1e801:	48 8b 74 24 20       	mov    rsi,QWORD PTR [rsp+0x20]
   1e806:	8b 06                	mov    eax,DWORD PTR [rsi]
   1e808:	83 f8 2f             	cmp    eax,0x2f
   1e80b:	0f 87 97 0a 00 00    	ja     1f2a8 <_vfiprintf_r+0xfb8>
   1e811:	89 c2                	mov    edx,eax
   1e813:	83 c0 08             	add    eax,0x8
   1e816:	48 03 56 10          	add    rdx,QWORD PTR [rsi+0x10]
   1e81a:	89 06                	mov    DWORD PTR [rsi],eax
   1e81c:	8b 32                	mov    esi,DWORD PTR [rdx]
   1e81e:	85 f6                	test   esi,esi
   1e820:	0f 89 da fe ff ff    	jns    1e700 <_vfiprintf_r+0x410>
   1e826:	f7 de                	neg    esi
   1e828:	41 83 ce 04          	or     r14d,0x4
   1e82c:	e9 cf fe ff ff       	jmp    1e700 <_vfiprintf_r+0x410>
   1e831:	48 8b 44 24 20       	mov    rax,QWORD PTR [rsp+0x20]
   1e836:	89 74 24 1c          	mov    DWORD PTR [rsp+0x1c],esi
   1e83a:	8b 00                	mov    eax,DWORD PTR [rax]
   1e83c:	41 f6 c6 10          	test   r14b,0x10
   1e840:	0f 85 51 01 00 00    	jne    1e997 <_vfiprintf_r+0x6a7>
   1e846:	41 f6 c6 40          	test   r14b,0x40
   1e84a:	0f 84 ef 0a 00 00    	je     1f33f <_vfiprintf_r+0x104f>
   1e850:	83 f8 2f             	cmp    eax,0x2f
   1e853:	0f 87 e3 0e 00 00    	ja     1f73c <_vfiprintf_r+0x144c>
   1e859:	48 8b 5c 24 20       	mov    rbx,QWORD PTR [rsp+0x20]
   1e85e:	89 c2                	mov    edx,eax
   1e860:	83 c0 08             	add    eax,0x8
   1e863:	89 03                	mov    DWORD PTR [rbx],eax
   1e865:	48 03 53 10          	add    rdx,QWORD PTR [rbx+0x10]
   1e869:	0f b7 32             	movzx  esi,WORD PTR [rdx]
   1e86c:	b8 01 00 00 00       	mov    eax,0x1
   1e871:	0f 1f 80 00 00 00 00 	nop    DWORD PTR [rax+0x0]
   1e878:	31 d2                	xor    edx,edx
   1e87a:	88 54 24 6f          	mov    BYTE PTR [rsp+0x6f],dl
   1e87e:	41 83 ff ff          	cmp    r15d,0xffffffff
   1e882:	0f 84 28 ff ff ff    	je     1e7b0 <_vfiprintf_r+0x4c0>
   1e888:	44 89 f7             	mov    edi,r14d
   1e88b:	40 80 e7 7f          	and    dil,0x7f
   1e88f:	89 7c 24 18          	mov    DWORD PTR [rsp+0x18],edi
   1e893:	48 85 f6             	test   rsi,rsi
   1e896:	0f 85 ba 0c 00 00    	jne    1f556 <_vfiprintf_r+0x1266>
   1e89c:	45 85 ff             	test   r15d,r15d
   1e89f:	0f 85 b1 0c 00 00    	jne    1f556 <_vfiprintf_r+0x1266>
   1e8a5:	85 c0                	test   eax,eax
   1e8a7:	0f 85 23 0c 00 00    	jne    1f4d0 <_vfiprintf_r+0x11e0>
   1e8ad:	41 83 e6 01          	and    r14d,0x1
   1e8b1:	44 89 74 24 08       	mov    DWORD PTR [rsp+0x8],r14d
   1e8b6:	0f 84 63 0c 00 00    	je     1f51f <_vfiprintf_r+0x122f>
   1e8bc:	c6 84 24 47 01 00 00 	mov    BYTE PTR [rsp+0x147],0x30
   1e8c3:	30 
   1e8c4:	45 31 ff             	xor    r15d,r15d
   1e8c7:	48 8d ac 24 47 01 00 	lea    rbp,[rsp+0x147]
   1e8ce:	00 
   1e8cf:	e9 7c 02 00 00       	jmp    1eb50 <_vfiprintf_r+0x860>
   1e8d4:	89 74 24 1c          	mov    DWORD PTR [rsp+0x1c],esi
   1e8d8:	48 8b 74 24 20       	mov    rsi,QWORD PTR [rsp+0x20]
   1e8dd:	8b 06                	mov    eax,DWORD PTR [rsi]
   1e8df:	83 f8 2f             	cmp    eax,0x2f
   1e8e2:	0f 87 92 0a 00 00    	ja     1f37a <_vfiprintf_r+0x108a>
   1e8e8:	89 c2                	mov    edx,eax
   1e8ea:	83 c0 08             	add    eax,0x8
   1e8ed:	48 03 56 10          	add    rdx,QWORD PTR [rsi+0x10]
   1e8f1:	89 06                	mov    DWORD PTR [rsi],eax
   1e8f3:	48 8b 2a             	mov    rbp,QWORD PTR [rdx]
   1e8f6:	c6 44 24 6f 00       	mov    BYTE PTR [rsp+0x6f],0x0
   1e8fb:	48 85 ed             	test   rbp,rbp
   1e8fe:	0f 84 f5 0c 00 00    	je     1f5f9 <_vfiprintf_r+0x1309>
   1e904:	41 83 ff ff          	cmp    r15d,0xffffffff
   1e908:	0f 84 09 0d 00 00    	je     1f617 <_vfiprintf_r+0x1327>
   1e90e:	31 f6                	xor    esi,esi
   1e910:	49 63 d7             	movsxd rdx,r15d
   1e913:	48 89 ef             	mov    rdi,rbp
   1e916:	48 89 4c 24 08       	mov    QWORD PTR [rsp+0x8],rcx
   1e91b:	e8 20 ce ff ff       	call   1b740 <memchr>
   1e920:	48 8b 4c 24 08       	mov    rcx,QWORD PTR [rsp+0x8]
   1e925:	48 85 c0             	test   rax,rax
   1e928:	0f 84 8e 0e 00 00    	je     1f7bc <_vfiprintf_r+0x14cc>
   1e92e:	29 e8                	sub    eax,ebp
   1e930:	44 89 74 24 18       	mov    DWORD PTR [rsp+0x18],r14d
   1e935:	45 31 ff             	xor    r15d,r15d
   1e938:	89 44 24 08          	mov    DWORD PTR [rsp+0x8],eax
   1e93c:	e9 0f 02 00 00       	jmp    1eb50 <_vfiprintf_r+0x860>
   1e941:	89 74 24 1c          	mov    DWORD PTR [rsp+0x1c],esi
   1e945:	48 8b 74 24 20       	mov    rsi,QWORD PTR [rsp+0x20]
   1e94a:	8b 06                	mov    eax,DWORD PTR [rsi]
   1e94c:	83 f8 2f             	cmp    eax,0x2f
   1e94f:	0f 87 0f 0a 00 00    	ja     1f364 <_vfiprintf_r+0x1074>
   1e955:	89 c2                	mov    edx,eax
   1e957:	83 c0 08             	add    eax,0x8
   1e95a:	48 03 56 10          	add    rdx,QWORD PTR [rsi+0x10]
   1e95e:	89 06                	mov    DWORD PTR [rsi],eax
   1e960:	8b 02                	mov    eax,DWORD PTR [rdx]
   1e962:	c7 44 24 08 01 00 00 	mov    DWORD PTR [rsp+0x8],0x1
   1e969:	00 
   1e96a:	bb 01 00 00 00       	mov    ebx,0x1
   1e96f:	48 8d ac 24 20 01 00 	lea    rbp,[rsp+0x120]
   1e976:	00 
   1e977:	c6 44 24 6f 00       	mov    BYTE PTR [rsp+0x6f],0x0
   1e97c:	88 84 24 20 01 00 00 	mov    BYTE PTR [rsp+0x120],al
   1e983:	e9 5d fb ff ff       	jmp    1e4e5 <_vfiprintf_r+0x1f5>
   1e988:	48 8b 44 24 20       	mov    rax,QWORD PTR [rsp+0x20]
   1e98d:	89 74 24 1c          	mov    DWORD PTR [rsp+0x1c],esi
   1e991:	41 83 ce 10          	or     r14d,0x10
   1e995:	8b 00                	mov    eax,DWORD PTR [rax]
   1e997:	83 f8 2f             	cmp    eax,0x2f
   1e99a:	0f 87 f0 09 00 00    	ja     1f390 <_vfiprintf_r+0x10a0>
   1e9a0:	48 8b 7c 24 20       	mov    rdi,QWORD PTR [rsp+0x20]
   1e9a5:	89 c2                	mov    edx,eax
   1e9a7:	83 c0 08             	add    eax,0x8
   1e9aa:	89 07                	mov    DWORD PTR [rdi],eax
   1e9ac:	48 03 57 10          	add    rdx,QWORD PTR [rdi+0x10]
   1e9b0:	48 8b 32             	mov    rsi,QWORD PTR [rdx]
   1e9b3:	b8 01 00 00 00       	mov    eax,0x1
   1e9b8:	e9 bb fe ff ff       	jmp    1e878 <_vfiprintf_r+0x588>
   1e9bd:	48 8b 44 24 20       	mov    rax,QWORD PTR [rsp+0x20]
   1e9c2:	89 74 24 1c          	mov    DWORD PTR [rsp+0x1c],esi
   1e9c6:	41 83 ce 10          	or     r14d,0x10
   1e9ca:	8b 00                	mov    eax,DWORD PTR [rax]
   1e9cc:	83 f8 2f             	cmp    eax,0x2f
   1e9cf:	0f 87 bd 08 00 00    	ja     1f292 <_vfiprintf_r+0xfa2>
   1e9d5:	48 8b 5c 24 20       	mov    rbx,QWORD PTR [rsp+0x20]
   1e9da:	89 c2                	mov    edx,eax
   1e9dc:	83 c0 08             	add    eax,0x8
   1e9df:	89 03                	mov    DWORD PTR [rbx],eax
   1e9e1:	48 03 53 10          	add    rdx,QWORD PTR [rbx+0x10]
   1e9e5:	48 8b 32             	mov    rsi,QWORD PTR [rdx]
   1e9e8:	31 c0                	xor    eax,eax
   1e9ea:	e9 89 fe ff ff       	jmp    1e878 <_vfiprintf_r+0x588>
   1e9ef:	48 8b 44 24 20       	mov    rax,QWORD PTR [rsp+0x20]
   1e9f4:	89 74 24 1c          	mov    DWORD PTR [rsp+0x1c],esi
   1e9f8:	8b 00                	mov    eax,DWORD PTR [rax]
   1e9fa:	41 f6 c6 10          	test   r14b,0x10
   1e9fe:	75 cc                	jne    1e9cc <_vfiprintf_r+0x6dc>
   1ea00:	41 f6 c6 40          	test   r14b,0x40
   1ea04:	0f 84 fd 08 00 00    	je     1f307 <_vfiprintf_r+0x1017>
   1ea0a:	83 f8 2f             	cmp    eax,0x2f
   1ea0d:	0f 87 13 0d 00 00    	ja     1f726 <_vfiprintf_r+0x1436>
   1ea13:	48 8b 7c 24 20       	mov    rdi,QWORD PTR [rsp+0x20]
   1ea18:	89 c2                	mov    edx,eax
   1ea1a:	83 c0 08             	add    eax,0x8
   1ea1d:	89 07                	mov    DWORD PTR [rdi],eax
   1ea1f:	48 03 57 10          	add    rdx,QWORD PTR [rdi+0x10]
   1ea23:	0f b7 32             	movzx  esi,WORD PTR [rdx]
   1ea26:	31 c0                	xor    eax,eax
   1ea28:	e9 4b fe ff ff       	jmp    1e878 <_vfiprintf_r+0x588>
   1ea2d:	48 8b 74 24 20       	mov    rsi,QWORD PTR [rsp+0x20]
   1ea32:	8b 06                	mov    eax,DWORD PTR [rsi]
   1ea34:	41 f6 c6 10          	test   r14b,0x10
   1ea38:	0f 84 96 08 00 00    	je     1f2d4 <_vfiprintf_r+0xfe4>
   1ea3e:	83 f8 2f             	cmp    eax,0x2f
   1ea41:	0f 87 1c 0c 00 00    	ja     1f663 <_vfiprintf_r+0x1373>
   1ea47:	89 c2                	mov    edx,eax
   1ea49:	83 c0 08             	add    eax,0x8
   1ea4c:	48 03 56 10          	add    rdx,QWORD PTR [rsi+0x10]
   1ea50:	89 06                	mov    DWORD PTR [rsi],eax
   1ea52:	48 8b 02             	mov    rax,QWORD PTR [rdx]
   1ea55:	48 63 54 24 38       	movsxd rdx,DWORD PTR [rsp+0x38]
   1ea5a:	48 89 10             	mov    QWORD PTR [rax],rdx
   1ea5d:	e9 53 f9 ff ff       	jmp    1e3b5 <_vfiprintf_r+0xc5>
   1ea62:	41 83 ce 40          	or     r14d,0x40
   1ea66:	e9 95 fc ff ff       	jmp    1e700 <_vfiprintf_r+0x410>
   1ea6b:	89 74 24 1c          	mov    DWORD PTR [rsp+0x1c],esi
   1ea6f:	48 8b 74 24 20       	mov    rsi,QWORD PTR [rsp+0x20]
   1ea74:	8b 06                	mov    eax,DWORD PTR [rsi]
   1ea76:	83 f8 2f             	cmp    eax,0x2f
   1ea79:	0f 87 3f 08 00 00    	ja     1f2be <_vfiprintf_r+0xfce>
   1ea7f:	89 c2                	mov    edx,eax
   1ea81:	83 c0 08             	add    eax,0x8
   1ea84:	48 03 56 10          	add    rdx,QWORD PTR [rsi+0x10]
   1ea88:	89 06                	mov    DWORD PTR [rsi],eax
   1ea8a:	b8 30 78 00 00       	mov    eax,0x7830
   1ea8f:	48 8b 32             	mov    rsi,QWORD PTR [rdx]
   1ea92:	41 83 ce 02          	or     r14d,0x2
   1ea96:	66 89 84 24 1e 01 00 	mov    WORD PTR [rsp+0x11e],ax
   1ea9d:	00 
   1ea9e:	48 8d 05 40 18 ff ff 	lea    rax,[rip+0xffffffffffff1840]        # 102e5 <zeroes.0-0x35b>
   1eaa5:	48 89 44 24 48       	mov    QWORD PTR [rsp+0x48],rax
   1eaaa:	b8 02 00 00 00       	mov    eax,0x2
   1eaaf:	e9 c4 fd ff ff       	jmp    1e878 <_vfiprintf_r+0x588>
   1eab4:	c6 44 24 6f 2b       	mov    BYTE PTR [rsp+0x6f],0x2b
   1eab9:	e9 42 fc ff ff       	jmp    1e700 <_vfiprintf_r+0x410>
   1eabe:	41 83 ce 01          	or     r14d,0x1
   1eac2:	e9 39 fc ff ff       	jmp    1e700 <_vfiprintf_r+0x410>
   1eac7:	80 7c 24 6f 00       	cmp    BYTE PTR [rsp+0x6f],0x0
   1eacc:	0f 85 2e fc ff ff    	jne    1e700 <_vfiprintf_r+0x410>
   1ead2:	c6 44 24 6f 20       	mov    BYTE PTR [rsp+0x6f],0x20
   1ead7:	e9 24 fc ff ff       	jmp    1e700 <_vfiprintf_r+0x410>
   1eadc:	48 8b 44 24 20       	mov    rax,QWORD PTR [rsp+0x20]
   1eae1:	89 74 24 1c          	mov    DWORD PTR [rsp+0x1c],esi
   1eae5:	41 83 ce 10          	or     r14d,0x10
   1eae9:	8b 00                	mov    eax,DWORD PTR [rax]
   1eaeb:	83 f8 2f             	cmp    eax,0x2f
   1eaee:	0f 87 35 08 00 00    	ja     1f329 <_vfiprintf_r+0x1039>
   1eaf4:	48 8b 7c 24 20       	mov    rdi,QWORD PTR [rsp+0x20]
   1eaf9:	89 c2                	mov    edx,eax
   1eafb:	83 c0 08             	add    eax,0x8
   1eafe:	89 07                	mov    DWORD PTR [rdi],eax
   1eb00:	48 03 57 10          	add    rdx,QWORD PTR [rdi+0x10]
   1eb04:	48 8b 02             	mov    rax,QWORD PTR [rdx]
   1eb07:	48 89 c6             	mov    rsi,rax
   1eb0a:	48 85 c0             	test   rax,rax
   1eb0d:	0f 88 78 fc ff ff    	js     1e78b <_vfiprintf_r+0x49b>
   1eb13:	41 83 ff ff          	cmp    r15d,0xffffffff
   1eb17:	0f 84 d3 09 00 00    	je     1f4f0 <_vfiprintf_r+0x1200>
   1eb1d:	41 80 e6 7f          	and    r14b,0x7f
   1eb21:	44 89 74 24 18       	mov    DWORD PTR [rsp+0x18],r14d
   1eb26:	48 85 f6             	test   rsi,rsi
   1eb29:	0f 85 b9 09 00 00    	jne    1f4e8 <_vfiprintf_r+0x11f8>
   1eb2f:	45 85 ff             	test   r15d,r15d
   1eb32:	0f 85 b0 09 00 00    	jne    1f4e8 <_vfiprintf_r+0x11f8>
   1eb38:	c7 44 24 08 00 00 00 	mov    DWORD PTR [rsp+0x8],0x0
   1eb3f:	00 
   1eb40:	48 8d ac 24 48 01 00 	lea    rbp,[rsp+0x148]
   1eb47:	00 
   1eb48:	0f 1f 84 00 00 00 00 	nop    DWORD PTR [rax+rax*1+0x0]
   1eb4f:	00 
   1eb50:	8b 44 24 08          	mov    eax,DWORD PTR [rsp+0x8]
   1eb54:	41 39 c7             	cmp    r15d,eax
   1eb57:	89 c3                	mov    ebx,eax
   1eb59:	41 0f 4d df          	cmovge ebx,r15d
   1eb5d:	80 7c 24 6f 01       	cmp    BYTE PTR [rsp+0x6f],0x1
   1eb62:	83 db ff             	sbb    ebx,0xffffffff
   1eb65:	e9 86 f9 ff ff       	jmp    1e4f0 <_vfiprintf_r+0x200>
   1eb6a:	41 80 ce 80          	or     r14b,0x80
   1eb6e:	e9 8d fb ff ff       	jmp    1e700 <_vfiprintf_r+0x410>
   1eb73:	41 0f be 14 24       	movsx  edx,BYTE PTR [r12]
   1eb78:	49 8d 7c 24 01       	lea    rdi,[r12+0x1]
   1eb7d:	83 fa 2a             	cmp    edx,0x2a
   1eb80:	0f 84 73 0c 00 00    	je     1f7f9 <_vfiprintf_r+0x1509>
   1eb86:	8d 42 d0             	lea    eax,[rdx-0x30]
   1eb89:	49 89 fc             	mov    r12,rdi
   1eb8c:	45 31 ff             	xor    r15d,r15d
   1eb8f:	83 f8 09             	cmp    eax,0x9
   1eb92:	0f 87 d8 f8 ff ff    	ja     1e470 <_vfiprintf_r+0x180>
   1eb98:	0f 1f 84 00 00 00 00 	nop    DWORD PTR [rax+rax*1+0x0]
   1eb9f:	00 
   1eba0:	43 8d 14 bf          	lea    edx,[r15+r15*4]
   1eba4:	49 83 c4 01          	add    r12,0x1
   1eba8:	44 8d 3c 50          	lea    r15d,[rax+rdx*2]
   1ebac:	41 0f be 54 24 ff    	movsx  edx,BYTE PTR [r12-0x1]
   1ebb2:	8d 42 d0             	lea    eax,[rdx-0x30]
   1ebb5:	83 f8 09             	cmp    eax,0x9
   1ebb8:	76 e6                	jbe    1eba0 <_vfiprintf_r+0x8b0>
   1ebba:	e9 b1 f8 ff ff       	jmp    1e470 <_vfiprintf_r+0x180>
   1ebbf:	48 63 44 24 08       	movsxd rax,DWORD PTR [rsp+0x8]
   1ebc4:	48 89 ac 24 90 00 00 	mov    QWORD PTR [rsp+0x90],rbp
   1ebcb:	00 
   1ebcc:	c7 44 24 78 01 00 00 	mov    DWORD PTR [rsp+0x78],0x1
   1ebd3:	00 
   1ebd4:	48 8b 4c 24 10       	mov    rcx,QWORD PTR [rsp+0x10]
   1ebd9:	48 89 84 24 98 00 00 	mov    QWORD PTR [rsp+0x98],rax
   1ebe0:	00 
   1ebe1:	48 89 84 24 80 00 00 	mov    QWORD PTR [rsp+0x80],rax
   1ebe8:	00 
   1ebe9:	0f 1f 80 00 00 00 00 	nop    DWORD PTR [rax+0x0]
   1ebf0:	48 83 c1 10          	add    rcx,0x10
   1ebf4:	e9 4f fa ff ff       	jmp    1e648 <_vfiprintf_r+0x358>
   1ebf9:	0f 1f 80 00 00 00 00 	nop    DWORD PTR [rax+0x0]
   1ec00:	44 8b 5c 24 1c       	mov    r11d,DWORD PTR [rsp+0x1c]
   1ec05:	41 29 db             	sub    r11d,ebx
   1ec08:	45 85 db             	test   r11d,r11d
   1ec0b:	0f 8e d5 f9 ff ff    	jle    1e5e6 <_vfiprintf_r+0x2f6>
   1ec11:	41 83 fb 10          	cmp    r11d,0x10
   1ec15:	0f 8e c3 0b 00 00    	jle    1f7de <_vfiprintf_r+0x14ee>
   1ec1b:	4c 8d 35 ce 21 ff ff 	lea    r14,[rip+0xffffffffffff21ce]        # 10df0 <zeroes.0>
   1ec22:	48 8d 7c 24 70       	lea    rdi,[rsp+0x70]
   1ec27:	48 89 6c 24 30       	mov    QWORD PTR [rsp+0x30],rbp
   1ec2c:	44 89 7c 24 3c       	mov    DWORD PTR [rsp+0x3c],r15d
   1ec31:	48 89 fd             	mov    rbp,rdi
   1ec34:	4d 89 f7             	mov    r15,r14
   1ec37:	4c 8b 74 24 10       	mov    r14,QWORD PTR [rsp+0x10]
   1ec3c:	89 5c 24 40          	mov    DWORD PTR [rsp+0x40],ebx
   1ec40:	48 8b 5c 24 28       	mov    rbx,QWORD PTR [rsp+0x28]
   1ec45:	4c 89 64 24 50       	mov    QWORD PTR [rsp+0x50],r12
   1ec4a:	45 89 dc             	mov    r12d,r11d
   1ec4d:	eb 14                	jmp    1ec63 <_vfiprintf_r+0x973>
   1ec4f:	90                   	nop
   1ec50:	8d 7a 02             	lea    edi,[rdx+0x2]
   1ec53:	48 83 c1 10          	add    rcx,0x10
   1ec57:	89 f2                	mov    edx,esi
   1ec59:	41 83 ec 10          	sub    r12d,0x10
   1ec5d:	41 83 fc 10          	cmp    r12d,0x10
   1ec61:	7e 5e                	jle    1ecc1 <_vfiprintf_r+0x9d1>
   1ec63:	48 83 c0 10          	add    rax,0x10
   1ec67:	8d 72 01             	lea    esi,[rdx+0x1]
   1ec6a:	4c 89 39             	mov    QWORD PTR [rcx],r15
   1ec6d:	48 c7 41 08 10 00 00 	mov    QWORD PTR [rcx+0x8],0x10
   1ec74:	00 
   1ec75:	48 89 84 24 80 00 00 	mov    QWORD PTR [rsp+0x80],rax
   1ec7c:	00 
   1ec7d:	89 74 24 78          	mov    DWORD PTR [rsp+0x78],esi
   1ec81:	83 fe 07             	cmp    esi,0x7
   1ec84:	7e ca                	jle    1ec50 <_vfiprintf_r+0x960>
   1ec86:	48 85 c0             	test   rax,rax
   1ec89:	0f 84 f1 01 00 00    	je     1ee80 <_vfiprintf_r+0xb90>
   1ec8f:	48 89 ea             	mov    rdx,rbp
   1ec92:	4c 89 ee             	mov    rsi,r13
   1ec95:	48 89 df             	mov    rdi,rbx
   1ec98:	e8 53 f5 ff ff       	call   1e1f0 <__sprint_r.part.0>
   1ec9d:	85 c0                	test   eax,eax
   1ec9f:	0f 85 66 fa ff ff    	jne    1e70b <_vfiprintf_r+0x41b>
   1eca5:	8b 54 24 78          	mov    edx,DWORD PTR [rsp+0x78]
   1eca9:	41 83 ec 10          	sub    r12d,0x10
   1ecad:	48 8b 84 24 80 00 00 	mov    rax,QWORD PTR [rsp+0x80]
   1ecb4:	00 
   1ecb5:	4c 89 f1             	mov    rcx,r14
   1ecb8:	8d 7a 01             	lea    edi,[rdx+0x1]
   1ecbb:	41 83 fc 10          	cmp    r12d,0x10
   1ecbf:	7f a2                	jg     1ec63 <_vfiprintf_r+0x973>
   1ecc1:	45 89 e3             	mov    r11d,r12d
   1ecc4:	4d 89 fe             	mov    r14,r15
   1ecc7:	48 8b 6c 24 30       	mov    rbp,QWORD PTR [rsp+0x30]
   1eccc:	8b 5c 24 40          	mov    ebx,DWORD PTR [rsp+0x40]
   1ecd0:	4c 8b 64 24 50       	mov    r12,QWORD PTR [rsp+0x50]
   1ecd5:	44 8b 7c 24 3c       	mov    r15d,DWORD PTR [rsp+0x3c]
   1ecda:	4d 63 db             	movsxd r11,r11d
   1ecdd:	4c 89 31             	mov    QWORD PTR [rcx],r14
   1ece0:	4c 01 d8             	add    rax,r11
   1ece3:	4c 89 59 08          	mov    QWORD PTR [rcx+0x8],r11
   1ece7:	48 89 84 24 80 00 00 	mov    QWORD PTR [rsp+0x80],rax
   1ecee:	00 
   1ecef:	89 7c 24 78          	mov    DWORD PTR [rsp+0x78],edi
   1ecf3:	83 ff 07             	cmp    edi,0x7
   1ecf6:	0f 8e 88 05 00 00    	jle    1f284 <_vfiprintf_r+0xf94>
   1ecfc:	48 85 c0             	test   rax,rax
   1ecff:	0f 84 4d 0a 00 00    	je     1f752 <_vfiprintf_r+0x1462>
   1ed05:	48 8b 7c 24 28       	mov    rdi,QWORD PTR [rsp+0x28]
   1ed0a:	48 8d 54 24 70       	lea    rdx,[rsp+0x70]
   1ed0f:	4c 89 ee             	mov    rsi,r13
   1ed12:	e8 d9 f4 ff ff       	call   1e1f0 <__sprint_r.part.0>
   1ed17:	85 c0                	test   eax,eax
   1ed19:	0f 85 ec f9 ff ff    	jne    1e70b <_vfiprintf_r+0x41b>
   1ed1f:	8b 54 24 78          	mov    edx,DWORD PTR [rsp+0x78]
   1ed23:	44 2b 7c 24 08       	sub    r15d,DWORD PTR [rsp+0x8]
   1ed28:	48 8b 84 24 80 00 00 	mov    rax,QWORD PTR [rsp+0x80]
   1ed2f:	00 
   1ed30:	48 8b 4c 24 10       	mov    rcx,QWORD PTR [rsp+0x10]
   1ed35:	8d 72 01             	lea    esi,[rdx+0x1]
   1ed38:	45 85 ff             	test   r15d,r15d
   1ed3b:	0f 8e b3 f8 ff ff    	jle    1e5f4 <_vfiprintf_r+0x304>
   1ed41:	0f 1f 80 00 00 00 00 	nop    DWORD PTR [rax+0x0]
   1ed48:	4c 8d 35 a1 20 ff ff 	lea    r14,[rip+0xffffffffffff20a1]        # 10df0 <zeroes.0>
   1ed4f:	41 83 ff 10          	cmp    r15d,0x10
   1ed53:	0f 8e be 00 00 00    	jle    1ee17 <_vfiprintf_r+0xb27>
   1ed59:	4c 89 f7             	mov    rdi,r14
   1ed5c:	48 8d 74 24 70       	lea    rsi,[rsp+0x70]
   1ed61:	89 5c 24 3c          	mov    DWORD PTR [rsp+0x3c],ebx
   1ed65:	4d 89 ee             	mov    r14,r13
   1ed68:	48 89 6c 24 30       	mov    QWORD PTR [rsp+0x30],rbp
   1ed6d:	45 89 fd             	mov    r13d,r15d
   1ed70:	48 8b 6c 24 28       	mov    rbp,QWORD PTR [rsp+0x28]
   1ed75:	49 89 ff             	mov    r15,rdi
   1ed78:	4c 89 64 24 40       	mov    QWORD PTR [rsp+0x40],r12
   1ed7d:	48 8b 5c 24 10       	mov    rbx,QWORD PTR [rsp+0x10]
   1ed82:	49 89 f4             	mov    r12,rsi
   1ed85:	eb 1c                	jmp    1eda3 <_vfiprintf_r+0xab3>
   1ed87:	66 0f 1f 84 00 00 00 	nop    WORD PTR [rax+rax*1+0x0]
   1ed8e:	00 00 
   1ed90:	8d 72 02             	lea    esi,[rdx+0x2]
   1ed93:	48 83 c1 10          	add    rcx,0x10
   1ed97:	89 fa                	mov    edx,edi
   1ed99:	41 83 ed 10          	sub    r13d,0x10
   1ed9d:	41 83 fd 10          	cmp    r13d,0x10
   1eda1:	7e 5a                	jle    1edfd <_vfiprintf_r+0xb0d>
   1eda3:	48 83 c0 10          	add    rax,0x10
   1eda7:	8d 7a 01             	lea    edi,[rdx+0x1]
   1edaa:	4c 89 39             	mov    QWORD PTR [rcx],r15
   1edad:	48 c7 41 08 10 00 00 	mov    QWORD PTR [rcx+0x8],0x10
   1edb4:	00 
   1edb5:	48 89 84 24 80 00 00 	mov    QWORD PTR [rsp+0x80],rax
   1edbc:	00 
   1edbd:	89 7c 24 78          	mov    DWORD PTR [rsp+0x78],edi
   1edc1:	83 ff 07             	cmp    edi,0x7
   1edc4:	7e ca                	jle    1ed90 <_vfiprintf_r+0xaa0>
   1edc6:	48 85 c0             	test   rax,rax
   1edc9:	74 7d                	je     1ee48 <_vfiprintf_r+0xb58>
   1edcb:	4c 89 e2             	mov    rdx,r12
   1edce:	4c 89 f6             	mov    rsi,r14
   1edd1:	48 89 ef             	mov    rdi,rbp
   1edd4:	e8 17 f4 ff ff       	call   1e1f0 <__sprint_r.part.0>
   1edd9:	85 c0                	test   eax,eax
   1eddb:	0f 85 27 f9 ff ff    	jne    1e708 <_vfiprintf_r+0x418>
   1ede1:	8b 54 24 78          	mov    edx,DWORD PTR [rsp+0x78]
   1ede5:	41 83 ed 10          	sub    r13d,0x10
   1ede9:	48 8b 84 24 80 00 00 	mov    rax,QWORD PTR [rsp+0x80]
   1edf0:	00 
   1edf1:	48 89 d9             	mov    rcx,rbx
   1edf4:	8d 72 01             	lea    esi,[rdx+0x1]
   1edf7:	41 83 fd 10          	cmp    r13d,0x10
   1edfb:	7f a6                	jg     1eda3 <_vfiprintf_r+0xab3>
   1edfd:	4c 89 ff             	mov    rdi,r15
   1ee00:	48 8b 6c 24 30       	mov    rbp,QWORD PTR [rsp+0x30]
   1ee05:	8b 5c 24 3c          	mov    ebx,DWORD PTR [rsp+0x3c]
   1ee09:	45 89 ef             	mov    r15d,r13d
   1ee0c:	4c 8b 64 24 40       	mov    r12,QWORD PTR [rsp+0x40]
   1ee11:	4d 89 f5             	mov    r13,r14
   1ee14:	49 89 fe             	mov    r14,rdi
   1ee17:	4d 63 ff             	movsxd r15,r15d
   1ee1a:	4c 89 31             	mov    QWORD PTR [rcx],r14
   1ee1d:	4c 01 f8             	add    rax,r15
   1ee20:	4c 89 79 08          	mov    QWORD PTR [rcx+0x8],r15
   1ee24:	48 89 84 24 80 00 00 	mov    QWORD PTR [rsp+0x80],rax
   1ee2b:	00 
   1ee2c:	89 74 24 78          	mov    DWORD PTR [rsp+0x78],esi
   1ee30:	83 fe 07             	cmp    esi,0x7
   1ee33:	0f 8f 6f 03 00 00    	jg     1f1a8 <_vfiprintf_r+0xeb8>
   1ee39:	48 83 c1 10          	add    rcx,0x10
   1ee3d:	83 c6 01             	add    esi,0x1
   1ee40:	e9 af f7 ff ff       	jmp    1e5f4 <_vfiprintf_r+0x304>
   1ee45:	0f 1f 00             	nop    DWORD PTR [rax]
   1ee48:	be 01 00 00 00       	mov    esi,0x1
   1ee4d:	31 d2                	xor    edx,edx
   1ee4f:	48 89 d9             	mov    rcx,rbx
   1ee52:	e9 42 ff ff ff       	jmp    1ed99 <_vfiprintf_r+0xaa9>
   1ee57:	66 0f 1f 84 00 00 00 	nop    WORD PTR [rax+rax*1+0x0]
   1ee5e:	00 00 
   1ee60:	48 8b 7c 24 28       	mov    rdi,QWORD PTR [rsp+0x28]
   1ee65:	48 8d 54 24 70       	lea    rdx,[rsp+0x70]
   1ee6a:	4c 89 ee             	mov    rsi,r13
   1ee6d:	e8 7e f3 ff ff       	call   1e1f0 <__sprint_r.part.0>
   1ee72:	85 c0                	test   eax,eax
   1ee74:	0f 84 fc f7 ff ff    	je     1e676 <_vfiprintf_r+0x386>
   1ee7a:	e9 8c f8 ff ff       	jmp    1e70b <_vfiprintf_r+0x41b>
   1ee7f:	90                   	nop
   1ee80:	bf 01 00 00 00       	mov    edi,0x1
   1ee85:	31 d2                	xor    edx,edx
   1ee87:	4c 89 f1             	mov    rcx,r14
   1ee8a:	e9 ca fd ff ff       	jmp    1ec59 <_vfiprintf_r+0x969>
   1ee8f:	90                   	nop
   1ee90:	48 85 c0             	test   rax,rax
   1ee93:	0f 84 5d 03 00 00    	je     1f1f6 <_vfiprintf_r+0xf06>
   1ee99:	48 8b 7c 24 28       	mov    rdi,QWORD PTR [rsp+0x28]
   1ee9e:	48 8d 54 24 70       	lea    rdx,[rsp+0x70]
   1eea3:	4c 89 ee             	mov    rsi,r13
   1eea6:	e8 45 f3 ff ff       	call   1e1f0 <__sprint_r.part.0>
   1eeab:	85 c0                	test   eax,eax
   1eead:	0f 85 58 f8 ff ff    	jne    1e70b <_vfiprintf_r+0x41b>
   1eeb3:	8b 54 24 78          	mov    edx,DWORD PTR [rsp+0x78]
   1eeb7:	48 8b 84 24 80 00 00 	mov    rax,QWORD PTR [rsp+0x80]
   1eebe:	00 
   1eebf:	48 8b 4c 24 10       	mov    rcx,QWORD PTR [rsp+0x10]
   1eec4:	8d 72 01             	lea    esi,[rdx+0x1]
   1eec7:	e9 9f f6 ff ff       	jmp    1e56b <_vfiprintf_r+0x27b>
   1eecc:	48 8d 84 24 1e 01 00 	lea    rax,[rsp+0x11e]
   1eed3:	00 
   1eed4:	48 8b 4c 24 10       	mov    rcx,QWORD PTR [rsp+0x10]
   1eed9:	be 01 00 00 00       	mov    esi,0x1
   1eede:	48 c7 84 24 98 00 00 	mov    QWORD PTR [rsp+0x98],0x2
   1eee5:	00 02 00 00 00 
   1eeea:	48 89 84 24 90 00 00 	mov    QWORD PTR [rsp+0x90],rax
   1eef1:	00 
   1eef2:	b8 02 00 00 00       	mov    eax,0x2
   1eef7:	66 0f 1f 84 00 00 00 	nop    WORD PTR [rax+rax*1+0x0]
   1eefe:	00 00 
   1ef00:	89 f2                	mov    edx,esi
   1ef02:	48 83 c1 10          	add    rcx,0x10
   1ef06:	8d 72 01             	lea    esi,[rdx+0x1]
   1ef09:	e9 ca f6 ff ff       	jmp    1e5d8 <_vfiprintf_r+0x2e8>
   1ef0e:	66 90                	xchg   ax,ax
   1ef10:	41 83 fa 10          	cmp    r10d,0x10
   1ef14:	0f 8e b4 08 00 00    	jle    1f7ce <_vfiprintf_r+0x14de>
   1ef1a:	48 8d 74 24 70       	lea    rsi,[rsp+0x70]
   1ef1f:	44 89 74 24 3c       	mov    DWORD PTR [rsp+0x3c],r14d
   1ef24:	4c 8b 74 24 28       	mov    r14,QWORD PTR [rsp+0x28]
   1ef29:	48 89 6c 24 40       	mov    QWORD PTR [rsp+0x40],rbp
   1ef2e:	44 89 d5             	mov    ebp,r10d
   1ef31:	89 5c 24 50          	mov    DWORD PTR [rsp+0x50],ebx
   1ef35:	48 89 f3             	mov    rbx,rsi
   1ef38:	4c 89 64 24 58       	mov    QWORD PTR [rsp+0x58],r12
   1ef3d:	4d 89 ec             	mov    r12,r13
   1ef40:	4c 8b 6c 24 10       	mov    r13,QWORD PTR [rsp+0x10]
   1ef45:	eb 1e                	jmp    1ef65 <_vfiprintf_r+0xc75>
   1ef47:	66 0f 1f 84 00 00 00 	nop    WORD PTR [rax+rax*1+0x0]
   1ef4e:	00 00 
   1ef50:	44 8d 5a 02          	lea    r11d,[rdx+0x2]
   1ef54:	48 83 c1 10          	add    rcx,0x10
   1ef58:	89 fa                	mov    edx,edi
   1ef5a:	83 ed 10             	sub    ebp,0x10
   1ef5d:	83 fd 10             	cmp    ebp,0x10
   1ef60:	7e 64                	jle    1efc6 <_vfiprintf_r+0xcd6>
   1ef62:	8d 7a 01             	lea    edi,[rdx+0x1]
   1ef65:	48 8d 35 94 1e ff ff 	lea    rsi,[rip+0xffffffffffff1e94]        # 10e00 <blanks.1>
   1ef6c:	48 83 c0 10          	add    rax,0x10
   1ef70:	48 c7 41 08 10 00 00 	mov    QWORD PTR [rcx+0x8],0x10
   1ef77:	00 
   1ef78:	48 89 31             	mov    QWORD PTR [rcx],rsi
   1ef7b:	48 89 84 24 80 00 00 	mov    QWORD PTR [rsp+0x80],rax
   1ef82:	00 
   1ef83:	89 7c 24 78          	mov    DWORD PTR [rsp+0x78],edi
   1ef87:	83 ff 07             	cmp    edi,0x7
   1ef8a:	7e c4                	jle    1ef50 <_vfiprintf_r+0xc60>
   1ef8c:	48 85 c0             	test   rax,rax
   1ef8f:	0f 84 8b 00 00 00    	je     1f020 <_vfiprintf_r+0xd30>
   1ef95:	48 89 da             	mov    rdx,rbx
   1ef98:	4c 89 e6             	mov    rsi,r12
   1ef9b:	4c 89 f7             	mov    rdi,r14
   1ef9e:	e8 4d f2 ff ff       	call   1e1f0 <__sprint_r.part.0>
   1efa3:	85 c0                	test   eax,eax
   1efa5:	0f 85 95 02 00 00    	jne    1f240 <_vfiprintf_r+0xf50>
   1efab:	8b 54 24 78          	mov    edx,DWORD PTR [rsp+0x78]
   1efaf:	83 ed 10             	sub    ebp,0x10
   1efb2:	48 8b 84 24 80 00 00 	mov    rax,QWORD PTR [rsp+0x80]
   1efb9:	00 
   1efba:	4c 89 e9             	mov    rcx,r13
   1efbd:	44 8d 5a 01          	lea    r11d,[rdx+0x1]
   1efc1:	83 fd 10             	cmp    ebp,0x10
   1efc4:	7f 9c                	jg     1ef62 <_vfiprintf_r+0xc72>
   1efc6:	41 89 ea             	mov    r10d,ebp
   1efc9:	4d 89 e5             	mov    r13,r12
   1efcc:	44 8b 74 24 3c       	mov    r14d,DWORD PTR [rsp+0x3c]
   1efd1:	8b 5c 24 50          	mov    ebx,DWORD PTR [rsp+0x50]
   1efd5:	48 8b 6c 24 40       	mov    rbp,QWORD PTR [rsp+0x40]
   1efda:	4c 8b 64 24 58       	mov    r12,QWORD PTR [rsp+0x58]
   1efdf:	4d 63 d2             	movsxd r10,r10d
   1efe2:	48 8d 35 17 1e ff ff 	lea    rsi,[rip+0xffffffffffff1e17]        # 10e00 <blanks.1>
   1efe9:	44 89 5c 24 78       	mov    DWORD PTR [rsp+0x78],r11d
   1efee:	4c 01 d0             	add    rax,r10
   1eff1:	48 89 31             	mov    QWORD PTR [rcx],rsi
   1eff4:	4c 89 51 08          	mov    QWORD PTR [rcx+0x8],r10
   1eff8:	48 89 84 24 80 00 00 	mov    QWORD PTR [rsp+0x80],rax
   1efff:	00 
   1f000:	41 83 fb 07          	cmp    r11d,0x7
   1f004:	0f 8f 3e 02 00 00    	jg     1f248 <_vfiprintf_r+0xf58>
   1f00a:	48 83 c1 10          	add    rcx,0x10
   1f00e:	41 8d 73 01          	lea    esi,[r11+0x1]
   1f012:	44 89 da             	mov    edx,r11d
   1f015:	e9 18 f5 ff ff       	jmp    1e532 <_vfiprintf_r+0x242>
   1f01a:	66 0f 1f 44 00 00    	nop    WORD PTR [rax+rax*1+0x0]
   1f020:	31 d2                	xor    edx,edx
   1f022:	41 bb 01 00 00 00    	mov    r11d,0x1
   1f028:	4c 89 e9             	mov    rcx,r13
   1f02b:	e9 2a ff ff ff       	jmp    1ef5a <_vfiprintf_r+0xc6a>
   1f030:	c7 44 24 78 00 00 00 	mov    DWORD PTR [rsp+0x78],0x0
   1f037:	00 
   1f038:	f6 44 24 18 04       	test   BYTE PTR [rsp+0x18],0x4
   1f03d:	0f 84 4d 01 00 00    	je     1f190 <_vfiprintf_r+0xea0>
   1f043:	44 8b 7c 24 1c       	mov    r15d,DWORD PTR [rsp+0x1c]
   1f048:	41 29 df             	sub    r15d,ebx
   1f04b:	45 85 ff             	test   r15d,r15d
   1f04e:	0f 8e 3c 01 00 00    	jle    1f190 <_vfiprintf_r+0xea0>
   1f054:	48 8b 4c 24 10       	mov    rcx,QWORD PTR [rsp+0x10]
   1f059:	0f 1f 80 00 00 00 00 	nop    DWORD PTR [rax+0x0]
   1f060:	8b 74 24 78          	mov    esi,DWORD PTR [rsp+0x78]
   1f064:	41 83 ff 10          	cmp    r15d,0x10
   1f068:	0f 8e 68 07 00 00    	jle    1f7d6 <_vfiprintf_r+0x14e6>
   1f06e:	4c 8d 74 24 70       	lea    r14,[rsp+0x70]
   1f073:	4c 89 e7             	mov    rdi,r12
   1f076:	89 5c 24 08          	mov    DWORD PTR [rsp+0x8],ebx
   1f07a:	4d 89 ec             	mov    r12,r13
   1f07d:	4c 89 f3             	mov    rbx,r14
   1f080:	45 89 fd             	mov    r13d,r15d
   1f083:	48 8b 6c 24 10       	mov    rbp,QWORD PTR [rsp+0x10]
   1f088:	4c 8b 74 24 28       	mov    r14,QWORD PTR [rsp+0x28]
   1f08d:	49 89 ff             	mov    r15,rdi
   1f090:	eb 19                	jmp    1f0ab <_vfiprintf_r+0xdbb>
   1f092:	66 0f 1f 44 00 00    	nop    WORD PTR [rax+rax*1+0x0]
   1f098:	8d 7e 02             	lea    edi,[rsi+0x2]
   1f09b:	48 83 c1 10          	add    rcx,0x10
   1f09f:	89 d6                	mov    esi,edx
   1f0a1:	41 83 ed 10          	sub    r13d,0x10
   1f0a5:	41 83 fd 10          	cmp    r13d,0x10
   1f0a9:	7e 65                	jle    1f110 <_vfiprintf_r+0xe20>
   1f0ab:	48 8d 3d 4e 1d ff ff 	lea    rdi,[rip+0xffffffffffff1d4e]        # 10e00 <blanks.1>
   1f0b2:	48 83 c0 10          	add    rax,0x10
   1f0b6:	8d 56 01             	lea    edx,[rsi+0x1]
   1f0b9:	48 c7 41 08 10 00 00 	mov    QWORD PTR [rcx+0x8],0x10
   1f0c0:	00 
   1f0c1:	48 89 39             	mov    QWORD PTR [rcx],rdi
   1f0c4:	48 89 84 24 80 00 00 	mov    QWORD PTR [rsp+0x80],rax
   1f0cb:	00 
   1f0cc:	89 54 24 78          	mov    DWORD PTR [rsp+0x78],edx
   1f0d0:	83 fa 07             	cmp    edx,0x7
   1f0d3:	7e c3                	jle    1f098 <_vfiprintf_r+0xda8>
   1f0d5:	48 85 c0             	test   rax,rax
   1f0d8:	0f 84 9a 00 00 00    	je     1f178 <_vfiprintf_r+0xe88>
   1f0de:	48 89 da             	mov    rdx,rbx
   1f0e1:	4c 89 e6             	mov    rsi,r12
   1f0e4:	4c 89 f7             	mov    rdi,r14
   1f0e7:	e8 04 f1 ff ff       	call   1e1f0 <__sprint_r.part.0>
   1f0ec:	85 c0                	test   eax,eax
   1f0ee:	0f 85 4c 01 00 00    	jne    1f240 <_vfiprintf_r+0xf50>
   1f0f4:	8b 74 24 78          	mov    esi,DWORD PTR [rsp+0x78]
   1f0f8:	41 83 ed 10          	sub    r13d,0x10
   1f0fc:	48 8b 84 24 80 00 00 	mov    rax,QWORD PTR [rsp+0x80]
   1f103:	00 
   1f104:	48 89 e9             	mov    rcx,rbp
   1f107:	8d 7e 01             	lea    edi,[rsi+0x1]
   1f10a:	41 83 fd 10          	cmp    r13d,0x10
   1f10e:	7f 9b                	jg     1f0ab <_vfiprintf_r+0xdbb>
   1f110:	4c 89 fe             	mov    rsi,r15
   1f113:	8b 5c 24 08          	mov    ebx,DWORD PTR [rsp+0x8]
   1f117:	45 89 ef             	mov    r15d,r13d
   1f11a:	4d 89 e5             	mov    r13,r12
   1f11d:	49 89 f4             	mov    r12,rsi
   1f120:	4d 63 ff             	movsxd r15,r15d
   1f123:	48 8d 35 d6 1c ff ff 	lea    rsi,[rip+0xffffffffffff1cd6]        # 10e00 <blanks.1>
   1f12a:	89 7c 24 78          	mov    DWORD PTR [rsp+0x78],edi
   1f12e:	4c 01 f8             	add    rax,r15
   1f131:	48 89 31             	mov    QWORD PTR [rcx],rsi
   1f134:	4c 89 79 08          	mov    QWORD PTR [rcx+0x8],r15
   1f138:	48 89 84 24 80 00 00 	mov    QWORD PTR [rsp+0x80],rax
   1f13f:	00 
   1f140:	83 ff 07             	cmp    edi,0x7
   1f143:	0f 8e 17 f5 ff ff    	jle    1e660 <_vfiprintf_r+0x370>
   1f149:	48 85 c0             	test   rax,rax
   1f14c:	74 42                	je     1f190 <_vfiprintf_r+0xea0>
   1f14e:	48 8b 7c 24 28       	mov    rdi,QWORD PTR [rsp+0x28]
   1f153:	48 8d 54 24 70       	lea    rdx,[rsp+0x70]
   1f158:	4c 89 ee             	mov    rsi,r13
   1f15b:	e8 90 f0 ff ff       	call   1e1f0 <__sprint_r.part.0>
   1f160:	85 c0                	test   eax,eax
   1f162:	0f 85 a3 f5 ff ff    	jne    1e70b <_vfiprintf_r+0x41b>
   1f168:	48 8b 84 24 80 00 00 	mov    rax,QWORD PTR [rsp+0x80]
   1f16f:	00 
   1f170:	e9 eb f4 ff ff       	jmp    1e660 <_vfiprintf_r+0x370>
   1f175:	0f 1f 00             	nop    DWORD PTR [rax]
   1f178:	bf 01 00 00 00       	mov    edi,0x1
   1f17d:	31 f6                	xor    esi,esi
   1f17f:	48 89 e9             	mov    rcx,rbp
   1f182:	e9 1a ff ff ff       	jmp    1f0a1 <_vfiprintf_r+0xdb1>
   1f187:	66 0f 1f 84 00 00 00 	nop    WORD PTR [rax+rax*1+0x0]
   1f18e:	00 00 
   1f190:	8b 44 24 1c          	mov    eax,DWORD PTR [rsp+0x1c]
   1f194:	39 d8                	cmp    eax,ebx
   1f196:	0f 4d d8             	cmovge ebx,eax
   1f199:	01 5c 24 38          	add    DWORD PTR [rsp+0x38],ebx
   1f19d:	e9 d4 f4 ff ff       	jmp    1e676 <_vfiprintf_r+0x386>
   1f1a2:	66 0f 1f 44 00 00    	nop    WORD PTR [rax+rax*1+0x0]
   1f1a8:	48 85 c0             	test   rax,rax
   1f1ab:	0f 84 0e fa ff ff    	je     1ebbf <_vfiprintf_r+0x8cf>
   1f1b1:	48 8b 7c 24 28       	mov    rdi,QWORD PTR [rsp+0x28]
   1f1b6:	48 8d 54 24 70       	lea    rdx,[rsp+0x70]
   1f1bb:	4c 89 ee             	mov    rsi,r13
   1f1be:	e8 2d f0 ff ff       	call   1e1f0 <__sprint_r.part.0>
   1f1c3:	85 c0                	test   eax,eax
   1f1c5:	0f 85 40 f5 ff ff    	jne    1e70b <_vfiprintf_r+0x41b>
   1f1cb:	8b 4c 24 78          	mov    ecx,DWORD PTR [rsp+0x78]
   1f1cf:	48 8b 84 24 80 00 00 	mov    rax,QWORD PTR [rsp+0x80]
   1f1d6:	00 
   1f1d7:	8d 71 01             	lea    esi,[rcx+0x1]
   1f1da:	48 8b 4c 24 10       	mov    rcx,QWORD PTR [rsp+0x10]
   1f1df:	e9 10 f4 ff ff       	jmp    1e5f4 <_vfiprintf_r+0x304>
   1f1e4:	c7 44 24 78 00 00 00 	mov    DWORD PTR [rsp+0x78],0x0
   1f1eb:	00 
   1f1ec:	48 8b 4c 24 10       	mov    rcx,QWORD PTR [rsp+0x10]
   1f1f1:	e9 4e f2 ff ff       	jmp    1e444 <_vfiprintf_r+0x154>
   1f1f6:	45 85 f6             	test   r14d,r14d
   1f1f9:	0f 84 cb 01 00 00    	je     1f3ca <_vfiprintf_r+0x10da>
   1f1ff:	48 8d 84 24 1e 01 00 	lea    rax,[rsp+0x11e]
   1f206:	00 
   1f207:	48 8b 4c 24 10       	mov    rcx,QWORD PTR [rsp+0x10]
   1f20c:	ba 01 00 00 00       	mov    edx,0x1
   1f211:	48 c7 84 24 98 00 00 	mov    QWORD PTR [rsp+0x98],0x2
   1f218:	00 02 00 00 00 
   1f21d:	48 89 84 24 90 00 00 	mov    QWORD PTR [rsp+0x90],rax
   1f224:	00 
   1f225:	b8 02 00 00 00       	mov    eax,0x2
   1f22a:	e9 d3 fc ff ff       	jmp    1ef02 <_vfiprintf_r+0xc12>
   1f22f:	48 8b 4c 24 10       	mov    rcx,QWORD PTR [rsp+0x10]
   1f234:	be 01 00 00 00       	mov    esi,0x1
   1f239:	31 d2                	xor    edx,edx
   1f23b:	e9 98 f3 ff ff       	jmp    1e5d8 <_vfiprintf_r+0x2e8>
   1f240:	4d 89 e5             	mov    r13,r12
   1f243:	e9 c3 f4 ff ff       	jmp    1e70b <_vfiprintf_r+0x41b>
   1f248:	48 85 c0             	test   rax,rax
   1f24b:	0f 84 f2 01 00 00    	je     1f443 <_vfiprintf_r+0x1153>
   1f251:	48 8b 7c 24 28       	mov    rdi,QWORD PTR [rsp+0x28]
   1f256:	48 8d 54 24 70       	lea    rdx,[rsp+0x70]
   1f25b:	4c 89 ee             	mov    rsi,r13
   1f25e:	e8 8d ef ff ff       	call   1e1f0 <__sprint_r.part.0>
   1f263:	85 c0                	test   eax,eax
   1f265:	0f 85 a0 f4 ff ff    	jne    1e70b <_vfiprintf_r+0x41b>
   1f26b:	8b 54 24 78          	mov    edx,DWORD PTR [rsp+0x78]
   1f26f:	48 8b 84 24 80 00 00 	mov    rax,QWORD PTR [rsp+0x80]
   1f276:	00 
   1f277:	48 8b 4c 24 10       	mov    rcx,QWORD PTR [rsp+0x10]
   1f27c:	8d 72 01             	lea    esi,[rdx+0x1]
   1f27f:	e9 ae f2 ff ff       	jmp    1e532 <_vfiprintf_r+0x242>
   1f284:	48 83 c1 10          	add    rcx,0x10
   1f288:	8d 77 01             	lea    esi,[rdi+0x1]
   1f28b:	89 fa                	mov    edx,edi
   1f28d:	e9 54 f3 ff ff       	jmp    1e5e6 <_vfiprintf_r+0x2f6>
   1f292:	48 8b 7c 24 20       	mov    rdi,QWORD PTR [rsp+0x20]
   1f297:	48 8b 57 08          	mov    rdx,QWORD PTR [rdi+0x8]
   1f29b:	48 8d 42 08          	lea    rax,[rdx+0x8]
   1f29f:	48 89 47 08          	mov    QWORD PTR [rdi+0x8],rax
   1f2a3:	e9 3d f7 ff ff       	jmp    1e9e5 <_vfiprintf_r+0x6f5>
   1f2a8:	48 8b 5c 24 20       	mov    rbx,QWORD PTR [rsp+0x20]
   1f2ad:	48 8b 53 08          	mov    rdx,QWORD PTR [rbx+0x8]
   1f2b1:	48 8d 42 08          	lea    rax,[rdx+0x8]
   1f2b5:	48 89 43 08          	mov    QWORD PTR [rbx+0x8],rax
   1f2b9:	e9 5e f5 ff ff       	jmp    1e81c <_vfiprintf_r+0x52c>
   1f2be:	48 8b 74 24 20       	mov    rsi,QWORD PTR [rsp+0x20]
   1f2c3:	48 8b 56 08          	mov    rdx,QWORD PTR [rsi+0x8]
   1f2c7:	48 8d 42 08          	lea    rax,[rdx+0x8]
   1f2cb:	48 89 46 08          	mov    QWORD PTR [rsi+0x8],rax
   1f2cf:	e9 b6 f7 ff ff       	jmp    1ea8a <_vfiprintf_r+0x79a>
   1f2d4:	41 83 e6 40          	and    r14d,0x40
   1f2d8:	0f 84 df 03 00 00    	je     1f6bd <_vfiprintf_r+0x13cd>
   1f2de:	83 f8 2f             	cmp    eax,0x2f
   1f2e1:	0f 87 a9 04 00 00    	ja     1f790 <_vfiprintf_r+0x14a0>
   1f2e7:	48 8b 74 24 20       	mov    rsi,QWORD PTR [rsp+0x20]
   1f2ec:	89 c2                	mov    edx,eax
   1f2ee:	83 c0 08             	add    eax,0x8
   1f2f1:	89 06                	mov    DWORD PTR [rsi],eax
   1f2f3:	48 03 56 10          	add    rdx,QWORD PTR [rsi+0x10]
   1f2f7:	48 8b 02             	mov    rax,QWORD PTR [rdx]
   1f2fa:	0f b7 74 24 38       	movzx  esi,WORD PTR [rsp+0x38]
   1f2ff:	66 89 30             	mov    WORD PTR [rax],si
   1f302:	e9 ae f0 ff ff       	jmp    1e3b5 <_vfiprintf_r+0xc5>
   1f307:	83 f8 2f             	cmp    eax,0x2f
   1f30a:	0f 87 69 03 00 00    	ja     1f679 <_vfiprintf_r+0x1389>
   1f310:	48 8b 74 24 20       	mov    rsi,QWORD PTR [rsp+0x20]
   1f315:	89 c2                	mov    edx,eax
   1f317:	83 c0 08             	add    eax,0x8
   1f31a:	89 06                	mov    DWORD PTR [rsi],eax
   1f31c:	48 03 56 10          	add    rdx,QWORD PTR [rsi+0x10]
   1f320:	8b 32                	mov    esi,DWORD PTR [rdx]
   1f322:	31 c0                	xor    eax,eax
   1f324:	e9 4f f5 ff ff       	jmp    1e878 <_vfiprintf_r+0x588>
   1f329:	48 8b 74 24 20       	mov    rsi,QWORD PTR [rsp+0x20]
   1f32e:	48 8b 56 08          	mov    rdx,QWORD PTR [rsi+0x8]
   1f332:	48 8d 42 08          	lea    rax,[rdx+0x8]
   1f336:	48 89 46 08          	mov    QWORD PTR [rsi+0x8],rax
   1f33a:	e9 c5 f7 ff ff       	jmp    1eb04 <_vfiprintf_r+0x814>
   1f33f:	83 f8 2f             	cmp    eax,0x2f
   1f342:	0f 87 9c 03 00 00    	ja     1f6e4 <_vfiprintf_r+0x13f4>
   1f348:	48 8b 7c 24 20       	mov    rdi,QWORD PTR [rsp+0x20]
   1f34d:	89 c2                	mov    edx,eax
   1f34f:	83 c0 08             	add    eax,0x8
   1f352:	89 07                	mov    DWORD PTR [rdi],eax
   1f354:	48 03 57 10          	add    rdx,QWORD PTR [rdi+0x10]
   1f358:	8b 32                	mov    esi,DWORD PTR [rdx]
   1f35a:	b8 01 00 00 00       	mov    eax,0x1
   1f35f:	e9 14 f5 ff ff       	jmp    1e878 <_vfiprintf_r+0x588>
   1f364:	48 8b 5c 24 20       	mov    rbx,QWORD PTR [rsp+0x20]
   1f369:	48 8b 53 08          	mov    rdx,QWORD PTR [rbx+0x8]
   1f36d:	48 8d 42 08          	lea    rax,[rdx+0x8]
   1f371:	48 89 43 08          	mov    QWORD PTR [rbx+0x8],rax
   1f375:	e9 e6 f5 ff ff       	jmp    1e960 <_vfiprintf_r+0x670>
   1f37a:	48 8b 5c 24 20       	mov    rbx,QWORD PTR [rsp+0x20]
   1f37f:	48 8b 53 08          	mov    rdx,QWORD PTR [rbx+0x8]
   1f383:	48 8d 42 08          	lea    rax,[rdx+0x8]
   1f387:	48 89 43 08          	mov    QWORD PTR [rbx+0x8],rax
   1f38b:	e9 63 f5 ff ff       	jmp    1e8f3 <_vfiprintf_r+0x603>
   1f390:	48 8b 74 24 20       	mov    rsi,QWORD PTR [rsp+0x20]
   1f395:	48 8b 56 08          	mov    rdx,QWORD PTR [rsi+0x8]
   1f399:	48 8d 42 08          	lea    rax,[rdx+0x8]
   1f39d:	48 89 46 08          	mov    QWORD PTR [rsi+0x8],rax
   1f3a1:	e9 0a f6 ff ff       	jmp    1e9b0 <_vfiprintf_r+0x6c0>
   1f3a6:	83 f8 2f             	cmp    eax,0x2f
   1f3a9:	0f 87 61 03 00 00    	ja     1f710 <_vfiprintf_r+0x1420>
   1f3af:	48 8b 7c 24 20       	mov    rdi,QWORD PTR [rsp+0x20]
   1f3b4:	89 c2                	mov    edx,eax
   1f3b6:	83 c0 08             	add    eax,0x8
   1f3b9:	89 07                	mov    DWORD PTR [rdi],eax
   1f3bb:	48 03 57 10          	add    rdx,QWORD PTR [rdi+0x10]
   1f3bf:	48 63 32             	movsxd rsi,DWORD PTR [rdx]
   1f3c2:	48 89 f0             	mov    rax,rsi
   1f3c5:	e9 40 f7 ff ff       	jmp    1eb0a <_vfiprintf_r+0x81a>
   1f3ca:	48 8b 4c 24 10       	mov    rcx,QWORD PTR [rsp+0x10]
   1f3cf:	31 d2                	xor    edx,edx
   1f3d1:	be 01 00 00 00       	mov    esi,0x1
   1f3d6:	e9 fd f1 ff ff       	jmp    1e5d8 <_vfiprintf_r+0x2e8>
   1f3db:	48 8d 05 03 0f ff ff 	lea    rax,[rip+0xffffffffffff0f03]        # 102e5 <zeroes.0-0x35b>
   1f3e2:	89 74 24 1c          	mov    DWORD PTR [rsp+0x1c],esi
   1f3e6:	48 89 44 24 48       	mov    QWORD PTR [rsp+0x48],rax
   1f3eb:	48 8b 7c 24 20       	mov    rdi,QWORD PTR [rsp+0x20]
   1f3f0:	8b 07                	mov    eax,DWORD PTR [rdi]
   1f3f2:	41 f6 c6 10          	test   r14b,0x10
   1f3f6:	0f 84 33 01 00 00    	je     1f52f <_vfiprintf_r+0x123f>
   1f3fc:	83 f8 2f             	cmp    eax,0x2f
   1f3ff:	0f 87 5b 01 00 00    	ja     1f560 <_vfiprintf_r+0x1270>
   1f405:	89 c6                	mov    esi,eax
   1f407:	83 c0 08             	add    eax,0x8
   1f40a:	48 03 77 10          	add    rsi,QWORD PTR [rdi+0x10]
   1f40e:	89 07                	mov    DWORD PTR [rdi],eax
   1f410:	48 8b 36             	mov    rsi,QWORD PTR [rsi]
   1f413:	b8 02 00 00 00       	mov    eax,0x2
   1f418:	41 f6 c6 01          	test   r14b,0x1
   1f41c:	0f 84 56 f4 ff ff    	je     1e878 <_vfiprintf_r+0x588>
   1f422:	48 85 f6             	test   rsi,rsi
   1f425:	0f 84 4d f4 ff ff    	je     1e878 <_vfiprintf_r+0x588>
   1f42b:	c6 84 24 1e 01 00 00 	mov    BYTE PTR [rsp+0x11e],0x30
   1f432:	30 
   1f433:	41 83 ce 02          	or     r14d,0x2
   1f437:	88 94 24 1f 01 00 00 	mov    BYTE PTR [rsp+0x11f],dl
   1f43e:	e9 35 f4 ff ff       	jmp    1e878 <_vfiprintf_r+0x588>
   1f443:	80 7c 24 6f 00       	cmp    BYTE PTR [rsp+0x6f],0x0
   1f448:	0f 85 15 03 00 00    	jne    1f763 <_vfiprintf_r+0x1473>
   1f44e:	45 85 f6             	test   r14d,r14d
   1f451:	0f 85 75 fa ff ff    	jne    1eecc <_vfiprintf_r+0xbdc>
   1f457:	48 8b 4c 24 10       	mov    rcx,QWORD PTR [rsp+0x10]
   1f45c:	31 d2                	xor    edx,edx
   1f45e:	be 01 00 00 00       	mov    esi,0x1
   1f463:	e9 7e f1 ff ff       	jmp    1e5e6 <_vfiprintf_r+0x2f6>
   1f468:	48 8d 05 de 0e ff ff 	lea    rax,[rip+0xffffffffffff0ede]        # 1034d <zeroes.0-0x2f3>
   1f46f:	89 74 24 1c          	mov    DWORD PTR [rsp+0x1c],esi
   1f473:	48 89 44 24 48       	mov    QWORD PTR [rsp+0x48],rax
   1f478:	e9 6e ff ff ff       	jmp    1f3eb <_vfiprintf_r+0x10fb>
   1f47d:	0f 1f 00             	nop    DWORD PTR [rax]
   1f480:	89 f0                	mov    eax,esi
   1f482:	48 89 ea             	mov    rdx,rbp
   1f485:	48 83 ed 01          	sub    rbp,0x1
   1f489:	83 e0 07             	and    eax,0x7
   1f48c:	83 c0 30             	add    eax,0x30
   1f48f:	48 c1 ee 03          	shr    rsi,0x3
   1f493:	88 45 00             	mov    BYTE PTR [rbp+0x0],al
   1f496:	75 e8                	jne    1f480 <_vfiprintf_r+0x1190>
   1f498:	3c 30                	cmp    al,0x30
   1f49a:	0f 84 4f f3 ff ff    	je     1e7ef <_vfiprintf_r+0x4ff>
   1f4a0:	41 f6 c6 01          	test   r14b,0x1
   1f4a4:	0f 84 45 f3 ff ff    	je     1e7ef <_vfiprintf_r+0x4ff>
   1f4aa:	48 83 ea 02          	sub    rdx,0x2
   1f4ae:	89 f8                	mov    eax,edi
   1f4b0:	c6 45 ff 30          	mov    BYTE PTR [rbp-0x1],0x30
   1f4b4:	29 d0                	sub    eax,edx
   1f4b6:	44 89 74 24 18       	mov    DWORD PTR [rsp+0x18],r14d
   1f4bb:	48 89 d5             	mov    rbp,rdx
   1f4be:	89 44 24 08          	mov    DWORD PTR [rsp+0x8],eax
   1f4c2:	e9 89 f6 ff ff       	jmp    1eb50 <_vfiprintf_r+0x860>
   1f4c7:	66 0f 1f 84 00 00 00 	nop    WORD PTR [rax+rax*1+0x0]
   1f4ce:	00 00 
   1f4d0:	c7 44 24 08 00 00 00 	mov    DWORD PTR [rsp+0x8],0x0
   1f4d7:	00 
   1f4d8:	45 31 ff             	xor    r15d,r15d
   1f4db:	48 8d ac 24 48 01 00 	lea    rbp,[rsp+0x148]
   1f4e2:	00 
   1f4e3:	e9 68 f6 ff ff       	jmp    1eb50 <_vfiprintf_r+0x860>
   1f4e8:	44 8b 74 24 18       	mov    r14d,DWORD PTR [rsp+0x18]
   1f4ed:	0f 1f 00             	nop    DWORD PTR [rax]
   1f4f0:	48 83 fe 09          	cmp    rsi,0x9
   1f4f4:	0f 87 9c 00 00 00    	ja     1f596 <_vfiprintf_r+0x12a6>
   1f4fa:	83 c6 30             	add    esi,0x30
   1f4fd:	44 89 74 24 18       	mov    DWORD PTR [rsp+0x18],r14d
   1f502:	48 8d ac 24 47 01 00 	lea    rbp,[rsp+0x147]
   1f509:	00 
   1f50a:	40 88 b4 24 47 01 00 	mov    BYTE PTR [rsp+0x147],sil
   1f511:	00 
   1f512:	c7 44 24 08 01 00 00 	mov    DWORD PTR [rsp+0x8],0x1
   1f519:	00 
   1f51a:	e9 31 f6 ff ff       	jmp    1eb50 <_vfiprintf_r+0x860>
   1f51f:	45 31 ff             	xor    r15d,r15d
   1f522:	48 8d ac 24 48 01 00 	lea    rbp,[rsp+0x148]
   1f529:	00 
   1f52a:	e9 21 f6 ff ff       	jmp    1eb50 <_vfiprintf_r+0x860>
   1f52f:	41 f6 c6 40          	test   r14b,0x40
   1f533:	74 41                	je     1f576 <_vfiprintf_r+0x1286>
   1f535:	83 f8 2f             	cmp    eax,0x2f
   1f538:	0f 87 69 01 00 00    	ja     1f6a7 <_vfiprintf_r+0x13b7>
   1f53e:	48 8b 7c 24 20       	mov    rdi,QWORD PTR [rsp+0x20]
   1f543:	89 c6                	mov    esi,eax
   1f545:	83 c0 08             	add    eax,0x8
   1f548:	89 07                	mov    DWORD PTR [rdi],eax
   1f54a:	48 03 77 10          	add    rsi,QWORD PTR [rdi+0x10]
   1f54e:	0f b7 36             	movzx  esi,WORD PTR [rsi]
   1f551:	e9 bd fe ff ff       	jmp    1f413 <_vfiprintf_r+0x1123>
   1f556:	44 8b 74 24 18       	mov    r14d,DWORD PTR [rsp+0x18]
   1f55b:	e9 50 f2 ff ff       	jmp    1e7b0 <_vfiprintf_r+0x4c0>
   1f560:	48 8b 5c 24 20       	mov    rbx,QWORD PTR [rsp+0x20]
   1f565:	48 8b 73 08          	mov    rsi,QWORD PTR [rbx+0x8]
   1f569:	48 8d 46 08          	lea    rax,[rsi+0x8]
   1f56d:	48 89 43 08          	mov    QWORD PTR [rbx+0x8],rax
   1f571:	e9 9a fe ff ff       	jmp    1f410 <_vfiprintf_r+0x1120>
   1f576:	83 f8 2f             	cmp    eax,0x2f
   1f579:	0f 87 10 01 00 00    	ja     1f68f <_vfiprintf_r+0x139f>
   1f57f:	48 8b 7c 24 20       	mov    rdi,QWORD PTR [rsp+0x20]
   1f584:	89 c6                	mov    esi,eax
   1f586:	83 c0 08             	add    eax,0x8
   1f589:	48 03 77 10          	add    rsi,QWORD PTR [rdi+0x10]
   1f58d:	89 07                	mov    DWORD PTR [rdi],eax
   1f58f:	8b 36                	mov    esi,DWORD PTR [rsi]
   1f591:	e9 7d fe ff ff       	jmp    1f413 <_vfiprintf_r+0x1123>
   1f596:	48 8d bc 24 48 01 00 	lea    rdi,[rsp+0x148]
   1f59d:	00 
   1f59e:	49 ba cd cc cc cc cc 	movabs r10,0xcccccccccccccccd
   1f5a5:	cc cc cc 
   1f5a8:	48 89 fd             	mov    rbp,rdi
   1f5ab:	0f 1f 44 00 00       	nop    DWORD PTR [rax+rax*1+0x0]
   1f5b0:	48 89 f0             	mov    rax,rsi
   1f5b3:	48 83 ed 01          	sub    rbp,0x1
   1f5b7:	49 f7 e2             	mul    r10
   1f5ba:	48 89 f0             	mov    rax,rsi
   1f5bd:	48 c1 ea 03          	shr    rdx,0x3
   1f5c1:	4c 8d 04 92          	lea    r8,[rdx+rdx*4]
   1f5c5:	4d 01 c0             	add    r8,r8
   1f5c8:	4c 29 c0             	sub    rax,r8
   1f5cb:	83 c0 30             	add    eax,0x30
   1f5ce:	88 45 00             	mov    BYTE PTR [rbp+0x0],al
   1f5d1:	48 89 f0             	mov    rax,rsi
   1f5d4:	48 89 d6             	mov    rsi,rdx
   1f5d7:	48 83 f8 09          	cmp    rax,0x9
   1f5db:	77 d3                	ja     1f5b0 <_vfiprintf_r+0x12c0>
   1f5dd:	89 f8                	mov    eax,edi
   1f5df:	44 89 74 24 18       	mov    DWORD PTR [rsp+0x18],r14d
   1f5e4:	29 e8                	sub    eax,ebp
   1f5e6:	89 44 24 08          	mov    DWORD PTR [rsp+0x8],eax
   1f5ea:	e9 61 f5 ff ff       	jmp    1eb50 <_vfiprintf_r+0x860>
   1f5ef:	e8 2c 61 ff ff       	call   15720 <__sinit>
   1f5f4:	e9 3d ed ff ff       	jmp    1e336 <_vfiprintf_r+0x46>
   1f5f9:	b8 06 00 00 00       	mov    eax,0x6
   1f5fe:	48 8d 2d a9 0d ff ff 	lea    rbp,[rip+0xffffffffffff0da9]        # 103ae <zeroes.0-0x292>
   1f605:	41 39 c7             	cmp    r15d,eax
   1f608:	41 0f 46 c7          	cmovbe eax,r15d
   1f60c:	89 44 24 08          	mov    DWORD PTR [rsp+0x8],eax
   1f610:	89 c3                	mov    ebx,eax
   1f612:	e9 ce ee ff ff       	jmp    1e4e5 <_vfiprintf_r+0x1f5>
   1f617:	48 89 ef             	mov    rdi,rbp
   1f61a:	48 89 4c 24 30       	mov    QWORD PTR [rsp+0x30],rcx
   1f61f:	45 31 ff             	xor    r15d,r15d
   1f622:	e8 a9 5b ff ff       	call   151d0 <strlen>
   1f627:	44 89 74 24 18       	mov    DWORD PTR [rsp+0x18],r14d
   1f62c:	48 8b 4c 24 30       	mov    rcx,QWORD PTR [rsp+0x30]
   1f631:	89 44 24 08          	mov    DWORD PTR [rsp+0x8],eax
   1f635:	e9 16 f5 ff ff       	jmp    1eb50 <_vfiprintf_r+0x860>
   1f63a:	48 83 bc 24 80 00 00 	cmp    QWORD PTR [rsp+0x80],0x0
   1f641:	00 00 
   1f643:	4c 8b 64 24 28       	mov    r12,QWORD PTR [rsp+0x28]
   1f648:	0f 84 bd f0 ff ff    	je     1e70b <_vfiprintf_r+0x41b>
   1f64e:	48 8d 54 24 70       	lea    rdx,[rsp+0x70]
   1f653:	4c 89 ee             	mov    rsi,r13
   1f656:	4c 89 e7             	mov    rdi,r12
   1f659:	e8 92 eb ff ff       	call   1e1f0 <__sprint_r.part.0>
   1f65e:	e9 a8 f0 ff ff       	jmp    1e70b <_vfiprintf_r+0x41b>
   1f663:	48 8b 74 24 20       	mov    rsi,QWORD PTR [rsp+0x20]
   1f668:	48 8b 56 08          	mov    rdx,QWORD PTR [rsi+0x8]
   1f66c:	48 8d 42 08          	lea    rax,[rdx+0x8]
   1f670:	48 89 46 08          	mov    QWORD PTR [rsi+0x8],rax
   1f674:	e9 d9 f3 ff ff       	jmp    1ea52 <_vfiprintf_r+0x762>
   1f679:	48 8b 7c 24 20       	mov    rdi,QWORD PTR [rsp+0x20]
   1f67e:	48 8b 57 08          	mov    rdx,QWORD PTR [rdi+0x8]
   1f682:	48 8d 42 08          	lea    rax,[rdx+0x8]
   1f686:	48 89 47 08          	mov    QWORD PTR [rdi+0x8],rax
   1f68a:	e9 91 fc ff ff       	jmp    1f320 <_vfiprintf_r+0x1030>
   1f68f:	48 8b 5c 24 20       	mov    rbx,QWORD PTR [rsp+0x20]
   1f694:	48 8b 73 08          	mov    rsi,QWORD PTR [rbx+0x8]
   1f698:	48 8d 46 08          	lea    rax,[rsi+0x8]
   1f69c:	48 89 43 08          	mov    QWORD PTR [rbx+0x8],rax
   1f6a0:	8b 36                	mov    esi,DWORD PTR [rsi]
   1f6a2:	e9 6c fd ff ff       	jmp    1f413 <_vfiprintf_r+0x1123>
   1f6a7:	48 8b 5c 24 20       	mov    rbx,QWORD PTR [rsp+0x20]
   1f6ac:	48 8b 73 08          	mov    rsi,QWORD PTR [rbx+0x8]
   1f6b0:	48 8d 46 08          	lea    rax,[rsi+0x8]
   1f6b4:	48 89 43 08          	mov    QWORD PTR [rbx+0x8],rax
   1f6b8:	e9 91 fe ff ff       	jmp    1f54e <_vfiprintf_r+0x125e>
   1f6bd:	83 f8 2f             	cmp    eax,0x2f
   1f6c0:	0f 87 e0 00 00 00    	ja     1f7a6 <_vfiprintf_r+0x14b6>
   1f6c6:	48 8b 74 24 20       	mov    rsi,QWORD PTR [rsp+0x20]
   1f6cb:	89 c2                	mov    edx,eax
   1f6cd:	83 c0 08             	add    eax,0x8
   1f6d0:	89 06                	mov    DWORD PTR [rsi],eax
   1f6d2:	48 03 56 10          	add    rdx,QWORD PTR [rsi+0x10]
   1f6d6:	48 8b 02             	mov    rax,QWORD PTR [rdx]
   1f6d9:	8b 74 24 38          	mov    esi,DWORD PTR [rsp+0x38]
   1f6dd:	89 30                	mov    DWORD PTR [rax],esi
   1f6df:	e9 d1 ec ff ff       	jmp    1e3b5 <_vfiprintf_r+0xc5>
   1f6e4:	48 8b 5c 24 20       	mov    rbx,QWORD PTR [rsp+0x20]
   1f6e9:	48 8b 53 08          	mov    rdx,QWORD PTR [rbx+0x8]
   1f6ed:	48 8d 42 08          	lea    rax,[rdx+0x8]
   1f6f1:	48 89 43 08          	mov    QWORD PTR [rbx+0x8],rax
   1f6f5:	e9 5e fc ff ff       	jmp    1f358 <_vfiprintf_r+0x1068>
   1f6fa:	48 8b 74 24 20       	mov    rsi,QWORD PTR [rsp+0x20]
   1f6ff:	48 8b 56 08          	mov    rdx,QWORD PTR [rsi+0x8]
   1f703:	48 8d 42 08          	lea    rax,[rdx+0x8]
   1f707:	48 89 46 08          	mov    QWORD PTR [rsi+0x8],rax
   1f70b:	e9 6b f0 ff ff       	jmp    1e77b <_vfiprintf_r+0x48b>
   1f710:	48 8b 5c 24 20       	mov    rbx,QWORD PTR [rsp+0x20]
   1f715:	48 8b 53 08          	mov    rdx,QWORD PTR [rbx+0x8]
   1f719:	48 8d 42 08          	lea    rax,[rdx+0x8]
   1f71d:	48 89 43 08          	mov    QWORD PTR [rbx+0x8],rax
   1f721:	e9 99 fc ff ff       	jmp    1f3bf <_vfiprintf_r+0x10cf>
   1f726:	48 8b 5c 24 20       	mov    rbx,QWORD PTR [rsp+0x20]
   1f72b:	48 8b 53 08          	mov    rdx,QWORD PTR [rbx+0x8]
   1f72f:	48 8d 42 08          	lea    rax,[rdx+0x8]
   1f733:	48 89 43 08          	mov    QWORD PTR [rbx+0x8],rax
   1f737:	e9 e7 f2 ff ff       	jmp    1ea23 <_vfiprintf_r+0x733>
   1f73c:	48 8b 74 24 20       	mov    rsi,QWORD PTR [rsp+0x20]
   1f741:	48 8b 56 08          	mov    rdx,QWORD PTR [rsi+0x8]
   1f745:	48 8d 42 08          	lea    rax,[rdx+0x8]
   1f749:	48 89 46 08          	mov    QWORD PTR [rsi+0x8],rax
   1f74d:	e9 17 f1 ff ff       	jmp    1e869 <_vfiprintf_r+0x579>
   1f752:	48 8b 4c 24 10       	mov    rcx,QWORD PTR [rsp+0x10]
   1f757:	be 01 00 00 00       	mov    esi,0x1
   1f75c:	31 d2                	xor    edx,edx
   1f75e:	e9 83 ee ff ff       	jmp    1e5e6 <_vfiprintf_r+0x2f6>
   1f763:	48 8d 44 24 6f       	lea    rax,[rsp+0x6f]
   1f768:	48 8b 4c 24 10       	mov    rcx,QWORD PTR [rsp+0x10]
   1f76d:	be 01 00 00 00       	mov    esi,0x1
   1f772:	48 c7 84 24 98 00 00 	mov    QWORD PTR [rsp+0x98],0x1
   1f779:	00 01 00 00 00 
   1f77e:	48 89 84 24 90 00 00 	mov    QWORD PTR [rsp+0x90],rax
   1f785:	00 
   1f786:	b8 01 00 00 00       	mov    eax,0x1
   1f78b:	e9 d2 ed ff ff       	jmp    1e562 <_vfiprintf_r+0x272>
   1f790:	48 8b 74 24 20       	mov    rsi,QWORD PTR [rsp+0x20]
   1f795:	48 8b 56 08          	mov    rdx,QWORD PTR [rsi+0x8]
   1f799:	48 8d 42 08          	lea    rax,[rdx+0x8]
   1f79d:	48 89 46 08          	mov    QWORD PTR [rsi+0x8],rax
   1f7a1:	e9 51 fb ff ff       	jmp    1f2f7 <_vfiprintf_r+0x1007>
   1f7a6:	48 8b 74 24 20       	mov    rsi,QWORD PTR [rsp+0x20]
   1f7ab:	48 8b 56 08          	mov    rdx,QWORD PTR [rsi+0x8]
   1f7af:	48 8d 42 08          	lea    rax,[rdx+0x8]
   1f7b3:	48 89 46 08          	mov    QWORD PTR [rsi+0x8],rax
   1f7b7:	e9 1a ff ff ff       	jmp    1f6d6 <_vfiprintf_r+0x13e6>
   1f7bc:	44 89 7c 24 08       	mov    DWORD PTR [rsp+0x8],r15d
   1f7c1:	45 31 ff             	xor    r15d,r15d
   1f7c4:	44 89 74 24 18       	mov    DWORD PTR [rsp+0x18],r14d
   1f7c9:	e9 82 f3 ff ff       	jmp    1eb50 <_vfiprintf_r+0x860>
   1f7ce:	41 89 fb             	mov    r11d,edi
   1f7d1:	e9 09 f8 ff ff       	jmp    1efdf <_vfiprintf_r+0xcef>
   1f7d6:	8d 7e 01             	lea    edi,[rsi+0x1]
   1f7d9:	e9 42 f9 ff ff       	jmp    1f120 <_vfiprintf_r+0xe30>
   1f7de:	89 f7                	mov    edi,esi
   1f7e0:	4c 8d 35 09 16 ff ff 	lea    r14,[rip+0xffffffffffff1609]        # 10df0 <zeroes.0>
   1f7e7:	e9 ee f4 ff ff       	jmp    1ecda <_vfiprintf_r+0x9ea>
   1f7ec:	c7 44 24 38 ff ff ff 	mov    DWORD PTR [rsp+0x38],0xffffffff
   1f7f3:	ff 
   1f7f4:	e9 1d ef ff ff       	jmp    1e716 <_vfiprintf_r+0x426>
   1f7f9:	48 8b 5c 24 20       	mov    rbx,QWORD PTR [rsp+0x20]
   1f7fe:	8b 13                	mov    edx,DWORD PTR [rbx]
   1f800:	83 fa 2f             	cmp    edx,0x2f
   1f803:	77 22                	ja     1f827 <_vfiprintf_r+0x1537>
   1f805:	89 d0                	mov    eax,edx
   1f807:	83 c2 08             	add    edx,0x8
   1f80a:	48 03 43 10          	add    rax,QWORD PTR [rbx+0x10]
   1f80e:	89 13                	mov    DWORD PTR [rbx],edx
   1f810:	44 8b 38             	mov    r15d,DWORD PTR [rax]
   1f813:	b8 ff ff ff ff       	mov    eax,0xffffffff
   1f818:	49 89 fc             	mov    r12,rdi
   1f81b:	45 85 ff             	test   r15d,r15d
   1f81e:	44 0f 48 f8          	cmovs  r15d,eax
   1f822:	e9 d9 ee ff ff       	jmp    1e700 <_vfiprintf_r+0x410>
   1f827:	48 8b 5c 24 20       	mov    rbx,QWORD PTR [rsp+0x20]
   1f82c:	48 8b 43 08          	mov    rax,QWORD PTR [rbx+0x8]
   1f830:	48 8d 50 08          	lea    rdx,[rax+0x8]
   1f834:	48 89 53 08          	mov    QWORD PTR [rbx+0x8],rdx
   1f838:	eb d6                	jmp    1f810 <_vfiprintf_r+0x1520>
   1f83a:	e8 41 9d ff ff       	call   19580 <__stack_chk_fail>
   1f83f:	90                   	nop

000000000001f840 <vfiprintf>:
   1f840:	f3 0f 1e fa          	endbr64 
   1f844:	48 89 d1             	mov    rcx,rdx
   1f847:	48 89 f2             	mov    rdx,rsi
   1f84a:	48 89 fe             	mov    rsi,rdi
   1f84d:	48 8b 3d ac 45 00 00 	mov    rdi,QWORD PTR [rip+0x45ac]        # 23e00 <_impure_ptr>
   1f854:	e9 97 ea ff ff       	jmp    1e2f0 <_vfiprintf_r>
   1f859:	0f 1f 80 00 00 00 00 	nop    DWORD PTR [rax+0x0]

000000000001f860 <__sbprintf>:
   1f860:	41 55                	push   r13
   1f862:	41 54                	push   r12
   1f864:	55                   	push   rbp
   1f865:	48 89 fd             	mov    rbp,rdi
   1f868:	53                   	push   rbx
   1f869:	48 89 f3             	mov    rbx,rsi
   1f86c:	48 81 ec c8 04 00 00 	sub    rsp,0x4c8
   1f873:	64 48 8b 04 25 28 00 	mov    rax,QWORD PTR fs:0x28
   1f87a:	00 00 
   1f87c:	48 89 84 24 b8 04 00 	mov    QWORD PTR [rsp+0x4b8],rax
   1f883:	00 
   1f884:	31 c0                	xor    eax,eax
   1f886:	0f b7 46 10          	movzx  eax,WORD PTR [rsi+0x10]
   1f88a:	49 89 e5             	mov    r13,rsp
   1f88d:	c7 44 24 0c 00 04 00 	mov    DWORD PTR [rsp+0xc],0x400
   1f894:	00 
   1f895:	c7 44 24 20 00 04 00 	mov    DWORD PTR [rsp+0x20],0x400
   1f89c:	00 
   1f89d:	83 e0 fd             	and    eax,0xfffffffd
   1f8a0:	c7 44 24 28 00 00 00 	mov    DWORD PTR [rsp+0x28],0x0
   1f8a7:	00 
   1f8a8:	66 89 44 24 10       	mov    WORD PTR [rsp+0x10],ax
   1f8ad:	8b 86 ac 00 00 00    	mov    eax,DWORD PTR [rsi+0xac]
   1f8b3:	89 84 24 ac 00 00 00 	mov    DWORD PTR [rsp+0xac],eax
   1f8ba:	0f b7 46 12          	movzx  eax,WORD PTR [rsi+0x12]
   1f8be:	66 89 44 24 12       	mov    WORD PTR [rsp+0x12],ax
   1f8c3:	48 8b 46 30          	mov    rax,QWORD PTR [rsi+0x30]
   1f8c7:	48 89 44 24 30       	mov    QWORD PTR [rsp+0x30],rax
   1f8cc:	48 8b 46 40          	mov    rax,QWORD PTR [rsi+0x40]
   1f8d0:	4c 89 ee             	mov    rsi,r13
   1f8d3:	48 89 44 24 40       	mov    QWORD PTR [rsp+0x40],rax
   1f8d8:	48 8d 84 24 b0 00 00 	lea    rax,[rsp+0xb0]
   1f8df:	00 
   1f8e0:	48 89 04 24          	mov    QWORD PTR [rsp],rax
   1f8e4:	48 89 44 24 18       	mov    QWORD PTR [rsp+0x18],rax
   1f8e9:	e8 02 ea ff ff       	call   1e2f0 <_vfiprintf_r>
   1f8ee:	41 89 c4             	mov    r12d,eax
   1f8f1:	85 c0                	test   eax,eax
   1f8f3:	78 16                	js     1f90b <__sbprintf+0xab>
   1f8f5:	4c 89 ee             	mov    rsi,r13
   1f8f8:	48 89 ef             	mov    rdi,rbp
   1f8fb:	e8 e0 61 ff ff       	call   15ae0 <_fflush_r>
   1f900:	85 c0                	test   eax,eax
   1f902:	b8 ff ff ff ff       	mov    eax,0xffffffff
   1f907:	44 0f 45 e0          	cmovne r12d,eax
   1f90b:	f6 44 24 10 40       	test   BYTE PTR [rsp+0x10],0x40
   1f910:	74 05                	je     1f917 <__sbprintf+0xb7>
   1f912:	66 83 4b 10 40       	or     WORD PTR [rbx+0x10],0x40
   1f917:	48 8b 84 24 b8 04 00 	mov    rax,QWORD PTR [rsp+0x4b8]
   1f91e:	00 
   1f91f:	64 48 2b 04 25 28 00 	sub    rax,QWORD PTR fs:0x28
   1f926:	00 00 
   1f928:	75 11                	jne    1f93b <__sbprintf+0xdb>
   1f92a:	48 81 c4 c8 04 00 00 	add    rsp,0x4c8
   1f931:	44 89 e0             	mov    eax,r12d
   1f934:	5b                   	pop    rbx
   1f935:	5d                   	pop    rbp
   1f936:	41 5c                	pop    r12
   1f938:	41 5d                	pop    r13
   1f93a:	c3                   	ret    
   1f93b:	e8 40 9c ff ff       	call   19580 <__stack_chk_fail>

000000000001f940 <__fputwc>:
   1f940:	f3 0f 1e fa          	endbr64 
   1f944:	41 56                	push   r14
   1f946:	41 55                	push   r13
   1f948:	49 89 fd             	mov    r13,rdi
   1f94b:	41 54                	push   r12
   1f94d:	41 89 f4             	mov    r12d,esi
   1f950:	55                   	push   rbp
   1f951:	53                   	push   rbx
   1f952:	48 89 d3             	mov    rbx,rdx
   1f955:	48 83 ec 10          	sub    rsp,0x10
   1f959:	64 48 8b 04 25 28 00 	mov    rax,QWORD PTR fs:0x28
   1f960:	00 00 
   1f962:	48 89 44 24 08       	mov    QWORD PTR [rsp+0x8],rax
   1f967:	31 c0                	xor    eax,eax
   1f969:	e8 42 9a ff ff       	call   193b0 <__locale_mb_cur_max>
   1f96e:	83 f8 01             	cmp    eax,0x1
   1f971:	75 10                	jne    1f983 <__fputwc+0x43>
   1f973:	41 8d 44 24 ff       	lea    eax,[r12-0x1]
   1f978:	3d fe 00 00 00       	cmp    eax,0xfe
   1f97d:	0f 86 a5 00 00 00    	jbe    1fa28 <__fputwc+0xe8>
   1f983:	48 8d 8b a4 00 00 00 	lea    rcx,[rbx+0xa4]
   1f98a:	48 8d 74 24 07       	lea    rsi,[rsp+0x7]
   1f98f:	44 89 e2             	mov    edx,r12d
   1f992:	4c 89 ef             	mov    rdi,r13
   1f995:	e8 66 01 00 00       	call   1fb00 <_wcrtomb_r>
   1f99a:	49 89 c6             	mov    r14,rax
   1f99d:	48 83 f8 ff          	cmp    rax,0xffffffffffffffff
   1f9a1:	0f 84 a1 00 00 00    	je     1fa48 <__fputwc+0x108>
   1f9a7:	48 85 c0             	test   rax,rax
   1f9aa:	0f 84 90 00 00 00    	je     1fa40 <__fputwc+0x100>
   1f9b0:	0f b6 74 24 07       	movzx  esi,BYTE PTR [rsp+0x7]
   1f9b5:	31 ed                	xor    ebp,ebp
   1f9b7:	eb 28                	jmp    1f9e1 <__fputwc+0xa1>
   1f9b9:	0f 1f 80 00 00 00 00 	nop    DWORD PTR [rax+0x0]
   1f9c0:	40 80 fe 0a          	cmp    sil,0xa
   1f9c4:	74 2b                	je     1f9f1 <__fputwc+0xb1>
   1f9c6:	48 8b 03             	mov    rax,QWORD PTR [rbx]
   1f9c9:	48 8d 50 01          	lea    rdx,[rax+0x1]
   1f9cd:	48 89 13             	mov    QWORD PTR [rbx],rdx
   1f9d0:	40 88 30             	mov    BYTE PTR [rax],sil
   1f9d3:	48 83 c5 01          	add    rbp,0x1
   1f9d7:	4c 39 f5             	cmp    rbp,r14
   1f9da:	73 64                	jae    1fa40 <__fputwc+0x100>
   1f9dc:	0f b6 74 2c 07       	movzx  esi,BYTE PTR [rsp+rbp*1+0x7]
   1f9e1:	8b 43 0c             	mov    eax,DWORD PTR [rbx+0xc]
   1f9e4:	83 e8 01             	sub    eax,0x1
   1f9e7:	89 43 0c             	mov    DWORD PTR [rbx+0xc],eax
   1f9ea:	79 da                	jns    1f9c6 <__fputwc+0x86>
   1f9ec:	3b 43 28             	cmp    eax,DWORD PTR [rbx+0x28]
   1f9ef:	7d cf                	jge    1f9c0 <__fputwc+0x80>
   1f9f1:	48 89 da             	mov    rdx,rbx
   1f9f4:	4c 89 ef             	mov    rdi,r13
   1f9f7:	e8 24 02 00 00       	call   1fc20 <__swbuf_r>
   1f9fc:	83 f8 ff             	cmp    eax,0xffffffff
   1f9ff:	75 d2                	jne    1f9d3 <__fputwc+0x93>
   1fa01:	b8 ff ff ff ff       	mov    eax,0xffffffff
   1fa06:	48 8b 54 24 08       	mov    rdx,QWORD PTR [rsp+0x8]
   1fa0b:	64 48 2b 14 25 28 00 	sub    rdx,QWORD PTR fs:0x28
   1fa12:	00 00 
   1fa14:	75 3e                	jne    1fa54 <__fputwc+0x114>
   1fa16:	48 83 c4 10          	add    rsp,0x10
   1fa1a:	5b                   	pop    rbx
   1fa1b:	5d                   	pop    rbp
   1fa1c:	41 5c                	pop    r12
   1fa1e:	41 5d                	pop    r13
   1fa20:	41 5e                	pop    r14
   1fa22:	c3                   	ret    
   1fa23:	0f 1f 44 00 00       	nop    DWORD PTR [rax+rax*1+0x0]
   1fa28:	44 88 64 24 07       	mov    BYTE PTR [rsp+0x7],r12b
   1fa2d:	41 0f b6 f4          	movzx  esi,r12b
   1fa31:	41 be 01 00 00 00    	mov    r14d,0x1
   1fa37:	e9 79 ff ff ff       	jmp    1f9b5 <__fputwc+0x75>
   1fa3c:	0f 1f 40 00          	nop    DWORD PTR [rax+0x0]
   1fa40:	44 89 e0             	mov    eax,r12d
   1fa43:	eb c1                	jmp    1fa06 <__fputwc+0xc6>
   1fa45:	0f 1f 00             	nop    DWORD PTR [rax]
   1fa48:	66 83 4b 10 40       	or     WORD PTR [rbx+0x10],0x40
   1fa4d:	b8 ff ff ff ff       	mov    eax,0xffffffff
   1fa52:	eb b2                	jmp    1fa06 <__fputwc+0xc6>
   1fa54:	e8 27 9b ff ff       	call   19580 <__stack_chk_fail>
   1fa59:	0f 1f 80 00 00 00 00 	nop    DWORD PTR [rax+0x0]

000000000001fa60 <_fputwc_r>:
   1fa60:	f3 0f 1e fa          	endbr64 
   1fa64:	0f b7 42 10          	movzx  eax,WORD PTR [rdx+0x10]
   1fa68:	f6 c4 20             	test   ah,0x20
   1fa6b:	75 11                	jne    1fa7e <_fputwc_r+0x1e>
   1fa6d:	81 8a ac 00 00 00 00 	or     DWORD PTR [rdx+0xac],0x2000
   1fa74:	20 00 00 
   1fa77:	80 cc 20             	or     ah,0x20
   1fa7a:	66 89 42 10          	mov    WORD PTR [rdx+0x10],ax
   1fa7e:	e9 bd fe ff ff       	jmp    1f940 <__fputwc>
   1fa83:	66 66 2e 0f 1f 84 00 	data16 cs nop WORD PTR [rax+rax*1+0x0]
   1fa8a:	00 00 00 00 
   1fa8e:	66 90                	xchg   ax,ax

000000000001fa90 <fputwc>:
   1fa90:	f3 0f 1e fa          	endbr64 
   1fa94:	55                   	push   rbp
   1fa95:	89 fd                	mov    ebp,edi
   1fa97:	48 89 f2             	mov    rdx,rsi
   1fa9a:	48 83 ec 10          	sub    rsp,0x10
   1fa9e:	48 8b 3d 5b 43 00 00 	mov    rdi,QWORD PTR [rip+0x435b]        # 23e00 <_impure_ptr>
   1faa5:	48 85 ff             	test   rdi,rdi
   1faa8:	74 07                	je     1fab1 <fputwc+0x21>
   1faaa:	48 83 7f 48 00       	cmp    QWORD PTR [rdi+0x48],0x0
   1faaf:	74 2f                	je     1fae0 <fputwc+0x50>
   1fab1:	0f b7 42 10          	movzx  eax,WORD PTR [rdx+0x10]
   1fab5:	f6 c4 20             	test   ah,0x20
   1fab8:	75 11                	jne    1facb <fputwc+0x3b>
   1faba:	81 8a ac 00 00 00 00 	or     DWORD PTR [rdx+0xac],0x2000
   1fac1:	20 00 00 
   1fac4:	80 cc 20             	or     ah,0x20
   1fac7:	66 89 42 10          	mov    WORD PTR [rdx+0x10],ax
   1facb:	48 83 c4 10          	add    rsp,0x10
   1facf:	89 ee                	mov    esi,ebp
   1fad1:	5d                   	pop    rbp
   1fad2:	e9 69 fe ff ff       	jmp    1f940 <__fputwc>
   1fad7:	66 0f 1f 84 00 00 00 	nop    WORD PTR [rax+rax*1+0x0]
   1fade:	00 00 
   1fae0:	48 89 3c 24          	mov    QWORD PTR [rsp],rdi
   1fae4:	48 89 74 24 08       	mov    QWORD PTR [rsp+0x8],rsi
   1fae9:	e8 32 5c ff ff       	call   15720 <__sinit>
   1faee:	48 8b 54 24 08       	mov    rdx,QWORD PTR [rsp+0x8]
   1faf3:	48 8b 3c 24          	mov    rdi,QWORD PTR [rsp]
   1faf7:	eb b8                	jmp    1fab1 <fputwc+0x21>
   1faf9:	cc                   	int3   
   1fafa:	cc                   	int3   
   1fafb:	cc                   	int3   
   1fafc:	cc                   	int3   
   1fafd:	cc                   	int3   
   1fafe:	cc                   	int3   
   1faff:	cc                   	int3   

000000000001fb00 <_wcrtomb_r>:
   1fb00:	f3 0f 1e fa          	endbr64 
   1fb04:	55                   	push   rbp
   1fb05:	48 89 cd             	mov    rbp,rcx
   1fb08:	53                   	push   rbx
   1fb09:	48 89 fb             	mov    rbx,rdi
   1fb0c:	48 83 ec 28          	sub    rsp,0x28
   1fb10:	64 48 8b 04 25 28 00 	mov    rax,QWORD PTR fs:0x28
   1fb17:	00 00 
   1fb19:	48 89 44 24 18       	mov    QWORD PTR [rsp+0x18],rax
   1fb1e:	48 8b 05 9b 4d 00 00 	mov    rax,QWORD PTR [rip+0x4d9b]        # 248c0 <__global_locale+0xe0>
   1fb25:	48 85 f6             	test   rsi,rsi
   1fb28:	74 26                	je     1fb50 <_wcrtomb_r+0x50>
   1fb2a:	ff d0                	call   rax
   1fb2c:	4c 63 c0             	movsxd r8,eax
   1fb2f:	83 f8 ff             	cmp    eax,0xffffffff
   1fb32:	74 2d                	je     1fb61 <_wcrtomb_r+0x61>
   1fb34:	48 8b 44 24 18       	mov    rax,QWORD PTR [rsp+0x18]
   1fb39:	64 48 2b 04 25 28 00 	sub    rax,QWORD PTR fs:0x28
   1fb40:	00 00 
   1fb42:	75 33                	jne    1fb77 <_wcrtomb_r+0x77>
   1fb44:	48 83 c4 28          	add    rsp,0x28
   1fb48:	4c 89 c0             	mov    rax,r8
   1fb4b:	5b                   	pop    rbx
   1fb4c:	5d                   	pop    rbp
   1fb4d:	c3                   	ret    
   1fb4e:	66 90                	xchg   ax,ax
   1fb50:	48 8d 74 24 0e       	lea    rsi,[rsp+0xe]
   1fb55:	31 d2                	xor    edx,edx
   1fb57:	ff d0                	call   rax
   1fb59:	4c 63 c0             	movsxd r8,eax
   1fb5c:	83 f8 ff             	cmp    eax,0xffffffff
   1fb5f:	75 d3                	jne    1fb34 <_wcrtomb_r+0x34>
   1fb61:	c7 45 00 00 00 00 00 	mov    DWORD PTR [rbp+0x0],0x0
   1fb68:	49 c7 c0 ff ff ff ff 	mov    r8,0xffffffffffffffff
   1fb6f:	c7 03 8a 00 00 00    	mov    DWORD PTR [rbx],0x8a
   1fb75:	eb bd                	jmp    1fb34 <_wcrtomb_r+0x34>
   1fb77:	e8 04 9a ff ff       	call   19580 <__stack_chk_fail>
   1fb7c:	0f 1f 40 00          	nop    DWORD PTR [rax+0x0]

000000000001fb80 <wcrtomb>:
   1fb80:	f3 0f 1e fa          	endbr64 
   1fb84:	55                   	push   rbp
   1fb85:	53                   	push   rbx
   1fb86:	48 89 d3             	mov    rbx,rdx
   1fb89:	48 83 ec 28          	sub    rsp,0x28
   1fb8d:	48 8b 2d 6c 42 00 00 	mov    rbp,QWORD PTR [rip+0x426c]        # 23e00 <_impure_ptr>
   1fb94:	64 48 8b 04 25 28 00 	mov    rax,QWORD PTR fs:0x28
   1fb9b:	00 00 
   1fb9d:	48 89 44 24 18       	mov    QWORD PTR [rsp+0x18],rax
   1fba2:	31 c0                	xor    eax,eax
   1fba4:	48 8b 05 15 4d 00 00 	mov    rax,QWORD PTR [rip+0x4d15]        # 248c0 <__global_locale+0xe0>
   1fbab:	48 85 ff             	test   rdi,rdi
   1fbae:	74 30                	je     1fbe0 <wcrtomb+0x60>
   1fbb0:	48 89 d1             	mov    rcx,rdx
   1fbb3:	89 f2                	mov    edx,esi
   1fbb5:	48 89 fe             	mov    rsi,rdi
   1fbb8:	48 89 ef             	mov    rdi,rbp
   1fbbb:	ff d0                	call   rax
   1fbbd:	4c 63 c0             	movsxd r8,eax
   1fbc0:	83 f8 ff             	cmp    eax,0xffffffff
   1fbc3:	74 32                	je     1fbf7 <wcrtomb+0x77>
   1fbc5:	48 8b 44 24 18       	mov    rax,QWORD PTR [rsp+0x18]
   1fbca:	64 48 2b 04 25 28 00 	sub    rax,QWORD PTR fs:0x28
   1fbd1:	00 00 
   1fbd3:	75 38                	jne    1fc0d <wcrtomb+0x8d>
   1fbd5:	48 83 c4 28          	add    rsp,0x28
   1fbd9:	4c 89 c0             	mov    rax,r8
   1fbdc:	5b                   	pop    rbx
   1fbdd:	5d                   	pop    rbp
   1fbde:	c3                   	ret    
   1fbdf:	90                   	nop
   1fbe0:	48 89 d1             	mov    rcx,rdx
   1fbe3:	48 8d 74 24 0e       	lea    rsi,[rsp+0xe]
   1fbe8:	31 d2                	xor    edx,edx
   1fbea:	48 89 ef             	mov    rdi,rbp
   1fbed:	ff d0                	call   rax
   1fbef:	4c 63 c0             	movsxd r8,eax
   1fbf2:	83 f8 ff             	cmp    eax,0xffffffff
   1fbf5:	75 ce                	jne    1fbc5 <wcrtomb+0x45>
   1fbf7:	c7 03 00 00 00 00    	mov    DWORD PTR [rbx],0x0
   1fbfd:	49 c7 c0 ff ff ff ff 	mov    r8,0xffffffffffffffff
   1fc04:	c7 45 00 8a 00 00 00 	mov    DWORD PTR [rbp+0x0],0x8a
   1fc0b:	eb b8                	jmp    1fbc5 <wcrtomb+0x45>
   1fc0d:	e8 6e 99 ff ff       	call   19580 <__stack_chk_fail>
   1fc12:	cc                   	int3   
   1fc13:	cc                   	int3   
   1fc14:	cc                   	int3   
   1fc15:	cc                   	int3   
   1fc16:	cc                   	int3   
   1fc17:	cc                   	int3   
   1fc18:	cc                   	int3   
   1fc19:	cc                   	int3   
   1fc1a:	cc                   	int3   
   1fc1b:	cc                   	int3   
   1fc1c:	cc                   	int3   
   1fc1d:	cc                   	int3   
   1fc1e:	cc                   	int3   
   1fc1f:	cc                   	int3   

000000000001fc20 <__swbuf_r>:
   1fc20:	f3 0f 1e fa          	endbr64 
   1fc24:	41 55                	push   r13
   1fc26:	49 89 fd             	mov    r13,rdi
   1fc29:	41 54                	push   r12
   1fc2b:	55                   	push   rbp
   1fc2c:	48 89 d5             	mov    rbp,rdx
   1fc2f:	53                   	push   rbx
   1fc30:	89 f3                	mov    ebx,esi
   1fc32:	48 83 ec 08          	sub    rsp,0x8
   1fc36:	48 85 ff             	test   rdi,rdi
   1fc39:	74 0b                	je     1fc46 <__swbuf_r+0x26>
   1fc3b:	48 83 7f 48 00       	cmp    QWORD PTR [rdi+0x48],0x0
   1fc40:	0f 84 e2 00 00 00    	je     1fd28 <__swbuf_r+0x108>
   1fc46:	8b 45 28             	mov    eax,DWORD PTR [rbp+0x28]
   1fc49:	89 45 0c             	mov    DWORD PTR [rbp+0xc],eax
   1fc4c:	0f b7 45 10          	movzx  eax,WORD PTR [rbp+0x10]
   1fc50:	a8 08                	test   al,0x8
   1fc52:	74 54                	je     1fca8 <__swbuf_r+0x88>
   1fc54:	48 8b 4d 18          	mov    rcx,QWORD PTR [rbp+0x18]
   1fc58:	48 85 c9             	test   rcx,rcx
   1fc5b:	74 4b                	je     1fca8 <__swbuf_r+0x88>
   1fc5d:	44 0f b6 e3          	movzx  r12d,bl
   1fc61:	f6 c4 20             	test   ah,0x20
   1fc64:	74 62                	je     1fcc8 <__swbuf_r+0xa8>
   1fc66:	48 8b 55 00          	mov    rdx,QWORD PTR [rbp+0x0]
   1fc6a:	48 89 d0             	mov    rax,rdx
   1fc6d:	48 29 c8             	sub    rax,rcx
   1fc70:	39 45 20             	cmp    DWORD PTR [rbp+0x20],eax
   1fc73:	7e 73                	jle    1fce8 <__swbuf_r+0xc8>
   1fc75:	83 c0 01             	add    eax,0x1
   1fc78:	48 8d 4a 01          	lea    rcx,[rdx+0x1]
   1fc7c:	83 6d 0c 01          	sub    DWORD PTR [rbp+0xc],0x1
   1fc80:	48 89 4d 00          	mov    QWORD PTR [rbp+0x0],rcx
   1fc84:	88 1a                	mov    BYTE PTR [rdx],bl
   1fc86:	39 45 20             	cmp    DWORD PTR [rbp+0x20],eax
   1fc89:	74 7d                	je     1fd08 <__swbuf_r+0xe8>
   1fc8b:	41 83 fc 0a          	cmp    r12d,0xa
   1fc8f:	75 06                	jne    1fc97 <__swbuf_r+0x77>
   1fc91:	f6 45 10 01          	test   BYTE PTR [rbp+0x10],0x1
   1fc95:	75 71                	jne    1fd08 <__swbuf_r+0xe8>
   1fc97:	48 83 c4 08          	add    rsp,0x8
   1fc9b:	44 89 e0             	mov    eax,r12d
   1fc9e:	5b                   	pop    rbx
   1fc9f:	5d                   	pop    rbp
   1fca0:	41 5c                	pop    r12
   1fca2:	41 5d                	pop    r13
   1fca4:	c3                   	ret    
   1fca5:	0f 1f 00             	nop    DWORD PTR [rax]
   1fca8:	48 89 ee             	mov    rsi,rbp
   1fcab:	4c 89 ef             	mov    rdi,r13
   1fcae:	e8 ad 00 00 00       	call   1fd60 <__swsetup_r>
   1fcb3:	85 c0                	test   eax,eax
   1fcb5:	75 60                	jne    1fd17 <__swbuf_r+0xf7>
   1fcb7:	0f b7 45 10          	movzx  eax,WORD PTR [rbp+0x10]
   1fcbb:	48 8b 4d 18          	mov    rcx,QWORD PTR [rbp+0x18]
   1fcbf:	44 0f b6 e3          	movzx  r12d,bl
   1fcc3:	f6 c4 20             	test   ah,0x20
   1fcc6:	75 9e                	jne    1fc66 <__swbuf_r+0x46>
   1fcc8:	81 a5 ac 00 00 00 ff 	and    DWORD PTR [rbp+0xac],0xffffdfff
   1fccf:	df ff ff 
   1fcd2:	48 8b 55 00          	mov    rdx,QWORD PTR [rbp+0x0]
   1fcd6:	80 cc 20             	or     ah,0x20
   1fcd9:	66 89 45 10          	mov    WORD PTR [rbp+0x10],ax
   1fcdd:	48 89 d0             	mov    rax,rdx
   1fce0:	48 29 c8             	sub    rax,rcx
   1fce3:	39 45 20             	cmp    DWORD PTR [rbp+0x20],eax
   1fce6:	7f 8d                	jg     1fc75 <__swbuf_r+0x55>
   1fce8:	48 89 ee             	mov    rsi,rbp
   1fceb:	4c 89 ef             	mov    rdi,r13
   1fcee:	e8 ed 5d ff ff       	call   15ae0 <_fflush_r>
   1fcf3:	85 c0                	test   eax,eax
   1fcf5:	75 20                	jne    1fd17 <__swbuf_r+0xf7>
   1fcf7:	48 8b 55 00          	mov    rdx,QWORD PTR [rbp+0x0]
   1fcfb:	b8 01 00 00 00       	mov    eax,0x1
   1fd00:	e9 73 ff ff ff       	jmp    1fc78 <__swbuf_r+0x58>
   1fd05:	0f 1f 00             	nop    DWORD PTR [rax]
   1fd08:	48 89 ee             	mov    rsi,rbp
   1fd0b:	4c 89 ef             	mov    rdi,r13
   1fd0e:	e8 cd 5d ff ff       	call   15ae0 <_fflush_r>
   1fd13:	85 c0                	test   eax,eax
   1fd15:	74 80                	je     1fc97 <__swbuf_r+0x77>
   1fd17:	41 bc ff ff ff ff    	mov    r12d,0xffffffff
   1fd1d:	e9 75 ff ff ff       	jmp    1fc97 <__swbuf_r+0x77>
   1fd22:	66 0f 1f 44 00 00    	nop    WORD PTR [rax+rax*1+0x0]
   1fd28:	e8 f3 59 ff ff       	call   15720 <__sinit>
   1fd2d:	e9 14 ff ff ff       	jmp    1fc46 <__swbuf_r+0x26>
   1fd32:	66 66 2e 0f 1f 84 00 	data16 cs nop WORD PTR [rax+rax*1+0x0]
   1fd39:	00 00 00 00 
   1fd3d:	0f 1f 00             	nop    DWORD PTR [rax]

000000000001fd40 <__swbuf>:
   1fd40:	f3 0f 1e fa          	endbr64 
   1fd44:	48 89 f2             	mov    rdx,rsi
   1fd47:	89 fe                	mov    esi,edi
   1fd49:	48 8b 3d b0 40 00 00 	mov    rdi,QWORD PTR [rip+0x40b0]        # 23e00 <_impure_ptr>
   1fd50:	e9 cb fe ff ff       	jmp    1fc20 <__swbuf_r>
   1fd55:	cc                   	int3   
   1fd56:	cc                   	int3   
   1fd57:	cc                   	int3   
   1fd58:	cc                   	int3   
   1fd59:	cc                   	int3   
   1fd5a:	cc                   	int3   
   1fd5b:	cc                   	int3   
   1fd5c:	cc                   	int3   
   1fd5d:	cc                   	int3   
   1fd5e:	cc                   	int3   
   1fd5f:	cc                   	int3   

000000000001fd60 <__swsetup_r>:
   1fd60:	f3 0f 1e fa          	endbr64 
   1fd64:	55                   	push   rbp
   1fd65:	48 89 fd             	mov    rbp,rdi
   1fd68:	53                   	push   rbx
   1fd69:	48 89 f3             	mov    rbx,rsi
   1fd6c:	48 83 ec 08          	sub    rsp,0x8
   1fd70:	48 8b 3d 89 40 00 00 	mov    rdi,QWORD PTR [rip+0x4089]        # 23e00 <_impure_ptr>
   1fd77:	48 85 ff             	test   rdi,rdi
   1fd7a:	74 0b                	je     1fd87 <__swsetup_r+0x27>
   1fd7c:	48 83 7f 48 00       	cmp    QWORD PTR [rdi+0x48],0x0
   1fd81:	0f 84 f9 00 00 00    	je     1fe80 <__swsetup_r+0x120>
   1fd87:	0f b7 43 10          	movzx  eax,WORD PTR [rbx+0x10]
   1fd8b:	a8 08                	test   al,0x8
   1fd8d:	74 61                	je     1fdf0 <__swsetup_r+0x90>
   1fd8f:	48 8b 53 18          	mov    rdx,QWORD PTR [rbx+0x18]
   1fd93:	48 85 d2             	test   rdx,rdx
   1fd96:	74 74                	je     1fe0c <__swsetup_r+0xac>
   1fd98:	a8 01                	test   al,0x1
   1fd9a:	75 24                	jne    1fdc0 <__swsetup_r+0x60>
   1fd9c:	31 c9                	xor    ecx,ecx
   1fd9e:	a8 02                	test   al,0x2
   1fda0:	75 03                	jne    1fda5 <__swsetup_r+0x45>
   1fda2:	8b 4b 20             	mov    ecx,DWORD PTR [rbx+0x20]
   1fda5:	89 4b 0c             	mov    DWORD PTR [rbx+0xc],ecx
   1fda8:	45 31 c0             	xor    r8d,r8d
   1fdab:	48 85 d2             	test   rdx,rdx
   1fdae:	74 27                	je     1fdd7 <__swsetup_r+0x77>
   1fdb0:	48 83 c4 08          	add    rsp,0x8
   1fdb4:	44 89 c0             	mov    eax,r8d
   1fdb7:	5b                   	pop    rbx
   1fdb8:	5d                   	pop    rbp
   1fdb9:	c3                   	ret    
   1fdba:	66 0f 1f 44 00 00    	nop    WORD PTR [rax+rax*1+0x0]
   1fdc0:	8b 4b 20             	mov    ecx,DWORD PTR [rbx+0x20]
   1fdc3:	c7 43 0c 00 00 00 00 	mov    DWORD PTR [rbx+0xc],0x0
   1fdca:	45 31 c0             	xor    r8d,r8d
   1fdcd:	f7 d9                	neg    ecx
   1fdcf:	89 4b 28             	mov    DWORD PTR [rbx+0x28],ecx
   1fdd2:	48 85 d2             	test   rdx,rdx
   1fdd5:	75 d9                	jne    1fdb0 <__swsetup_r+0x50>
   1fdd7:	a8 80                	test   al,0x80
   1fdd9:	74 d5                	je     1fdb0 <__swsetup_r+0x50>
   1fddb:	83 c8 40             	or     eax,0x40
   1fdde:	41 b8 ff ff ff ff    	mov    r8d,0xffffffff
   1fde4:	66 89 43 10          	mov    WORD PTR [rbx+0x10],ax
   1fde8:	eb c6                	jmp    1fdb0 <__swsetup_r+0x50>
   1fdea:	66 0f 1f 44 00 00    	nop    WORD PTR [rax+rax*1+0x0]
   1fdf0:	a8 10                	test   al,0x10
   1fdf2:	0f 84 92 00 00 00    	je     1fe8a <__swsetup_r+0x12a>
   1fdf8:	a8 04                	test   al,0x4
   1fdfa:	75 44                	jne    1fe40 <__swsetup_r+0xe0>
   1fdfc:	48 8b 53 18          	mov    rdx,QWORD PTR [rbx+0x18]
   1fe00:	83 c8 08             	or     eax,0x8
   1fe03:	66 89 43 10          	mov    WORD PTR [rbx+0x10],ax
   1fe07:	48 85 d2             	test   rdx,rdx
   1fe0a:	75 8c                	jne    1fd98 <__swsetup_r+0x38>
   1fe0c:	89 c1                	mov    ecx,eax
   1fe0e:	66 81 e1 80 02       	and    cx,0x280
   1fe13:	66 81 f9 00 02       	cmp    cx,0x200
   1fe18:	0f 84 7a ff ff ff    	je     1fd98 <__swsetup_r+0x38>
   1fe1e:	48 89 de             	mov    rsi,rbx
   1fe21:	48 89 ef             	mov    rdi,rbp
   1fe24:	e8 87 00 00 00       	call   1feb0 <__smakebuf_r>
   1fe29:	0f b7 43 10          	movzx  eax,WORD PTR [rbx+0x10]
   1fe2d:	48 8b 53 18          	mov    rdx,QWORD PTR [rbx+0x18]
   1fe31:	e9 62 ff ff ff       	jmp    1fd98 <__swsetup_r+0x38>
   1fe36:	66 2e 0f 1f 84 00 00 	cs nop WORD PTR [rax+rax*1+0x0]
   1fe3d:	00 00 00 
   1fe40:	48 8b 73 58          	mov    rsi,QWORD PTR [rbx+0x58]
   1fe44:	48 85 f6             	test   rsi,rsi
   1fe47:	74 1d                	je     1fe66 <__swsetup_r+0x106>
   1fe49:	48 8d 53 74          	lea    rdx,[rbx+0x74]
   1fe4d:	48 39 d6             	cmp    rsi,rdx
   1fe50:	74 0c                	je     1fe5e <__swsetup_r+0xfe>
   1fe52:	48 89 ef             	mov    rdi,rbp
   1fe55:	e8 76 5e ff ff       	call   15cd0 <_free_r>
   1fe5a:	0f b7 43 10          	movzx  eax,WORD PTR [rbx+0x10]
   1fe5e:	48 c7 43 58 00 00 00 	mov    QWORD PTR [rbx+0x58],0x0
   1fe65:	00 
   1fe66:	48 8b 53 18          	mov    rdx,QWORD PTR [rbx+0x18]
   1fe6a:	c7 43 08 00 00 00 00 	mov    DWORD PTR [rbx+0x8],0x0
   1fe71:	83 e0 db             	and    eax,0xffffffdb
   1fe74:	48 89 13             	mov    QWORD PTR [rbx],rdx
   1fe77:	eb 87                	jmp    1fe00 <__swsetup_r+0xa0>
   1fe79:	0f 1f 80 00 00 00 00 	nop    DWORD PTR [rax+0x0]
   1fe80:	e8 9b 58 ff ff       	call   15720 <__sinit>
   1fe85:	e9 fd fe ff ff       	jmp    1fd87 <__swsetup_r+0x27>
   1fe8a:	83 c8 40             	or     eax,0x40
   1fe8d:	c7 45 00 09 00 00 00 	mov    DWORD PTR [rbp+0x0],0x9
   1fe94:	41 b8 ff ff ff ff    	mov    r8d,0xffffffff
   1fe9a:	66 89 43 10          	mov    WORD PTR [rbx+0x10],ax
   1fe9e:	e9 0d ff ff ff       	jmp    1fdb0 <__swsetup_r+0x50>
   1fea3:	cc                   	int3   
   1fea4:	cc                   	int3   
   1fea5:	cc                   	int3   
   1fea6:	cc                   	int3   
   1fea7:	cc                   	int3   
   1fea8:	cc                   	int3   
   1fea9:	cc                   	int3   
   1feaa:	cc                   	int3   
   1feab:	cc                   	int3   
   1feac:	cc                   	int3   
   1fead:	cc                   	int3   
   1feae:	cc                   	int3   
   1feaf:	cc                   	int3   

000000000001feb0 <__smakebuf_r>:
   1feb0:	f3 0f 1e fa          	endbr64 
   1feb4:	41 56                	push   r14
   1feb6:	41 55                	push   r13
   1feb8:	41 54                	push   r12
   1feba:	55                   	push   rbp
   1febb:	53                   	push   rbx
   1febc:	48 89 f3             	mov    rbx,rsi
   1febf:	48 83 ec 70          	sub    rsp,0x70
   1fec3:	64 48 8b 04 25 28 00 	mov    rax,QWORD PTR fs:0x28
   1feca:	00 00 
   1fecc:	48 89 44 24 68       	mov    QWORD PTR [rsp+0x68],rax
   1fed1:	31 c0                	xor    eax,eax
   1fed3:	0f b7 46 10          	movzx  eax,WORD PTR [rsi+0x10]
   1fed7:	a8 02                	test   al,0x2
   1fed9:	74 35                	je     1ff10 <__smakebuf_r+0x60>
   1fedb:	48 8d 43 77          	lea    rax,[rbx+0x77]
   1fedf:	c7 43 20 01 00 00 00 	mov    DWORD PTR [rbx+0x20],0x1
   1fee6:	48 89 03             	mov    QWORD PTR [rbx],rax
   1fee9:	48 89 43 18          	mov    QWORD PTR [rbx+0x18],rax
   1feed:	48 8b 44 24 68       	mov    rax,QWORD PTR [rsp+0x68]
   1fef2:	64 48 2b 04 25 28 00 	sub    rax,QWORD PTR fs:0x28
   1fef9:	00 00 
   1fefb:	0f 85 e3 00 00 00    	jne    1ffe4 <__smakebuf_r+0x134>
   1ff01:	48 83 c4 70          	add    rsp,0x70
   1ff05:	5b                   	pop    rbx
   1ff06:	5d                   	pop    rbp
   1ff07:	41 5c                	pop    r12
   1ff09:	41 5d                	pop    r13
   1ff0b:	41 5e                	pop    r14
   1ff0d:	c3                   	ret    
   1ff0e:	66 90                	xchg   ax,ax
   1ff10:	0f bf 76 12          	movsx  esi,WORD PTR [rsi+0x12]
   1ff14:	49 89 fe             	mov    r14,rdi
   1ff17:	66 85 f6             	test   si,si
   1ff1a:	78 58                	js     1ff74 <__smakebuf_r+0xc4>
   1ff1c:	48 89 e2             	mov    rdx,rsp
   1ff1f:	e8 7c 01 00 00       	call   200a0 <_fstat_r>
   1ff24:	85 c0                	test   eax,eax
   1ff26:	78 48                	js     1ff70 <__smakebuf_r+0xc0>
   1ff28:	8b 44 24 04          	mov    eax,DWORD PTR [rsp+0x4]
   1ff2c:	41 bd 00 04 00 00    	mov    r13d,0x400
   1ff32:	45 31 e4             	xor    r12d,r12d
   1ff35:	4c 89 f7             	mov    rdi,r14
   1ff38:	4c 89 ee             	mov    rsi,r13
   1ff3b:	bd 00 08 00 00       	mov    ebp,0x800
   1ff40:	25 00 f0 00 00       	and    eax,0xf000
   1ff45:	3d 00 20 00 00       	cmp    eax,0x2000
   1ff4a:	41 0f 94 c4          	sete   r12b
   1ff4e:	e8 2d 61 ff ff       	call   16080 <_malloc_r>
   1ff53:	48 85 c0             	test   rax,rax
   1ff56:	75 47                	jne    1ff9f <__smakebuf_r+0xef>
   1ff58:	0f b7 43 10          	movzx  eax,WORD PTR [rbx+0x10]
   1ff5c:	f6 c4 02             	test   ah,0x2
   1ff5f:	75 8c                	jne    1feed <__smakebuf_r+0x3d>
   1ff61:	83 e0 fc             	and    eax,0xfffffffc
   1ff64:	83 c8 02             	or     eax,0x2
   1ff67:	66 89 43 10          	mov    WORD PTR [rbx+0x10],ax
   1ff6b:	e9 6b ff ff ff       	jmp    1fedb <__smakebuf_r+0x2b>
   1ff70:	0f b7 43 10          	movzx  eax,WORD PTR [rbx+0x10]
   1ff74:	66 25 80 00          	and    ax,0x80
   1ff78:	45 31 e4             	xor    r12d,r12d
   1ff7b:	4c 89 f7             	mov    rdi,r14
   1ff7e:	66 83 f8 01          	cmp    ax,0x1
   1ff82:	4d 19 ed             	sbb    r13,r13
   1ff85:	31 ed                	xor    ebp,ebp
   1ff87:	41 81 e5 c0 03 00 00 	and    r13d,0x3c0
   1ff8e:	49 83 c5 40          	add    r13,0x40
   1ff92:	4c 89 ee             	mov    rsi,r13
   1ff95:	e8 e6 60 ff ff       	call   16080 <_malloc_r>
   1ff9a:	48 85 c0             	test   rax,rax
   1ff9d:	74 b9                	je     1ff58 <__smakebuf_r+0xa8>
   1ff9f:	0f b7 53 10          	movzx  edx,WORD PTR [rbx+0x10]
   1ffa3:	48 89 03             	mov    QWORD PTR [rbx],rax
   1ffa6:	48 89 43 18          	mov    QWORD PTR [rbx+0x18],rax
   1ffaa:	80 ca 80             	or     dl,0x80
   1ffad:	44 89 6b 20          	mov    DWORD PTR [rbx+0x20],r13d
   1ffb1:	66 89 53 10          	mov    WORD PTR [rbx+0x10],dx
   1ffb5:	45 85 e4             	test   r12d,r12d
   1ffb8:	75 0e                	jne    1ffc8 <__smakebuf_r+0x118>
   1ffba:	09 ea                	or     edx,ebp
   1ffbc:	66 89 53 10          	mov    WORD PTR [rbx+0x10],dx
   1ffc0:	e9 28 ff ff ff       	jmp    1feed <__smakebuf_r+0x3d>
   1ffc5:	0f 1f 00             	nop    DWORD PTR [rax]
   1ffc8:	0f bf 73 12          	movsx  esi,WORD PTR [rbx+0x12]
   1ffcc:	4c 89 f7             	mov    rdi,r14
   1ffcf:	e8 0c 01 00 00       	call   200e0 <_isatty_r>
   1ffd4:	0f b7 53 10          	movzx  edx,WORD PTR [rbx+0x10]
   1ffd8:	85 c0                	test   eax,eax
   1ffda:	74 de                	je     1ffba <__smakebuf_r+0x10a>
   1ffdc:	83 e2 fc             	and    edx,0xfffffffc
   1ffdf:	83 ca 01             	or     edx,0x1
   1ffe2:	eb d6                	jmp    1ffba <__smakebuf_r+0x10a>
   1ffe4:	e8 97 95 ff ff       	call   19580 <__stack_chk_fail>
   1ffe9:	0f 1f 80 00 00 00 00 	nop    DWORD PTR [rax+0x0]

000000000001fff0 <__swhatbuf_r>:
   1fff0:	f3 0f 1e fa          	endbr64 
   1fff4:	41 54                	push   r12
   1fff6:	49 89 cc             	mov    r12,rcx
   1fff9:	55                   	push   rbp
   1fffa:	48 89 d5             	mov    rbp,rdx
   1fffd:	53                   	push   rbx
   1fffe:	48 89 f3             	mov    rbx,rsi
   20001:	48 83 ec 70          	sub    rsp,0x70
   20005:	0f bf 76 12          	movsx  esi,WORD PTR [rsi+0x12]
   20009:	64 48 8b 04 25 28 00 	mov    rax,QWORD PTR fs:0x28
   20010:	00 00 
   20012:	48 89 44 24 68       	mov    QWORD PTR [rsp+0x68],rax
   20017:	31 c0                	xor    eax,eax
   20019:	66 85 f6             	test   si,si
   2001c:	78 32                	js     20050 <__swhatbuf_r+0x60>
   2001e:	48 89 e2             	mov    rdx,rsp
   20021:	e8 7a 00 00 00       	call   200a0 <_fstat_r>
   20026:	85 c0                	test   eax,eax
   20028:	78 26                	js     20050 <__swhatbuf_r+0x60>
   2002a:	8b 44 24 04          	mov    eax,DWORD PTR [rsp+0x4]
   2002e:	31 d2                	xor    edx,edx
   20030:	41 b8 00 08 00 00    	mov    r8d,0x800
   20036:	25 00 f0 00 00       	and    eax,0xf000
   2003b:	3d 00 20 00 00       	cmp    eax,0x2000
   20040:	b8 00 04 00 00       	mov    eax,0x400
   20045:	0f 94 c2             	sete   dl
   20048:	eb 23                	jmp    2006d <__swhatbuf_r+0x7d>
   2004a:	66 0f 1f 44 00 00    	nop    WORD PTR [rax+rax*1+0x0]
   20050:	0f b7 43 10          	movzx  eax,WORD PTR [rbx+0x10]
   20054:	31 d2                	xor    edx,edx
   20056:	66 25 80 00          	and    ax,0x80
   2005a:	66 83 f8 01          	cmp    ax,0x1
   2005e:	48 19 c0             	sbb    rax,rax
   20061:	45 31 c0             	xor    r8d,r8d
   20064:	25 c0 03 00 00       	and    eax,0x3c0
   20069:	48 83 c0 40          	add    rax,0x40
   2006d:	41 89 14 24          	mov    DWORD PTR [r12],edx
   20071:	48 89 45 00          	mov    QWORD PTR [rbp+0x0],rax
   20075:	48 8b 44 24 68       	mov    rax,QWORD PTR [rsp+0x68]
   2007a:	64 48 2b 04 25 28 00 	sub    rax,QWORD PTR fs:0x28
   20081:	00 00 
   20083:	75 0c                	jne    20091 <__swhatbuf_r+0xa1>
   20085:	48 83 c4 70          	add    rsp,0x70
   20089:	44 89 c0             	mov    eax,r8d
   2008c:	5b                   	pop    rbx
   2008d:	5d                   	pop    rbp
   2008e:	41 5c                	pop    r12
   20090:	c3                   	ret    
   20091:	e8 ea 94 ff ff       	call   19580 <__stack_chk_fail>
   20096:	cc                   	int3   
   20097:	cc                   	int3   
   20098:	cc                   	int3   
   20099:	cc                   	int3   
   2009a:	cc                   	int3   
   2009b:	cc                   	int3   
   2009c:	cc                   	int3   
   2009d:	cc                   	int3   
   2009e:	cc                   	int3   
   2009f:	cc                   	int3   

00000000000200a0 <_fstat_r>:
   200a0:	f3 0f 1e fa          	endbr64 
   200a4:	53                   	push   rbx
   200a5:	48 89 fb             	mov    rbx,rdi
   200a8:	89 f7                	mov    edi,esi
   200aa:	48 89 d6             	mov    rsi,rdx
   200ad:	c7 05 09 a8 10 00 00 	mov    DWORD PTR [rip+0x10a809],0x0        # 12a8c0 <errno>
   200b4:	00 00 00 
   200b7:	e8 e5 13 00 00       	call   214a1 <fstat>
   200bc:	83 f8 ff             	cmp    eax,0xffffffff
   200bf:	74 07                	je     200c8 <_fstat_r+0x28>
   200c1:	5b                   	pop    rbx
   200c2:	c3                   	ret    
   200c3:	0f 1f 44 00 00       	nop    DWORD PTR [rax+rax*1+0x0]
   200c8:	8b 15 f2 a7 10 00    	mov    edx,DWORD PTR [rip+0x10a7f2]        # 12a8c0 <errno>
   200ce:	85 d2                	test   edx,edx
   200d0:	74 ef                	je     200c1 <_fstat_r+0x21>
   200d2:	89 13                	mov    DWORD PTR [rbx],edx
   200d4:	5b                   	pop    rbx
   200d5:	c3                   	ret    
   200d6:	cc                   	int3   
   200d7:	cc                   	int3   
   200d8:	cc                   	int3   
   200d9:	cc                   	int3   
   200da:	cc                   	int3   
   200db:	cc                   	int3   
   200dc:	cc                   	int3   
   200dd:	cc                   	int3   
   200de:	cc                   	int3   
   200df:	cc                   	int3   

00000000000200e0 <_isatty_r>:
   200e0:	f3 0f 1e fa          	endbr64 
   200e4:	53                   	push   rbx
   200e5:	48 89 fb             	mov    rbx,rdi
   200e8:	89 f7                	mov    edi,esi
   200ea:	c7 05 cc a7 10 00 00 	mov    DWORD PTR [rip+0x10a7cc],0x0        # 12a8c0 <errno>
   200f1:	00 00 00 
   200f4:	e8 cd 13 00 00       	call   214c6 <isatty>
   200f9:	83 f8 ff             	cmp    eax,0xffffffff
   200fc:	74 02                	je     20100 <_isatty_r+0x20>
   200fe:	5b                   	pop    rbx
   200ff:	c3                   	ret    
   20100:	8b 15 ba a7 10 00    	mov    edx,DWORD PTR [rip+0x10a7ba]        # 12a8c0 <errno>
   20106:	85 d2                	test   edx,edx
   20108:	74 f4                	je     200fe <_isatty_r+0x1e>
   2010a:	89 13                	mov    DWORD PTR [rbx],edx
   2010c:	5b                   	pop    rbx
   2010d:	c3                   	ret    
   2010e:	cc                   	int3   
   2010f:	cc                   	int3   

0000000000020110 <__sfvwrite_r>:
   20110:	f3 0f 1e fa          	endbr64 
   20114:	48 83 7a 10 00       	cmp    QWORD PTR [rdx+0x10],0x0
   20119:	0f 84 c1 01 00 00    	je     202e0 <__sfvwrite_r+0x1d0>
   2011f:	41 57                	push   r15
   20121:	49 89 d7             	mov    r15,rdx
   20124:	41 56                	push   r14
   20126:	41 55                	push   r13
   20128:	49 89 fd             	mov    r13,rdi
   2012b:	41 54                	push   r12
   2012d:	55                   	push   rbp
   2012e:	53                   	push   rbx
   2012f:	48 89 f3             	mov    rbx,rsi
   20132:	48 83 ec 28          	sub    rsp,0x28
   20136:	0f b7 46 10          	movzx  eax,WORD PTR [rsi+0x10]
   2013a:	a8 08                	test   al,0x8
   2013c:	74 6a                	je     201a8 <__sfvwrite_r+0x98>
   2013e:	48 83 7e 18 00       	cmp    QWORD PTR [rsi+0x18],0x0
   20143:	74 63                	je     201a8 <__sfvwrite_r+0x98>
   20145:	49 8b 2f             	mov    rbp,QWORD PTR [r15]
   20148:	a8 02                	test   al,0x2
   2014a:	74 7a                	je     201c6 <__sfvwrite_r+0xb6>
   2014c:	45 31 f6             	xor    r14d,r14d
   2014f:	45 31 e4             	xor    r12d,r12d
   20152:	eb 32                	jmp    20186 <__sfvwrite_r+0x76>
   20154:	0f 1f 40 00          	nop    DWORD PTR [rax+0x0]
   20158:	b9 00 fc ff 7f       	mov    ecx,0x7ffffc00
   2015d:	4c 89 f2             	mov    rdx,r14
   20160:	4c 89 ef             	mov    rdi,r13
   20163:	49 39 cc             	cmp    r12,rcx
   20166:	49 0f 46 cc          	cmovbe rcx,r12
   2016a:	ff d0                	call   rax
   2016c:	85 c0                	test   eax,eax
   2016e:	0f 8e 44 01 00 00    	jle    202b8 <__sfvwrite_r+0x1a8>
   20174:	48 98                	cdqe   
   20176:	49 01 c6             	add    r14,rax
   20179:	49 29 c4             	sub    r12,rax
   2017c:	49 29 47 10          	sub    QWORD PTR [r15+0x10],rax
   20180:	0f 84 f2 00 00 00    	je     20278 <__sfvwrite_r+0x168>
   20186:	48 8b 43 40          	mov    rax,QWORD PTR [rbx+0x40]
   2018a:	48 8b 73 30          	mov    rsi,QWORD PTR [rbx+0x30]
   2018e:	4d 85 e4             	test   r12,r12
   20191:	75 c5                	jne    20158 <__sfvwrite_r+0x48>
   20193:	4c 8b 75 00          	mov    r14,QWORD PTR [rbp+0x0]
   20197:	4c 8b 65 08          	mov    r12,QWORD PTR [rbp+0x8]
   2019b:	48 83 c5 10          	add    rbp,0x10
   2019f:	eb ed                	jmp    2018e <__sfvwrite_r+0x7e>
   201a1:	0f 1f 80 00 00 00 00 	nop    DWORD PTR [rax+0x0]
   201a8:	48 89 de             	mov    rsi,rbx
   201ab:	4c 89 ef             	mov    rdi,r13
   201ae:	e8 ad fb ff ff       	call   1fd60 <__swsetup_r>
   201b3:	85 c0                	test   eax,eax
   201b5:	0f 85 9f 04 00 00    	jne    2065a <__sfvwrite_r+0x54a>
   201bb:	0f b7 43 10          	movzx  eax,WORD PTR [rbx+0x10]
   201bf:	49 8b 2f             	mov    rbp,QWORD PTR [r15]
   201c2:	a8 02                	test   al,0x2
   201c4:	75 86                	jne    2014c <__sfvwrite_r+0x3c>
   201c6:	a8 01                	test   al,0x1
   201c8:	0f 85 1a 01 00 00    	jne    202e8 <__sfvwrite_r+0x1d8>
   201ce:	48 8b 3b             	mov    rdi,QWORD PTR [rbx]
   201d1:	48 63 53 0c          	movsxd rdx,DWORD PTR [rbx+0xc]
   201d5:	45 31 c0             	xor    r8d,r8d
   201d8:	45 31 f6             	xor    r14d,r14d
   201db:	0f 1f 44 00 00       	nop    DWORD PTR [rax+rax*1+0x0]
   201e0:	49 89 fa             	mov    r10,rdi
   201e3:	41 89 d1             	mov    r9d,edx
   201e6:	4d 85 f6             	test   r14,r14
   201e9:	74 77                	je     20262 <__sfvwrite_r+0x152>
   201eb:	f6 c4 02             	test   ah,0x2
   201ee:	0f 84 e4 01 00 00    	je     203d8 <__sfvwrite_r+0x2c8>
   201f4:	4c 63 e2             	movsxd r12,edx
   201f7:	4d 39 f4             	cmp    r12,r14
   201fa:	0f 86 90 02 00 00    	jbe    20490 <__sfvwrite_r+0x380>
   20200:	49 63 c6             	movsxd rax,r14d
   20203:	45 89 f1             	mov    r9d,r14d
   20206:	48 89 c1             	mov    rcx,rax
   20209:	49 89 fa             	mov    r10,rdi
   2020c:	49 89 c4             	mov    r12,rax
   2020f:	4c 89 c6             	mov    rsi,r8
   20212:	4c 89 e2             	mov    rdx,r12
   20215:	4c 89 d7             	mov    rdi,r10
   20218:	44 89 4c 24 10       	mov    DWORD PTR [rsp+0x10],r9d
   2021d:	48 89 4c 24 08       	mov    QWORD PTR [rsp+0x8],rcx
   20222:	4c 89 04 24          	mov    QWORD PTR [rsp],r8
   20226:	e8 75 ad ff ff       	call   1afa0 <memmove>
   2022b:	44 8b 4c 24 10       	mov    r9d,DWORD PTR [rsp+0x10]
   20230:	4c 01 23             	add    QWORD PTR [rbx],r12
   20233:	44 29 4b 0c          	sub    DWORD PTR [rbx+0xc],r9d
   20237:	4c 8b 04 24          	mov    r8,QWORD PTR [rsp]
   2023b:	48 8b 4c 24 08       	mov    rcx,QWORD PTR [rsp+0x8]
   20240:	49 01 c8             	add    r8,rcx
   20243:	49 29 ce             	sub    r14,rcx
   20246:	49 29 4f 10          	sub    QWORD PTR [r15+0x10],rcx
   2024a:	74 2c                	je     20278 <__sfvwrite_r+0x168>
   2024c:	48 8b 3b             	mov    rdi,QWORD PTR [rbx]
   2024f:	48 63 53 0c          	movsxd rdx,DWORD PTR [rbx+0xc]
   20253:	0f b7 43 10          	movzx  eax,WORD PTR [rbx+0x10]
   20257:	49 89 fa             	mov    r10,rdi
   2025a:	41 89 d1             	mov    r9d,edx
   2025d:	4d 85 f6             	test   r14,r14
   20260:	75 89                	jne    201eb <__sfvwrite_r+0xdb>
   20262:	4c 8b 45 00          	mov    r8,QWORD PTR [rbp+0x0]
   20266:	4c 8b 75 08          	mov    r14,QWORD PTR [rbp+0x8]
   2026a:	48 83 c5 10          	add    rbp,0x10
   2026e:	e9 6d ff ff ff       	jmp    201e0 <__sfvwrite_r+0xd0>
   20273:	0f 1f 44 00 00       	nop    DWORD PTR [rax+rax*1+0x0]
   20278:	31 c0                	xor    eax,eax
   2027a:	48 83 c4 28          	add    rsp,0x28
   2027e:	5b                   	pop    rbx
   2027f:	5d                   	pop    rbp
   20280:	41 5c                	pop    r12
   20282:	41 5d                	pop    r13
   20284:	41 5e                	pop    r14
   20286:	41 5f                	pop    r15
   20288:	c3                   	ret    
   20289:	0f 1f 80 00 00 00 00 	nop    DWORD PTR [rax+0x0]
   20290:	48 89 de             	mov    rsi,rbx
   20293:	4c 89 ef             	mov    rdi,r13
   20296:	44 89 44 24 08       	mov    DWORD PTR [rsp+0x8],r8d
   2029b:	4c 89 0c 24          	mov    QWORD PTR [rsp],r9
   2029f:	e8 3c 58 ff ff       	call   15ae0 <_fflush_r>
   202a4:	4c 8b 0c 24          	mov    r9,QWORD PTR [rsp]
   202a8:	44 8b 44 24 08       	mov    r8d,DWORD PTR [rsp+0x8]
   202ad:	85 c0                	test   eax,eax
   202af:	0f 84 be 00 00 00    	je     20373 <__sfvwrite_r+0x263>
   202b5:	0f 1f 00             	nop    DWORD PTR [rax]
   202b8:	0f b7 43 10          	movzx  eax,WORD PTR [rbx+0x10]
   202bc:	83 c8 40             	or     eax,0x40
   202bf:	66 89 43 10          	mov    WORD PTR [rbx+0x10],ax
   202c3:	48 83 c4 28          	add    rsp,0x28
   202c7:	b8 ff ff ff ff       	mov    eax,0xffffffff
   202cc:	5b                   	pop    rbx
   202cd:	5d                   	pop    rbp
   202ce:	41 5c                	pop    r12
   202d0:	41 5d                	pop    r13
   202d2:	41 5e                	pop    r14
   202d4:	41 5f                	pop    r15
   202d6:	c3                   	ret    
   202d7:	66 0f 1f 84 00 00 00 	nop    WORD PTR [rax+rax*1+0x0]
   202de:	00 00 
   202e0:	31 c0                	xor    eax,eax
   202e2:	c3                   	ret    
   202e3:	0f 1f 44 00 00       	nop    DWORD PTR [rax+rax*1+0x0]
   202e8:	45 31 c0             	xor    r8d,r8d
   202eb:	31 c0                	xor    eax,eax
   202ed:	45 31 c9             	xor    r9d,r9d
   202f0:	45 31 f6             	xor    r14d,r14d
   202f3:	e9 8e 00 00 00       	jmp    20386 <__sfvwrite_r+0x276>
   202f8:	0f 1f 84 00 00 00 00 	nop    DWORD PTR [rax+rax*1+0x0]
   202ff:	00 
   20300:	85 c0                	test   eax,eax
   20302:	0f 84 9a 00 00 00    	je     203a2 <__sfvwrite_r+0x292>
   20308:	49 63 c8             	movsxd rcx,r8d
   2030b:	44 8b 53 20          	mov    r10d,DWORD PTR [rbx+0x20]
   2030f:	44 8b 63 0c          	mov    r12d,DWORD PTR [rbx+0xc]
   20313:	4c 39 f1             	cmp    rcx,r14
   20316:	48 8b 3b             	mov    rdi,QWORD PTR [rbx]
   20319:	49 0f 47 ce          	cmova  rcx,r14
   2031d:	45 01 d4             	add    r12d,r10d
   20320:	48 3b 7b 18          	cmp    rdi,QWORD PTR [rbx+0x18]
   20324:	76 09                	jbe    2032f <__sfvwrite_r+0x21f>
   20326:	41 39 cc             	cmp    r12d,ecx
   20329:	0f 8c 91 02 00 00    	jl     205c0 <__sfvwrite_r+0x4b0>
   2032f:	41 39 ca             	cmp    r10d,ecx
   20332:	0f 8f 48 02 00 00    	jg     20580 <__sfvwrite_r+0x470>
   20338:	44 89 44 24 08       	mov    DWORD PTR [rsp+0x8],r8d
   2033d:	4c 89 ca             	mov    rdx,r9
   20340:	48 8b 73 30          	mov    rsi,QWORD PTR [rbx+0x30]
   20344:	44 89 d1             	mov    ecx,r10d
   20347:	4c 89 0c 24          	mov    QWORD PTR [rsp],r9
   2034b:	4c 89 ef             	mov    rdi,r13
   2034e:	ff 53 40             	call   QWORD PTR [rbx+0x40]
   20351:	4c 8b 0c 24          	mov    r9,QWORD PTR [rsp]
   20355:	44 8b 44 24 08       	mov    r8d,DWORD PTR [rsp+0x8]
   2035a:	85 c0                	test   eax,eax
   2035c:	41 89 c4             	mov    r12d,eax
   2035f:	0f 8e 53 ff ff ff    	jle    202b8 <__sfvwrite_r+0x1a8>
   20365:	b8 01 00 00 00       	mov    eax,0x1
   2036a:	45 29 e0             	sub    r8d,r12d
   2036d:	0f 84 1d ff ff ff    	je     20290 <__sfvwrite_r+0x180>
   20373:	4d 63 e4             	movsxd r12,r12d
   20376:	4d 01 e1             	add    r9,r12
   20379:	4d 29 e6             	sub    r14,r12
   2037c:	4d 29 67 10          	sub    QWORD PTR [r15+0x10],r12
   20380:	0f 84 f2 fe ff ff    	je     20278 <__sfvwrite_r+0x168>
   20386:	4d 85 f6             	test   r14,r14
   20389:	0f 85 71 ff ff ff    	jne    20300 <__sfvwrite_r+0x1f0>
   2038f:	4c 8b 75 08          	mov    r14,QWORD PTR [rbp+0x8]
   20393:	48 89 e8             	mov    rax,rbp
   20396:	48 83 c5 10          	add    rbp,0x10
   2039a:	4d 85 f6             	test   r14,r14
   2039d:	74 f0                	je     2038f <__sfvwrite_r+0x27f>
   2039f:	4c 8b 08             	mov    r9,QWORD PTR [rax]
   203a2:	4c 89 f2             	mov    rdx,r14
   203a5:	4c 89 cf             	mov    rdi,r9
   203a8:	be 0a 00 00 00       	mov    esi,0xa
   203ad:	4c 89 0c 24          	mov    QWORD PTR [rsp],r9
   203b1:	e8 8a b3 ff ff       	call   1b740 <memchr>
   203b6:	4c 8b 0c 24          	mov    r9,QWORD PTR [rsp]
   203ba:	45 8d 46 01          	lea    r8d,[r14+0x1]
   203be:	48 8d 50 01          	lea    rdx,[rax+0x1]
   203c2:	4c 29 ca             	sub    rdx,r9
   203c5:	48 85 c0             	test   rax,rax
   203c8:	44 0f 45 c2          	cmovne r8d,edx
   203cc:	e9 37 ff ff ff       	jmp    20308 <__sfvwrite_r+0x1f8>
   203d1:	0f 1f 80 00 00 00 00 	nop    DWORD PTR [rax+0x0]
   203d8:	48 39 7b 18          	cmp    QWORD PTR [rbx+0x18],rdi
   203dc:	72 4a                	jb     20428 <__sfvwrite_r+0x318>
   203de:	48 63 43 20          	movsxd rax,DWORD PTR [rbx+0x20]
   203e2:	48 89 c1             	mov    rcx,rax
   203e5:	4c 39 f0             	cmp    rax,r14
   203e8:	77 3e                	ja     20428 <__sfvwrite_r+0x318>
   203ea:	b8 ff ff ff 7f       	mov    eax,0x7fffffff
   203ef:	4c 89 04 24          	mov    QWORD PTR [rsp],r8
   203f3:	48 8b 73 30          	mov    rsi,QWORD PTR [rbx+0x30]
   203f7:	4c 89 ef             	mov    rdi,r13
   203fa:	49 39 c6             	cmp    r14,rax
   203fd:	49 0f 46 c6          	cmovbe rax,r14
   20401:	99                   	cdq    
   20402:	f7 f9                	idiv   ecx
   20404:	4c 89 c2             	mov    rdx,r8
   20407:	0f af c8             	imul   ecx,eax
   2040a:	ff 53 40             	call   QWORD PTR [rbx+0x40]
   2040d:	4c 8b 04 24          	mov    r8,QWORD PTR [rsp]
   20411:	85 c0                	test   eax,eax
   20413:	0f 8e 9f fe ff ff    	jle    202b8 <__sfvwrite_r+0x1a8>
   20419:	48 63 c8             	movsxd rcx,eax
   2041c:	e9 1f fe ff ff       	jmp    20240 <__sfvwrite_r+0x130>
   20421:	0f 1f 80 00 00 00 00 	nop    DWORD PTR [rax+0x0]
   20428:	4c 39 f2             	cmp    rdx,r14
   2042b:	4c 89 c6             	mov    rsi,r8
   2042e:	4c 89 04 24          	mov    QWORD PTR [rsp],r8
   20432:	49 0f 47 d6          	cmova  rdx,r14
   20436:	48 63 ca             	movsxd rcx,edx
   20439:	49 89 d4             	mov    r12,rdx
   2043c:	48 89 ca             	mov    rdx,rcx
   2043f:	48 89 4c 24 08       	mov    QWORD PTR [rsp+0x8],rcx
   20444:	e8 57 ab ff ff       	call   1afa0 <memmove>
   20449:	8b 43 0c             	mov    eax,DWORD PTR [rbx+0xc]
   2044c:	48 8b 4c 24 08       	mov    rcx,QWORD PTR [rsp+0x8]
   20451:	48 01 0b             	add    QWORD PTR [rbx],rcx
   20454:	4c 8b 04 24          	mov    r8,QWORD PTR [rsp]
   20458:	44 29 e0             	sub    eax,r12d
   2045b:	85 c0                	test   eax,eax
   2045d:	89 43 0c             	mov    DWORD PTR [rbx+0xc],eax
   20460:	0f 85 da fd ff ff    	jne    20240 <__sfvwrite_r+0x130>
   20466:	48 89 de             	mov    rsi,rbx
   20469:	4c 89 ef             	mov    rdi,r13
   2046c:	4c 89 44 24 08       	mov    QWORD PTR [rsp+0x8],r8
   20471:	48 89 0c 24          	mov    QWORD PTR [rsp],rcx
   20475:	e8 66 56 ff ff       	call   15ae0 <_fflush_r>
   2047a:	48 8b 0c 24          	mov    rcx,QWORD PTR [rsp]
   2047e:	4c 8b 44 24 08       	mov    r8,QWORD PTR [rsp+0x8]
   20483:	85 c0                	test   eax,eax
   20485:	0f 84 b5 fd ff ff    	je     20240 <__sfvwrite_r+0x130>
   2048b:	e9 28 fe ff ff       	jmp    202b8 <__sfvwrite_r+0x1a8>
   20490:	49 63 ce             	movsxd rcx,r14d
   20493:	66 a9 80 04          	test   ax,0x480
   20497:	0f 84 72 fd ff ff    	je     2020f <__sfvwrite_r+0xff>
   2049d:	8b 53 20             	mov    edx,DWORD PTR [rbx+0x20]
   204a0:	48 8b 73 18          	mov    rsi,QWORD PTR [rbx+0x18]
   204a4:	8d 14 52             	lea    edx,[rdx+rdx*2]
   204a7:	48 29 f7             	sub    rdi,rsi
   204aa:	41 89 d4             	mov    r12d,edx
   204ad:	4c 63 cf             	movsxd r9,edi
   204b0:	48 89 f9             	mov    rcx,rdi
   204b3:	41 c1 ec 1f          	shr    r12d,0x1f
   204b7:	4b 8d 7c 31 01       	lea    rdi,[r9+r14*1+0x1]
   204bc:	41 01 d4             	add    r12d,edx
   204bf:	41 d1 fc             	sar    r12d,1
   204c2:	49 63 d4             	movsxd rdx,r12d
   204c5:	48 39 fa             	cmp    rdx,rdi
   204c8:	73 08                	jae    204d2 <__sfvwrite_r+0x3c2>
   204ca:	46 8d 64 31 01       	lea    r12d,[rcx+r14*1+0x1]
   204cf:	49 63 d4             	movsxd rdx,r12d
   204d2:	4c 89 44 24 10       	mov    QWORD PTR [rsp+0x10],r8
   204d7:	4c 89 4c 24 08       	mov    QWORD PTR [rsp+0x8],r9
   204dc:	48 89 0c 24          	mov    QWORD PTR [rsp],rcx
   204e0:	f6 c4 04             	test   ah,0x4
   204e3:	0f 84 1f 01 00 00    	je     20608 <__sfvwrite_r+0x4f8>
   204e9:	48 89 d6             	mov    rsi,rdx
   204ec:	4c 89 ef             	mov    rdi,r13
   204ef:	e8 8c 5b ff ff       	call   16080 <_malloc_r>
   204f4:	48 8b 0c 24          	mov    rcx,QWORD PTR [rsp]
   204f8:	4c 8b 4c 24 08       	mov    r9,QWORD PTR [rsp+0x8]
   204fd:	48 85 c0             	test   rax,rax
   20500:	4c 8b 44 24 10       	mov    r8,QWORD PTR [rsp+0x10]
   20505:	0f 84 3e 01 00 00    	je     20649 <__sfvwrite_r+0x539>
   2050b:	48 8b 73 18          	mov    rsi,QWORD PTR [rbx+0x18]
   2050f:	4c 89 ca             	mov    rdx,r9
   20512:	48 89 c7             	mov    rdi,rax
   20515:	4c 89 44 24 18       	mov    QWORD PTR [rsp+0x18],r8
   2051a:	48 89 4c 24 10       	mov    QWORD PTR [rsp+0x10],rcx
   2051f:	4c 89 4c 24 08       	mov    QWORD PTR [rsp+0x8],r9
   20524:	48 89 04 24          	mov    QWORD PTR [rsp],rax
   20528:	e8 a3 ab ff ff       	call   1b0d0 <memcpy>
   2052d:	0f b7 43 10          	movzx  eax,WORD PTR [rbx+0x10]
   20531:	4c 8b 14 24          	mov    r10,QWORD PTR [rsp]
   20535:	4c 8b 4c 24 08       	mov    r9,QWORD PTR [rsp+0x8]
   2053a:	48 8b 4c 24 10       	mov    rcx,QWORD PTR [rsp+0x10]
   2053f:	66 25 7f fb          	and    ax,0xfb7f
   20543:	4c 8b 44 24 18       	mov    r8,QWORD PTR [rsp+0x18]
   20548:	0c 80                	or     al,0x80
   2054a:	66 89 43 10          	mov    WORD PTR [rbx+0x10],ax
   2054e:	4c 89 53 18          	mov    QWORD PTR [rbx+0x18],r10
   20552:	4d 01 ca             	add    r10,r9
   20555:	45 89 f1             	mov    r9d,r14d
   20558:	44 89 63 20          	mov    DWORD PTR [rbx+0x20],r12d
   2055c:	41 29 cc             	sub    r12d,ecx
   2055f:	49 63 ce             	movsxd rcx,r14d
   20562:	4c 89 13             	mov    QWORD PTR [rbx],r10
   20565:	48 89 c8             	mov    rax,rcx
   20568:	44 89 63 0c          	mov    DWORD PTR [rbx+0xc],r12d
   2056c:	4c 39 f1             	cmp    rcx,r14
   2056f:	0f 87 ef 00 00 00    	ja     20664 <__sfvwrite_r+0x554>
   20575:	49 89 cc             	mov    r12,rcx
   20578:	e9 92 fc ff ff       	jmp    2020f <__sfvwrite_r+0xff>
   2057d:	0f 1f 00             	nop    DWORD PTR [rax]
   20580:	4c 63 e1             	movsxd r12,ecx
   20583:	4c 89 ce             	mov    rsi,r9
   20586:	44 89 44 24 10       	mov    DWORD PTR [rsp+0x10],r8d
   2058b:	4c 89 e2             	mov    rdx,r12
   2058e:	48 89 4c 24 08       	mov    QWORD PTR [rsp+0x8],rcx
   20593:	4c 89 0c 24          	mov    QWORD PTR [rsp],r9
   20597:	e8 04 aa ff ff       	call   1afa0 <memmove>
   2059c:	48 8b 4c 24 08       	mov    rcx,QWORD PTR [rsp+0x8]
   205a1:	4c 01 23             	add    QWORD PTR [rbx],r12
   205a4:	29 4b 0c             	sub    DWORD PTR [rbx+0xc],ecx
   205a7:	44 8b 44 24 10       	mov    r8d,DWORD PTR [rsp+0x10]
   205ac:	4c 8b 0c 24          	mov    r9,QWORD PTR [rsp]
   205b0:	41 89 cc             	mov    r12d,ecx
   205b3:	e9 ad fd ff ff       	jmp    20365 <__sfvwrite_r+0x255>
   205b8:	0f 1f 84 00 00 00 00 	nop    DWORD PTR [rax+rax*1+0x0]
   205bf:	00 
   205c0:	4c 89 ce             	mov    rsi,r9
   205c3:	49 63 d4             	movsxd rdx,r12d
   205c6:	44 89 44 24 10       	mov    DWORD PTR [rsp+0x10],r8d
   205cb:	4c 89 0c 24          	mov    QWORD PTR [rsp],r9
   205cf:	48 89 54 24 08       	mov    QWORD PTR [rsp+0x8],rdx
   205d4:	e8 c7 a9 ff ff       	call   1afa0 <memmove>
   205d9:	48 8b 54 24 08       	mov    rdx,QWORD PTR [rsp+0x8]
   205de:	48 01 13             	add    QWORD PTR [rbx],rdx
   205e1:	48 89 de             	mov    rsi,rbx
   205e4:	4c 89 ef             	mov    rdi,r13
   205e7:	e8 f4 54 ff ff       	call   15ae0 <_fflush_r>
   205ec:	4c 8b 0c 24          	mov    r9,QWORD PTR [rsp]
   205f0:	44 8b 44 24 10       	mov    r8d,DWORD PTR [rsp+0x10]
   205f5:	85 c0                	test   eax,eax
   205f7:	0f 84 68 fd ff ff    	je     20365 <__sfvwrite_r+0x255>
   205fd:	e9 b6 fc ff ff       	jmp    202b8 <__sfvwrite_r+0x1a8>
   20602:	66 0f 1f 44 00 00    	nop    WORD PTR [rax+rax*1+0x0]
   20608:	4c 89 ef             	mov    rdi,r13
   2060b:	e8 f0 ab ff ff       	call   1b200 <_realloc_r>
   20610:	48 8b 0c 24          	mov    rcx,QWORD PTR [rsp]
   20614:	4c 8b 4c 24 08       	mov    r9,QWORD PTR [rsp+0x8]
   20619:	48 85 c0             	test   rax,rax
   2061c:	4c 8b 44 24 10       	mov    r8,QWORD PTR [rsp+0x10]
   20621:	49 89 c2             	mov    r10,rax
   20624:	0f 85 24 ff ff ff    	jne    2054e <__sfvwrite_r+0x43e>
   2062a:	48 8b 73 18          	mov    rsi,QWORD PTR [rbx+0x18]
   2062e:	4c 89 ef             	mov    rdi,r13
   20631:	e8 9a 56 ff ff       	call   15cd0 <_free_r>
   20636:	0f b7 43 10          	movzx  eax,WORD PTR [rbx+0x10]
   2063a:	41 c7 45 00 0c 00 00 	mov    DWORD PTR [r13+0x0],0xc
   20641:	00 
   20642:	24 7f                	and    al,0x7f
   20644:	e9 73 fc ff ff       	jmp    202bc <__sfvwrite_r+0x1ac>
   20649:	41 c7 45 00 0c 00 00 	mov    DWORD PTR [r13+0x0],0xc
   20650:	00 
   20651:	0f b7 43 10          	movzx  eax,WORD PTR [rbx+0x10]
   20655:	e9 62 fc ff ff       	jmp    202bc <__sfvwrite_r+0x1ac>
   2065a:	b8 ff ff ff ff       	mov    eax,0xffffffff
   2065f:	e9 16 fc ff ff       	jmp    2027a <__sfvwrite_r+0x16a>
   20664:	4c 89 d7             	mov    rdi,r10
   20667:	e9 97 fb ff ff       	jmp    20203 <__sfvwrite_r+0xf3>
   2066c:	cc                   	int3   
   2066d:	cc                   	int3   
   2066e:	cc                   	int3   
   2066f:	cc                   	int3   

0000000000020670 <abort>:
   20670:	f3 0f 1e fa          	endbr64 
   20674:	50                   	push   rax
   20675:	58                   	pop    rax
   20676:	bf 06 00 00 00       	mov    edi,0x6
   2067b:	48 83 ec 08          	sub    rsp,0x8
   2067f:	e8 2c 92 ff ff       	call   198b0 <raise>
   20684:	bf 01 00 00 00       	mov    edi,0x1
   20689:	e8 3f 0d 00 00       	call   213cd <_exit>
   2068e:	cc                   	int3   
   2068f:	cc                   	int3   

0000000000020690 <_sprintf_r>:
   20690:	f3 0f 1e fa          	endbr64 
   20694:	48 81 ec 98 01 00 00 	sub    rsp,0x198
   2069b:	48 89 8c 24 f8 00 00 	mov    QWORD PTR [rsp+0xf8],rcx
   206a2:	00 
   206a3:	4c 89 84 24 00 01 00 	mov    QWORD PTR [rsp+0x100],r8
   206aa:	00 
   206ab:	4c 89 8c 24 08 01 00 	mov    QWORD PTR [rsp+0x108],r9
   206b2:	00 
   206b3:	84 c0                	test   al,al
   206b5:	74 40                	je     206f7 <_sprintf_r+0x67>
   206b7:	0f 29 84 24 10 01 00 	movaps XMMWORD PTR [rsp+0x110],xmm0
   206be:	00 
   206bf:	0f 29 8c 24 20 01 00 	movaps XMMWORD PTR [rsp+0x120],xmm1
   206c6:	00 
   206c7:	0f 29 94 24 30 01 00 	movaps XMMWORD PTR [rsp+0x130],xmm2
   206ce:	00 
   206cf:	0f 29 9c 24 40 01 00 	movaps XMMWORD PTR [rsp+0x140],xmm3
   206d6:	00 
   206d7:	0f 29 a4 24 50 01 00 	movaps XMMWORD PTR [rsp+0x150],xmm4
   206de:	00 
   206df:	0f 29 ac 24 60 01 00 	movaps XMMWORD PTR [rsp+0x160],xmm5
   206e6:	00 
   206e7:	0f 29 b4 24 70 01 00 	movaps XMMWORD PTR [rsp+0x170],xmm6
   206ee:	00 
   206ef:	0f 29 bc 24 80 01 00 	movaps XMMWORD PTR [rsp+0x180],xmm7
   206f6:	00 
   206f7:	64 48 8b 04 25 28 00 	mov    rax,QWORD PTR fs:0x28
   206fe:	00 00 
   20700:	48 89 84 24 d8 00 00 	mov    QWORD PTR [rsp+0xd8],rax
   20707:	00 
   20708:	31 c0                	xor    eax,eax
   2070a:	48 8d 4c 24 08       	lea    rcx,[rsp+0x8]
   2070f:	48 89 74 24 20       	mov    QWORD PTR [rsp+0x20],rsi
   20714:	48 b8 ff ff ff 7f 08 	movabs rax,0xffff02087fffffff
   2071b:	02 ff ff 
   2071e:	48 89 44 24 2c       	mov    QWORD PTR [rsp+0x2c],rax
   20723:	48 8d 84 24 a0 01 00 	lea    rax,[rsp+0x1a0]
   2072a:	00 
   2072b:	48 89 74 24 38       	mov    QWORD PTR [rsp+0x38],rsi
   20730:	48 8d 74 24 20       	lea    rsi,[rsp+0x20]
   20735:	48 89 44 24 10       	mov    QWORD PTR [rsp+0x10],rax
   2073a:	48 8d 84 24 e0 00 00 	lea    rax,[rsp+0xe0]
   20741:	00 
   20742:	c7 44 24 40 ff ff ff 	mov    DWORD PTR [rsp+0x40],0x7fffffff
   20749:	7f 
   2074a:	c7 44 24 08 18 00 00 	mov    DWORD PTR [rsp+0x8],0x18
   20751:	00 
   20752:	c7 44 24 0c 30 00 00 	mov    DWORD PTR [rsp+0xc],0x30
   20759:	00 
   2075a:	48 89 44 24 18       	mov    QWORD PTR [rsp+0x18],rax
   2075f:	e8 4c 66 ff ff       	call   16db0 <_svfprintf_r>
   20764:	48 8b 54 24 20       	mov    rdx,QWORD PTR [rsp+0x20]
   20769:	c6 02 00             	mov    BYTE PTR [rdx],0x0
   2076c:	48 8b 94 24 d8 00 00 	mov    rdx,QWORD PTR [rsp+0xd8]
   20773:	00 
   20774:	64 48 2b 14 25 28 00 	sub    rdx,QWORD PTR fs:0x28
   2077b:	00 00 
   2077d:	75 08                	jne    20787 <_sprintf_r+0xf7>
   2077f:	48 81 c4 98 01 00 00 	add    rsp,0x198
   20786:	c3                   	ret    
   20787:	e8 f4 8d ff ff       	call   19580 <__stack_chk_fail>
   2078c:	0f 1f 40 00          	nop    DWORD PTR [rax+0x0]

0000000000020790 <sprintf>:
   20790:	f3 0f 1e fa          	endbr64 
   20794:	48 81 ec 98 01 00 00 	sub    rsp,0x198
   2079b:	49 89 f2             	mov    r10,rsi
   2079e:	48 89 94 24 f0 00 00 	mov    QWORD PTR [rsp+0xf0],rdx
   207a5:	00 
   207a6:	48 89 8c 24 f8 00 00 	mov    QWORD PTR [rsp+0xf8],rcx
   207ad:	00 
   207ae:	4c 89 84 24 00 01 00 	mov    QWORD PTR [rsp+0x100],r8
   207b5:	00 
   207b6:	4c 89 8c 24 08 01 00 	mov    QWORD PTR [rsp+0x108],r9
   207bd:	00 
   207be:	84 c0                	test   al,al
   207c0:	74 40                	je     20802 <sprintf+0x72>
   207c2:	0f 29 84 24 10 01 00 	movaps XMMWORD PTR [rsp+0x110],xmm0
   207c9:	00 
   207ca:	0f 29 8c 24 20 01 00 	movaps XMMWORD PTR [rsp+0x120],xmm1
   207d1:	00 
   207d2:	0f 29 94 24 30 01 00 	movaps XMMWORD PTR [rsp+0x130],xmm2
   207d9:	00 
   207da:	0f 29 9c 24 40 01 00 	movaps XMMWORD PTR [rsp+0x140],xmm3
   207e1:	00 
   207e2:	0f 29 a4 24 50 01 00 	movaps XMMWORD PTR [rsp+0x150],xmm4
   207e9:	00 
   207ea:	0f 29 ac 24 60 01 00 	movaps XMMWORD PTR [rsp+0x160],xmm5
   207f1:	00 
   207f2:	0f 29 b4 24 70 01 00 	movaps XMMWORD PTR [rsp+0x170],xmm6
   207f9:	00 
   207fa:	0f 29 bc 24 80 01 00 	movaps XMMWORD PTR [rsp+0x180],xmm7
   20801:	00 
   20802:	64 48 8b 04 25 28 00 	mov    rax,QWORD PTR fs:0x28
   20809:	00 00 
   2080b:	48 89 84 24 d8 00 00 	mov    QWORD PTR [rsp+0xd8],rax
   20812:	00 
   20813:	31 c0                	xor    eax,eax
   20815:	48 89 7c 24 20       	mov    QWORD PTR [rsp+0x20],rdi
   2081a:	4c 89 d2             	mov    rdx,r10
   2081d:	48 8d 4c 24 08       	lea    rcx,[rsp+0x8]
   20822:	48 b8 ff ff ff 7f 08 	movabs rax,0xffff02087fffffff
   20829:	02 ff ff 
   2082c:	48 89 7c 24 38       	mov    QWORD PTR [rsp+0x38],rdi
   20831:	48 8b 3d c8 35 00 00 	mov    rdi,QWORD PTR [rip+0x35c8]        # 23e00 <_impure_ptr>
   20838:	48 8d 74 24 20       	lea    rsi,[rsp+0x20]
   2083d:	48 89 44 24 2c       	mov    QWORD PTR [rsp+0x2c],rax
   20842:	48 8d 84 24 a0 01 00 	lea    rax,[rsp+0x1a0]
   20849:	00 
   2084a:	48 89 44 24 10       	mov    QWORD PTR [rsp+0x10],rax
   2084f:	48 8d 84 24 e0 00 00 	lea    rax,[rsp+0xe0]
   20856:	00 
   20857:	c7 44 24 40 ff ff ff 	mov    DWORD PTR [rsp+0x40],0x7fffffff
   2085e:	7f 
   2085f:	c7 44 24 08 10 00 00 	mov    DWORD PTR [rsp+0x8],0x10
   20866:	00 
   20867:	c7 44 24 0c 30 00 00 	mov    DWORD PTR [rsp+0xc],0x30
   2086e:	00 
   2086f:	48 89 44 24 18       	mov    QWORD PTR [rsp+0x18],rax
   20874:	e8 37 65 ff ff       	call   16db0 <_svfprintf_r>
   20879:	48 8b 54 24 20       	mov    rdx,QWORD PTR [rsp+0x20]
   2087e:	c6 02 00             	mov    BYTE PTR [rdx],0x0
   20881:	48 8b 94 24 d8 00 00 	mov    rdx,QWORD PTR [rsp+0xd8]
   20888:	00 
   20889:	64 48 2b 14 25 28 00 	sub    rdx,QWORD PTR fs:0x28
   20890:	00 00 
   20892:	75 08                	jne    2089c <sprintf+0x10c>
   20894:	48 81 c4 98 01 00 00 	add    rsp,0x198
   2089b:	c3                   	ret    
   2089c:	e8 df 8c ff ff       	call   19580 <__stack_chk_fail>
   208a1:	cc                   	int3   
   208a2:	cc                   	int3   
   208a3:	cc                   	int3   
   208a4:	cc                   	int3   
   208a5:	cc                   	int3   
   208a6:	cc                   	int3   
   208a7:	cc                   	int3   
   208a8:	cc                   	int3   
   208a9:	cc                   	int3   
   208aa:	cc                   	int3   
   208ab:	cc                   	int3   
   208ac:	cc                   	int3   
   208ad:	cc                   	int3   
   208ae:	cc                   	int3   
   208af:	cc                   	int3   

00000000000208b0 <IoOut32>:
   208b0:	66 89 fa             	mov    dx,di
   208b3:	89 f0                	mov    eax,esi
   208b5:	ef                   	out    dx,eax
   208b6:	c3                   	ret    

00000000000208b7 <IoIn32>:
   208b7:	66 89 fa             	mov    dx,di
   208ba:	ed                   	in     eax,dx
   208bb:	c3                   	ret    

00000000000208bc <IoIn16>:
   208bc:	66 89 fa             	mov    dx,di
   208bf:	66 ed                	in     ax,dx
   208c1:	c3                   	ret    

00000000000208c2 <IoOut8>:
   208c2:	66 89 fa             	mov    dx,di
   208c5:	40 88 f0             	mov    al,sil
   208c8:	ee                   	out    dx,al
   208c9:	c3                   	ret    

00000000000208ca <IoIn8>:
   208ca:	66 89 fa             	mov    dx,di
   208cd:	ec                   	in     al,dx
   208ce:	c3                   	ret    

00000000000208cf <call_kernel_main>:
   208cf:	48 8d a2 00 00 10 00 	lea    rsp,[rdx+0x100000]
   208d6:	48 8d aa 00 00 10 00 	lea    rbp,[rdx+0x100000]
   208dd:	ff d6                	call   rsi

00000000000208df <_hlt>:
   208df:	f4                   	hlt    
   208e0:	eb fd                	jmp    208df <_hlt>

00000000000208e2 <LoadGDT>:
   208e2:	55                   	push   rbp
   208e3:	48 89 e5             	mov    rbp,rsp
   208e6:	48 83 ec 0a          	sub    rsp,0xa
   208ea:	66 89 3c 24          	mov    WORD PTR [rsp],di
   208ee:	48 89 74 24 02       	mov    QWORD PTR [rsp+0x2],rsi
   208f3:	0f 01 14 24          	lgdt   [rsp]
   208f7:	48 89 ec             	mov    rsp,rbp
   208fa:	5d                   	pop    rbp
   208fb:	c3                   	ret    

00000000000208fc <SetDSAll>:
   208fc:	8e df                	mov    ds,edi
   208fe:	8e c7                	mov    es,edi
   20900:	8e e7                	mov    fs,edi
   20902:	8e ef                	mov    gs,edi
   20904:	c3                   	ret    

0000000000020905 <SetCSSS>:
   20905:	55                   	push   rbp
   20906:	48 89 e5             	mov    rbp,rsp
   20909:	8e d6                	mov    ss,esi
   2090b:	48 b8 1c 09 02 00 00 	movabs rax,0x2091c
   20912:	00 00 00 
   20915:	57                   	push   rdi
   20916:	50                   	push   rax
   20917:	48 cb                	retfq  
   20919:	90                   	nop
   2091a:	90                   	nop
   2091b:	90                   	nop

000000000002091c <SetCSSS.next>:
   2091c:	48 89 ec             	mov    rsp,rbp
   2091f:	5d                   	pop    rbp
   20920:	c3                   	ret    

0000000000020921 <GetCS>:
   20921:	31 c0                	xor    eax,eax
   20923:	66 8c c8             	mov    ax,cs
   20926:	c3                   	ret    

0000000000020927 <LoadIDT>:
   20927:	55                   	push   rbp
   20928:	48 89 e5             	mov    rbp,rsp
   2092b:	48 83 ec 0a          	sub    rsp,0xa
   2092f:	66 89 3c 24          	mov    WORD PTR [rsp],di
   20933:	48 89 74 24 02       	mov    QWORD PTR [rsp+0x2],rsi
   20938:	0f 01 1c 24          	lidt   [rsp]
   2093c:	48 89 ec             	mov    rsp,rbp
   2093f:	5d                   	pop    rbp
   20940:	c3                   	ret    

0000000000020941 <SetCR3>:
   20941:	0f 22 df             	mov    cr3,rdi
   20944:	c3                   	ret    

0000000000020945 <NotifyEndOfInterrupt>:
   20945:	b8 b0 00 e0 fe       	mov    eax,0xfee000b0
   2094a:	48 c7 00 00 00 00 00 	mov    QWORD PTR [rax],0x0
   20951:	fb                   	sti    
   20952:	c3                   	ret    
   20953:	cc                   	int3   
   20954:	cc                   	int3   
   20955:	cc                   	int3   
   20956:	cc                   	int3   
   20957:	cc                   	int3   
   20958:	cc                   	int3   
   20959:	cc                   	int3   
   2095a:	cc                   	int3   
   2095b:	cc                   	int3   
   2095c:	cc                   	int3   
   2095d:	cc                   	int3   
   2095e:	cc                   	int3   
   2095f:	cc                   	int3   

0000000000020960 <_Z8MakeAddrhhhh>:
   20960:	55                   	push   rbp
   20961:	48 89 e5             	mov    rbp,rsp
   20964:	48 83 ec 04          	sub    rsp,0x4
   20968:	88 c8                	mov    al,cl
   2096a:	88 d1                	mov    cl,dl
   2096c:	40 88 f2             	mov    dl,sil
   2096f:	40 88 fe             	mov    sil,dil
   20972:	40 88 75 ff          	mov    BYTE PTR [rbp-0x1],sil
   20976:	88 55 fe             	mov    BYTE PTR [rbp-0x2],dl
   20979:	88 4d fd             	mov    BYTE PTR [rbp-0x3],cl
   2097c:	88 45 fc             	mov    BYTE PTR [rbp-0x4],al
   2097f:	0f b6 45 ff          	movzx  eax,BYTE PTR [rbp-0x1]
   20983:	c1 e0 10             	shl    eax,0x10
   20986:	0d 00 00 00 80       	or     eax,0x80000000
   2098b:	0f b6 4d fe          	movzx  ecx,BYTE PTR [rbp-0x2]
   2098f:	c1 e1 0b             	shl    ecx,0xb
   20992:	09 c8                	or     eax,ecx
   20994:	0f b6 4d fd          	movzx  ecx,BYTE PTR [rbp-0x3]
   20998:	c1 e1 08             	shl    ecx,0x8
   2099b:	09 c8                	or     eax,ecx
   2099d:	0f b6 4d fc          	movzx  ecx,BYTE PTR [rbp-0x4]
   209a1:	81 e1 fc 00 00 00    	and    ecx,0xfc
   209a7:	09 c8                	or     eax,ecx
   209a9:	48 83 c4 04          	add    rsp,0x4
   209ad:	5d                   	pop    rbp
   209ae:	c3                   	ret    
   209af:	90                   	nop

00000000000209b0 <_Z9WriteAddrj>:
   209b0:	55                   	push   rbp
   209b1:	48 89 e5             	mov    rbp,rsp
   209b4:	48 83 ec 10          	sub    rsp,0x10
   209b8:	89 7d fc             	mov    DWORD PTR [rbp-0x4],edi
   209bb:	8b 75 fc             	mov    esi,DWORD PTR [rbp-0x4]
   209be:	bf f8 0c 00 00       	mov    edi,0xcf8
   209c3:	e8 e8 fe ff ff       	call   208b0 <IoOut32>
   209c8:	48 83 c4 10          	add    rsp,0x10
   209cc:	5d                   	pop    rbp
   209cd:	c3                   	ret    
   209ce:	66 90                	xchg   ax,ax

00000000000209d0 <_Z9WriteDataj>:
   209d0:	55                   	push   rbp
   209d1:	48 89 e5             	mov    rbp,rsp
   209d4:	48 83 ec 10          	sub    rsp,0x10
   209d8:	89 7d fc             	mov    DWORD PTR [rbp-0x4],edi
   209db:	8b 75 fc             	mov    esi,DWORD PTR [rbp-0x4]
   209de:	bf fc 0c 00 00       	mov    edi,0xcfc
   209e3:	e8 c8 fe ff ff       	call   208b0 <IoOut32>
   209e8:	48 83 c4 10          	add    rsp,0x10
   209ec:	5d                   	pop    rbp
   209ed:	c3                   	ret    
   209ee:	66 90                	xchg   ax,ax

00000000000209f0 <_Z8ReadDatav>:
   209f0:	55                   	push   rbp
   209f1:	48 89 e5             	mov    rbp,rsp
   209f4:	bf fc 0c 00 00       	mov    edi,0xcfc
   209f9:	e8 b9 fe ff ff       	call   208b7 <IoIn32>
   209fe:	5d                   	pop    rbp
   209ff:	c3                   	ret    

0000000000020a00 <_Z12ReadVendorIdhhh>:
   20a00:	55                   	push   rbp
   20a01:	48 89 e5             	mov    rbp,rsp
   20a04:	48 83 ec 10          	sub    rsp,0x10
   20a08:	88 d0                	mov    al,dl
   20a0a:	40 88 f1             	mov    cl,sil
   20a0d:	40 88 fa             	mov    dl,dil
   20a10:	88 55 ff             	mov    BYTE PTR [rbp-0x1],dl
   20a13:	88 4d fe             	mov    BYTE PTR [rbp-0x2],cl
   20a16:	88 45 fd             	mov    BYTE PTR [rbp-0x3],al
   20a19:	8a 55 ff             	mov    dl,BYTE PTR [rbp-0x1]
   20a1c:	8a 45 fe             	mov    al,BYTE PTR [rbp-0x2]
   20a1f:	31 c9                	xor    ecx,ecx
   20a21:	0f b6 fa             	movzx  edi,dl
   20a24:	0f b6 f0             	movzx  esi,al
   20a27:	0f b6 55 fd          	movzx  edx,BYTE PTR [rbp-0x3]
   20a2b:	e8 30 ff ff ff       	call   20960 <_Z8MakeAddrhhhh>
   20a30:	89 c7                	mov    edi,eax
   20a32:	e8 79 ff ff ff       	call   209b0 <_Z9WriteAddrj>
   20a37:	e8 b4 ff ff ff       	call   209f0 <_Z8ReadDatav>
   20a3c:	25 ff ff 00 00       	and    eax,0xffff
   20a41:	0f b7 c0             	movzx  eax,ax
   20a44:	48 83 c4 10          	add    rsp,0x10
   20a48:	5d                   	pop    rbp
   20a49:	c3                   	ret    
   20a4a:	66 0f 1f 44 00 00    	nop    WORD PTR [rax+rax*1+0x0]

0000000000020a50 <_Z12ReadVendorId6Device>:
   20a50:	55                   	push   rbp
   20a51:	48 89 e5             	mov    rbp,rsp
   20a54:	48 83 ec 10          	sub    rsp,0x10
   20a58:	48 89 f8             	mov    rax,rdi
   20a5b:	48 c1 e8 30          	shr    rax,0x30
   20a5f:	88 45 f6             	mov    BYTE PTR [rbp-0xa],al
   20a62:	48 89 f8             	mov    rax,rdi
   20a65:	48 c1 e8 20          	shr    rax,0x20
   20a69:	66 89 45 f4          	mov    WORD PTR [rbp-0xc],ax
   20a6d:	89 f8                	mov    eax,edi
   20a6f:	89 45 f0             	mov    DWORD PTR [rbp-0x10],eax
   20a72:	8b 45 f0             	mov    eax,DWORD PTR [rbp-0x10]
   20a75:	89 45 f8             	mov    DWORD PTR [rbp-0x8],eax
   20a78:	66 8b 45 f4          	mov    ax,WORD PTR [rbp-0xc]
   20a7c:	66 89 45 fc          	mov    WORD PTR [rbp-0x4],ax
   20a80:	8a 45 f6             	mov    al,BYTE PTR [rbp-0xa]
   20a83:	88 45 fe             	mov    BYTE PTR [rbp-0x2],al
   20a86:	8a 55 f8             	mov    dl,BYTE PTR [rbp-0x8]
   20a89:	8a 45 f9             	mov    al,BYTE PTR [rbp-0x7]
   20a8c:	31 c9                	xor    ecx,ecx
   20a8e:	0f b6 fa             	movzx  edi,dl
   20a91:	0f b6 f0             	movzx  esi,al
   20a94:	0f b6 55 fa          	movzx  edx,BYTE PTR [rbp-0x6]
   20a98:	e8 c3 fe ff ff       	call   20960 <_Z8MakeAddrhhhh>
   20a9d:	89 c7                	mov    edi,eax
   20a9f:	e8 0c ff ff ff       	call   209b0 <_Z9WriteAddrj>
   20aa4:	e8 47 ff ff ff       	call   209f0 <_Z8ReadDatav>
   20aa9:	25 ff ff 00 00       	and    eax,0xffff
   20aae:	0f b7 c0             	movzx  eax,ax
   20ab1:	48 83 c4 10          	add    rsp,0x10
   20ab5:	5d                   	pop    rbp
   20ab6:	c3                   	ret    
   20ab7:	66 0f 1f 84 00 00 00 	nop    WORD PTR [rax+rax*1+0x0]
   20abe:	00 00 

0000000000020ac0 <_Z14ReadHeaderTypehhh>:
   20ac0:	55                   	push   rbp
   20ac1:	48 89 e5             	mov    rbp,rsp
   20ac4:	48 83 ec 10          	sub    rsp,0x10
   20ac8:	88 d0                	mov    al,dl
   20aca:	40 88 f1             	mov    cl,sil
   20acd:	40 88 fa             	mov    dl,dil
   20ad0:	88 55 ff             	mov    BYTE PTR [rbp-0x1],dl
   20ad3:	88 4d fe             	mov    BYTE PTR [rbp-0x2],cl
   20ad6:	88 45 fd             	mov    BYTE PTR [rbp-0x3],al
   20ad9:	8a 55 ff             	mov    dl,BYTE PTR [rbp-0x1]
   20adc:	8a 45 fe             	mov    al,BYTE PTR [rbp-0x2]
   20adf:	b9 0c 00 00 00       	mov    ecx,0xc
   20ae4:	0f b6 fa             	movzx  edi,dl
   20ae7:	0f b6 f0             	movzx  esi,al
   20aea:	0f b6 55 fd          	movzx  edx,BYTE PTR [rbp-0x3]
   20aee:	e8 6d fe ff ff       	call   20960 <_Z8MakeAddrhhhh>
   20af3:	89 c7                	mov    edi,eax
   20af5:	e8 b6 fe ff ff       	call   209b0 <_Z9WriteAddrj>
   20afa:	e8 f1 fe ff ff       	call   209f0 <_Z8ReadDatav>
   20aff:	c1 e8 10             	shr    eax,0x10
   20b02:	25 ff 00 00 00       	and    eax,0xff
   20b07:	0f b6 c0             	movzx  eax,al
   20b0a:	48 83 c4 10          	add    rsp,0x10
   20b0e:	5d                   	pop    rbp
   20b0f:	c3                   	ret    

0000000000020b10 <_Z7ReadBar6Devicei>:
   20b10:	55                   	push   rbp
   20b11:	48 89 e5             	mov    rbp,rsp
   20b14:	48 83 ec 20          	sub    rsp,0x20
   20b18:	48 89 f8             	mov    rax,rdi
   20b1b:	48 c1 e8 30          	shr    rax,0x30
   20b1f:	88 45 f6             	mov    BYTE PTR [rbp-0xa],al
   20b22:	48 89 f8             	mov    rax,rdi
   20b25:	48 c1 e8 20          	shr    rax,0x20
   20b29:	66 89 45 f4          	mov    WORD PTR [rbp-0xc],ax
   20b2d:	89 f8                	mov    eax,edi
   20b2f:	89 45 f0             	mov    DWORD PTR [rbp-0x10],eax
   20b32:	8b 45 f0             	mov    eax,DWORD PTR [rbp-0x10]
   20b35:	89 45 f8             	mov    DWORD PTR [rbp-0x8],eax
   20b38:	66 8b 45 f4          	mov    ax,WORD PTR [rbp-0xc]
   20b3c:	66 89 45 fc          	mov    WORD PTR [rbp-0x4],ax
   20b40:	8a 45 f6             	mov    al,BYTE PTR [rbp-0xa]
   20b43:	88 45 fe             	mov    BYTE PTR [rbp-0x2],al
   20b46:	89 75 ec             	mov    DWORD PTR [rbp-0x14],esi
   20b49:	40 8a 75 f8          	mov    sil,BYTE PTR [rbp-0x8]
   20b4d:	8a 55 f9             	mov    dl,BYTE PTR [rbp-0x7]
   20b50:	8a 4d fa             	mov    cl,BYTE PTR [rbp-0x6]
   20b53:	8b 45 ec             	mov    eax,DWORD PTR [rbp-0x14]
   20b56:	c1 e0 02             	shl    eax,0x2
   20b59:	83 c0 10             	add    eax,0x10
   20b5c:	40 0f b6 fe          	movzx  edi,sil
   20b60:	0f b6 f2             	movzx  esi,dl
   20b63:	0f b6 d1             	movzx  edx,cl
   20b66:	0f b6 c8             	movzx  ecx,al
   20b69:	e8 f2 fd ff ff       	call   20960 <_Z8MakeAddrhhhh>
   20b6e:	89 c7                	mov    edi,eax
   20b70:	e8 3b fe ff ff       	call   209b0 <_Z9WriteAddrj>
   20b75:	e8 76 fe ff ff       	call   209f0 <_Z8ReadDatav>
   20b7a:	48 83 c4 20          	add    rsp,0x20
   20b7e:	5d                   	pop    rbp
   20b7f:	c3                   	ret    

0000000000020b80 <_Z13ReadClassCodehhh>:
   20b80:	55                   	push   rbp
   20b81:	48 89 e5             	mov    rbp,rsp
   20b84:	48 83 ec 20          	sub    rsp,0x20
   20b88:	88 d0                	mov    al,dl
   20b8a:	40 88 f1             	mov    cl,sil
   20b8d:	40 88 fa             	mov    dl,dil
   20b90:	88 55 f7             	mov    BYTE PTR [rbp-0x9],dl
   20b93:	88 4d f6             	mov    BYTE PTR [rbp-0xa],cl
   20b96:	88 45 f5             	mov    BYTE PTR [rbp-0xb],al
   20b99:	0f b6 7d f7          	movzx  edi,BYTE PTR [rbp-0x9]
   20b9d:	0f b6 75 f6          	movzx  esi,BYTE PTR [rbp-0xa]
   20ba1:	0f b6 55 f5          	movzx  edx,BYTE PTR [rbp-0xb]
   20ba5:	b9 08 00 00 00       	mov    ecx,0x8
   20baa:	e8 b1 fd ff ff       	call   20960 <_Z8MakeAddrhhhh>
   20baf:	89 c7                	mov    edi,eax
   20bb1:	e8 fa fd ff ff       	call   209b0 <_Z9WriteAddrj>
   20bb6:	e8 35 fe ff ff       	call   209f0 <_Z8ReadDatav>
   20bbb:	89 45 f0             	mov    DWORD PTR [rbp-0x10],eax
   20bbe:	8a 45 f3             	mov    al,BYTE PTR [rbp-0xd]
   20bc1:	88 45 f8             	mov    BYTE PTR [rbp-0x8],al
   20bc4:	8a 45 f2             	mov    al,BYTE PTR [rbp-0xe]
   20bc7:	88 45 f9             	mov    BYTE PTR [rbp-0x7],al
   20bca:	8a 45 f1             	mov    al,BYTE PTR [rbp-0xf]
   20bcd:	88 45 fa             	mov    BYTE PTR [rbp-0x6],al
   20bd0:	8a 45 fa             	mov    al,BYTE PTR [rbp-0x6]
   20bd3:	88 45 ee             	mov    BYTE PTR [rbp-0x12],al
   20bd6:	66 8b 45 f8          	mov    ax,WORD PTR [rbp-0x8]
   20bda:	66 89 45 ec          	mov    WORD PTR [rbp-0x14],ax
   20bde:	0f b6 4d ee          	movzx  ecx,BYTE PTR [rbp-0x12]
   20be2:	c1 e1 10             	shl    ecx,0x10
   20be5:	0f b7 45 ec          	movzx  eax,WORD PTR [rbp-0x14]
   20be9:	09 c8                	or     eax,ecx
   20beb:	48 83 c4 20          	add    rsp,0x20
   20bef:	5d                   	pop    rbp
   20bf0:	c3                   	ret    
   20bf1:	66 2e 0f 1f 84 00 00 	cs nop WORD PTR [rax+rax*1+0x0]
   20bf8:	00 00 00 
   20bfb:	0f 1f 44 00 00       	nop    DWORD PTR [rax+rax*1+0x0]

0000000000020c00 <_Z14ReadBusNumbershhh>:
   20c00:	55                   	push   rbp
   20c01:	48 89 e5             	mov    rbp,rsp
   20c04:	48 83 ec 10          	sub    rsp,0x10
   20c08:	88 d0                	mov    al,dl
   20c0a:	40 88 f1             	mov    cl,sil
   20c0d:	40 88 fa             	mov    dl,dil
   20c10:	88 55 ff             	mov    BYTE PTR [rbp-0x1],dl
   20c13:	88 4d fe             	mov    BYTE PTR [rbp-0x2],cl
   20c16:	88 45 fd             	mov    BYTE PTR [rbp-0x3],al
   20c19:	8a 55 ff             	mov    dl,BYTE PTR [rbp-0x1]
   20c1c:	8a 45 fe             	mov    al,BYTE PTR [rbp-0x2]
   20c1f:	b9 18 00 00 00       	mov    ecx,0x18
   20c24:	0f b6 fa             	movzx  edi,dl
   20c27:	0f b6 f0             	movzx  esi,al
   20c2a:	0f b6 55 fd          	movzx  edx,BYTE PTR [rbp-0x3]
   20c2e:	e8 2d fd ff ff       	call   20960 <_Z8MakeAddrhhhh>
   20c33:	89 c7                	mov    edi,eax
   20c35:	e8 76 fd ff ff       	call   209b0 <_Z9WriteAddrj>
   20c3a:	e8 b1 fd ff ff       	call   209f0 <_Z8ReadDatav>
   20c3f:	48 83 c4 10          	add    rsp,0x10
   20c43:	5d                   	pop    rbp
   20c44:	c3                   	ret    
   20c45:	66 2e 0f 1f 84 00 00 	cs nop WORD PTR [rax+rax*1+0x0]
   20c4c:	00 00 00 
   20c4f:	90                   	nop

0000000000020c50 <_Z9AddDevicehhhh>:
   20c50:	55                   	push   rbp
   20c51:	48 89 e5             	mov    rbp,rsp
   20c54:	48 83 ec 10          	sub    rsp,0x10
   20c58:	88 c8                	mov    al,cl
   20c5a:	88 d1                	mov    cl,dl
   20c5c:	40 88 f2             	mov    dl,sil
   20c5f:	40 88 fe             	mov    sil,dil
   20c62:	40 88 75 fb          	mov    BYTE PTR [rbp-0x5],sil
   20c66:	88 55 fa             	mov    BYTE PTR [rbp-0x6],dl
   20c69:	88 4d f9             	mov    BYTE PTR [rbp-0x7],cl
   20c6c:	88 45 f8             	mov    BYTE PTR [rbp-0x8],al
   20c6f:	83 3d 6a 9c 10 00 20 	cmp    DWORD PTR [rip+0x109c6a],0x20        # 12a8e0 <num_device>
   20c76:	0f 85 18 00 00 00    	jne    20c94 <_Z9AddDevicehhhh+0x44>
   20c7c:	48 8d 3d 54 f7 fe ff 	lea    rdi,[rip+0xfffffffffffef754]        # 103d7 <zeroes.0-0x269>
   20c83:	e8 38 3b ff ff       	call   147c0 <Print>
   20c88:	c7 45 fc 01 00 00 00 	mov    DWORD PTR [rbp-0x4],0x1
   20c8f:	e9 62 00 00 00       	jmp    20cf6 <_Z9AddDevicehhhh+0xa6>
   20c94:	8a 45 fb             	mov    al,BYTE PTR [rbp-0x5]
   20c97:	88 45 f0             	mov    BYTE PTR [rbp-0x10],al
   20c9a:	8a 45 fa             	mov    al,BYTE PTR [rbp-0x6]
   20c9d:	88 45 f1             	mov    BYTE PTR [rbp-0xf],al
   20ca0:	8a 45 f9             	mov    al,BYTE PTR [rbp-0x7]
   20ca3:	88 45 f2             	mov    BYTE PTR [rbp-0xe],al
   20ca6:	8a 45 f8             	mov    al,BYTE PTR [rbp-0x8]
   20ca9:	88 45 f3             	mov    BYTE PTR [rbp-0xd],al
   20cac:	c6 45 f4 00          	mov    BYTE PTR [rbp-0xc],0x0
   20cb0:	c6 45 f5 00          	mov    BYTE PTR [rbp-0xb],0x0
   20cb4:	c6 45 f6 00          	mov    BYTE PTR [rbp-0xa],0x0
   20cb8:	48 63 0d 21 9c 10 00 	movsxd rcx,DWORD PTR [rip+0x109c21]        # 12a8e0 <num_device>
   20cbf:	48 8d 05 2a 9c 10 00 	lea    rax,[rip+0x109c2a]        # 12a8f0 <devices>
   20cc6:	48 6b c9 07          	imul   rcx,rcx,0x7
   20cca:	48 01 c8             	add    rax,rcx
   20ccd:	8b 4d f0             	mov    ecx,DWORD PTR [rbp-0x10]
   20cd0:	89 08                	mov    DWORD PTR [rax],ecx
   20cd2:	66 8b 4d f4          	mov    cx,WORD PTR [rbp-0xc]
   20cd6:	66 89 48 04          	mov    WORD PTR [rax+0x4],cx
   20cda:	8a 4d f6             	mov    cl,BYTE PTR [rbp-0xa]
   20cdd:	88 48 06             	mov    BYTE PTR [rax+0x6],cl
   20ce0:	8b 05 fa 9b 10 00    	mov    eax,DWORD PTR [rip+0x109bfa]        # 12a8e0 <num_device>
   20ce6:	83 c0 01             	add    eax,0x1
   20ce9:	89 05 f1 9b 10 00    	mov    DWORD PTR [rip+0x109bf1],eax        # 12a8e0 <num_device>
   20cef:	c7 45 fc 00 00 00 00 	mov    DWORD PTR [rbp-0x4],0x0
   20cf6:	8b 45 fc             	mov    eax,DWORD PTR [rbp-0x4]
   20cf9:	48 83 c4 10          	add    rsp,0x10
   20cfd:	5d                   	pop    rbp
   20cfe:	c3                   	ret    
   20cff:	90                   	nop

0000000000020d00 <_Z22IsSingleFunctionDeviceh>:
   20d00:	55                   	push   rbp
   20d01:	48 89 e5             	mov    rbp,rsp
   20d04:	48 83 ec 01          	sub    rsp,0x1
   20d08:	40 88 f8             	mov    al,dil
   20d0b:	88 45 ff             	mov    BYTE PTR [rbp-0x1],al
   20d0e:	0f b6 45 ff          	movzx  eax,BYTE PTR [rbp-0x1]
   20d12:	25 80 00 00 00       	and    eax,0x80
   20d17:	83 f8 00             	cmp    eax,0x0
   20d1a:	0f 94 c0             	sete   al
   20d1d:	24 01                	and    al,0x1
   20d1f:	0f b6 c0             	movzx  eax,al
   20d22:	48 83 c4 01          	add    rsp,0x1
   20d26:	5d                   	pop    rbp
   20d27:	c3                   	ret    
   20d28:	0f 1f 84 00 00 00 00 	nop    DWORD PTR [rax+rax*1+0x0]
   20d2f:	00 

0000000000020d30 <_Z10ScanAllBusv>:
   20d30:	55                   	push   rbp
   20d31:	48 89 e5             	mov    rbp,rsp
   20d34:	48 81 ec 80 00 00 00 	sub    rsp,0x80
   20d3b:	c7 05 9b 9b 10 00 00 	mov    DWORD PTR [rip+0x109b9b],0x0        # 12a8e0 <num_device>
   20d42:	00 00 00 
   20d45:	31 d2                	xor    edx,edx
   20d47:	89 d7                	mov    edi,edx
   20d49:	89 d6                	mov    esi,edx
   20d4b:	e8 70 fd ff ff       	call   20ac0 <_Z14ReadHeaderTypehhh>
   20d50:	88 45 8f             	mov    BYTE PTR [rbp-0x71],al
   20d53:	0f b6 7d 8f          	movzx  edi,BYTE PTR [rbp-0x71]
   20d57:	e8 a4 ff ff ff       	call   20d00 <_Z22IsSingleFunctionDeviceh>
   20d5c:	83 f8 00             	cmp    eax,0x0
   20d5f:	0f 84 34 00 00 00    	je     20d99 <_Z10ScanAllBusv+0x69>
   20d65:	48 8d 3d 8a f5 fe ff 	lea    rdi,[rip+0xfffffffffffef58a]        # 102f6 <zeroes.0-0x34a>
   20d6c:	e8 4f 3a ff ff       	call   147c0 <Print>
   20d71:	31 d2                	xor    edx,edx
   20d73:	89 d7                	mov    edi,edx
   20d75:	89 d6                	mov    esi,edx
   20d77:	e8 44 fd ff ff       	call   20ac0 <_Z14ReadHeaderTypehhh>
   20d7c:	31 d2                	xor    edx,edx
   20d7e:	89 d7                	mov    edi,edx
   20d80:	89 d6                	mov    esi,edx
   20d82:	0f b6 c8             	movzx  ecx,al
   20d85:	e8 c6 fe ff ff       	call   20c50 <_Z9AddDevicehhhh>
   20d8a:	31 ff                	xor    edi,edi
   20d8c:	e8 df 00 00 00       	call   20e70 <_Z7ScanBush>
   20d91:	89 45 fc             	mov    DWORD PTR [rbp-0x4],eax
   20d94:	e9 ca 00 00 00       	jmp    20e63 <_Z10ScanAllBusv+0x133>
   20d99:	48 8d 3d b9 f4 fe ff 	lea    rdi,[rip+0xfffffffffffef4b9]        # 10259 <zeroes.0-0x3e7>
   20da0:	e8 1b 3a ff ff       	call   147c0 <Print>
   20da5:	31 d2                	xor    edx,edx
   20da7:	89 d7                	mov    edi,edx
   20da9:	89 d6                	mov    esi,edx
   20dab:	e8 10 fd ff ff       	call   20ac0 <_Z14ReadHeaderTypehhh>
   20db0:	31 d2                	xor    edx,edx
   20db2:	89 d7                	mov    edi,edx
   20db4:	89 d6                	mov    esi,edx
   20db6:	0f b6 c8             	movzx  ecx,al
   20db9:	e8 92 fe ff ff       	call   20c50 <_Z9AddDevicehhhh>
   20dbe:	c6 45 8e 01          	mov    BYTE PTR [rbp-0x72],0x1
   20dc2:	0f b6 45 8e          	movzx  eax,BYTE PTR [rbp-0x72]
   20dc6:	83 f8 08             	cmp    eax,0x8
   20dc9:	0f 8d 8d 00 00 00    	jge    20e5c <_Z10ScanAllBusv+0x12c>
   20dcf:	31 f6                	xor    esi,esi
   20dd1:	89 f7                	mov    edi,esi
   20dd3:	0f b6 55 8e          	movzx  edx,BYTE PTR [rbp-0x72]
   20dd7:	e8 24 fc ff ff       	call   20a00 <_Z12ReadVendorIdhhh>
   20ddc:	0f b7 c0             	movzx  eax,ax
   20ddf:	3d ff ff 00 00       	cmp    eax,0xffff
   20de4:	0f 85 24 00 00 00    	jne    20e0e <_Z10ScanAllBusv+0xde>
   20dea:	0f b6 75 8e          	movzx  esi,BYTE PTR [rbp-0x72]
   20dee:	48 8d 3d 16 f5 fe ff 	lea    rdi,[rip+0xfffffffffffef516]        # 1030b <zeroes.0-0x335>
   20df5:	e8 96 3e ff ff       	call   14c90 <_Z6dPrintPci>
   20dfa:	8b 05 e4 9a 10 00    	mov    eax,DWORD PTR [rip+0x109ae4]        # 12a8e4 <invdev>
   20e00:	83 c0 01             	add    eax,0x1
   20e03:	89 05 db 9a 10 00    	mov    DWORD PTR [rip+0x109adb],eax        # 12a8e4 <invdev>
   20e09:	e9 41 00 00 00       	jmp    20e4f <_Z10ScanAllBusv+0x11f>
   20e0e:	0f b6 75 8e          	movzx  esi,BYTE PTR [rbp-0x72]
   20e12:	48 8d 3d e0 f5 fe ff 	lea    rdi,[rip+0xfffffffffffef5e0]        # 103f9 <zeroes.0-0x247>
   20e19:	e8 72 3e ff ff       	call   14c90 <_Z6dPrintPci>
   20e1e:	0f b6 7d 8e          	movzx  edi,BYTE PTR [rbp-0x72]
   20e22:	e8 49 00 00 00       	call   20e70 <_Z7ScanBush>
   20e27:	89 45 88             	mov    DWORD PTR [rbp-0x78],eax
   20e2a:	83 7d 88 00          	cmp    DWORD PTR [rbp-0x78],0x0
   20e2e:	0f 84 0b 00 00 00    	je     20e3f <_Z10ScanAllBusv+0x10f>
   20e34:	8b 45 88             	mov    eax,DWORD PTR [rbp-0x78]
   20e37:	89 45 fc             	mov    DWORD PTR [rbp-0x4],eax
   20e3a:	e9 24 00 00 00       	jmp    20e63 <_Z10ScanAllBusv+0x133>
   20e3f:	0f b6 75 8e          	movzx  esi,BYTE PTR [rbp-0x72]
   20e43:	48 8d 3d 2b f4 fe ff 	lea    rdi,[rip+0xfffffffffffef42b]        # 10275 <zeroes.0-0x3cb>
   20e4a:	e8 41 3e ff ff       	call   14c90 <_Z6dPrintPci>
   20e4f:	8a 45 8e             	mov    al,BYTE PTR [rbp-0x72]
   20e52:	04 01                	add    al,0x1
   20e54:	88 45 8e             	mov    BYTE PTR [rbp-0x72],al
   20e57:	e9 66 ff ff ff       	jmp    20dc2 <_Z10ScanAllBusv+0x92>
   20e5c:	c7 45 fc 00 00 00 00 	mov    DWORD PTR [rbp-0x4],0x0
   20e63:	8b 45 fc             	mov    eax,DWORD PTR [rbp-0x4]
   20e66:	48 81 c4 80 00 00 00 	add    rsp,0x80
   20e6d:	5d                   	pop    rbp
   20e6e:	c3                   	ret    
   20e6f:	90                   	nop

0000000000020e70 <_Z7ScanBush>:
   20e70:	55                   	push   rbp
   20e71:	48 89 e5             	mov    rbp,rsp
   20e74:	48 83 ec 10          	sub    rsp,0x10
   20e78:	40 88 f8             	mov    al,dil
   20e7b:	88 45 fb             	mov    BYTE PTR [rbp-0x5],al
   20e7e:	c6 45 fa 00          	mov    BYTE PTR [rbp-0x6],0x0
   20e82:	0f b6 45 fa          	movzx  eax,BYTE PTR [rbp-0x6]
   20e86:	83 f8 20             	cmp    eax,0x20
   20e89:	0f 8d 88 00 00 00    	jge    20f17 <_Z7ScanBush+0xa7>
   20e8f:	8a 45 fb             	mov    al,BYTE PTR [rbp-0x5]
   20e92:	31 d2                	xor    edx,edx
   20e94:	0f b6 f8             	movzx  edi,al
   20e97:	0f b6 75 fa          	movzx  esi,BYTE PTR [rbp-0x6]
   20e9b:	e8 60 fb ff ff       	call   20a00 <_Z12ReadVendorIdhhh>
   20ea0:	0f b7 c0             	movzx  eax,ax
   20ea3:	3d ff ff 00 00       	cmp    eax,0xffff
   20ea8:	0f 85 15 00 00 00    	jne    20ec3 <_Z7ScanBush+0x53>
   20eae:	0f b6 75 fa          	movzx  esi,BYTE PTR [rbp-0x6]
   20eb2:	48 8d 3d 47 f3 fe ff 	lea    rdi,[rip+0xfffffffffffef347]        # 10200 <zeroes.0-0x440>
   20eb9:	e8 d2 3d ff ff       	call   14c90 <_Z6dPrintPci>
   20ebe:	e9 47 00 00 00       	jmp    20f0a <_Z7ScanBush+0x9a>
   20ec3:	0f b6 75 fa          	movzx  esi,BYTE PTR [rbp-0x6]
   20ec7:	48 8d 3d e7 f4 fe ff 	lea    rdi,[rip+0xfffffffffffef4e7]        # 103b5 <zeroes.0-0x28b>
   20ece:	e8 bd 3d ff ff       	call   14c90 <_Z6dPrintPci>
   20ed3:	8a 45 fb             	mov    al,BYTE PTR [rbp-0x5]
   20ed6:	0f b6 f8             	movzx  edi,al
   20ed9:	0f b6 75 fa          	movzx  esi,BYTE PTR [rbp-0x6]
   20edd:	e8 4e 00 00 00       	call   20f30 <_Z10ScanDevicehh>
   20ee2:	89 45 f4             	mov    DWORD PTR [rbp-0xc],eax
   20ee5:	83 7d f4 00          	cmp    DWORD PTR [rbp-0xc],0x0
   20ee9:	0f 84 0b 00 00 00    	je     20efa <_Z7ScanBush+0x8a>
   20eef:	8b 45 f4             	mov    eax,DWORD PTR [rbp-0xc]
   20ef2:	89 45 fc             	mov    DWORD PTR [rbp-0x4],eax
   20ef5:	e9 24 00 00 00       	jmp    20f1e <_Z7ScanBush+0xae>
   20efa:	0f b6 75 fa          	movzx  esi,BYTE PTR [rbp-0x6]
   20efe:	48 8d 3d 79 f2 fe ff 	lea    rdi,[rip+0xfffffffffffef279]        # 1017e <zeroes.0-0x4c2>
   20f05:	e8 86 3d ff ff       	call   14c90 <_Z6dPrintPci>
   20f0a:	8a 45 fa             	mov    al,BYTE PTR [rbp-0x6]
   20f0d:	04 01                	add    al,0x1
   20f0f:	88 45 fa             	mov    BYTE PTR [rbp-0x6],al
   20f12:	e9 6b ff ff ff       	jmp    20e82 <_Z7ScanBush+0x12>
   20f17:	c7 45 fc 00 00 00 00 	mov    DWORD PTR [rbp-0x4],0x0
   20f1e:	8b 45 fc             	mov    eax,DWORD PTR [rbp-0x4]
   20f21:	48 83 c4 10          	add    rsp,0x10
   20f25:	5d                   	pop    rbp
   20f26:	c3                   	ret    
   20f27:	66 0f 1f 84 00 00 00 	nop    WORD PTR [rax+rax*1+0x0]
   20f2e:	00 00 

0000000000020f30 <_Z10ScanDevicehh>:
   20f30:	55                   	push   rbp
   20f31:	48 89 e5             	mov    rbp,rsp
   20f34:	48 83 ec 20          	sub    rsp,0x20
   20f38:	40 88 f0             	mov    al,sil
   20f3b:	40 88 f9             	mov    cl,dil
   20f3e:	88 4d fb             	mov    BYTE PTR [rbp-0x5],cl
   20f41:	88 45 fa             	mov    BYTE PTR [rbp-0x6],al
   20f44:	8a 45 fb             	mov    al,BYTE PTR [rbp-0x5]
   20f47:	31 d2                	xor    edx,edx
   20f49:	0f b6 f8             	movzx  edi,al
   20f4c:	0f b6 75 fa          	movzx  esi,BYTE PTR [rbp-0x6]
   20f50:	e8 0b 01 00 00       	call   21060 <_Z12ScanFunctionhhh>
   20f55:	89 45 f4             	mov    DWORD PTR [rbp-0xc],eax
   20f58:	83 7d f4 00          	cmp    DWORD PTR [rbp-0xc],0x0
   20f5c:	0f 84 0b 00 00 00    	je     20f6d <_Z10ScanDevicehh+0x3d>
   20f62:	8b 45 f4             	mov    eax,DWORD PTR [rbp-0xc]
   20f65:	89 45 fc             	mov    DWORD PTR [rbp-0x4],eax
   20f68:	e9 e0 00 00 00       	jmp    2104d <_Z10ScanDevicehh+0x11d>
   20f6d:	8a 45 fb             	mov    al,BYTE PTR [rbp-0x5]
   20f70:	31 d2                	xor    edx,edx
   20f72:	0f b6 f8             	movzx  edi,al
   20f75:	0f b6 75 fa          	movzx  esi,BYTE PTR [rbp-0x6]
   20f79:	e8 42 fb ff ff       	call   20ac0 <_Z14ReadHeaderTypehhh>
   20f7e:	0f b6 f8             	movzx  edi,al
   20f81:	e8 7a fd ff ff       	call   20d00 <_Z22IsSingleFunctionDeviceh>
   20f86:	83 f8 00             	cmp    eax,0x0
   20f89:	0f 84 18 00 00 00    	je     20fa7 <_Z10ScanDevicehh+0x77>
   20f8f:	48 8d 3d ed f2 fe ff 	lea    rdi,[rip+0xfffffffffffef2ed]        # 10283 <zeroes.0-0x3bd>
   20f96:	e8 25 38 ff ff       	call   147c0 <Print>
   20f9b:	c7 45 fc 00 00 00 00 	mov    DWORD PTR [rbp-0x4],0x0
   20fa2:	e9 a6 00 00 00       	jmp    2104d <_Z10ScanDevicehh+0x11d>
   20fa7:	48 8d 3d 60 f4 fe ff 	lea    rdi,[rip+0xfffffffffffef460]        # 1040e <zeroes.0-0x232>
   20fae:	e8 0d 38 ff ff       	call   147c0 <Print>
   20fb3:	c6 45 f3 01          	mov    BYTE PTR [rbp-0xd],0x1
   20fb7:	0f b6 45 f3          	movzx  eax,BYTE PTR [rbp-0xd]
   20fbb:	83 f8 08             	cmp    eax,0x8
   20fbe:	0f 8d 82 00 00 00    	jge    21046 <_Z10ScanDevicehh+0x116>
   20fc4:	8a 4d fb             	mov    cl,BYTE PTR [rbp-0x5]
   20fc7:	8a 45 fa             	mov    al,BYTE PTR [rbp-0x6]
   20fca:	0f b6 f9             	movzx  edi,cl
   20fcd:	0f b6 f0             	movzx  esi,al
   20fd0:	0f b6 55 f3          	movzx  edx,BYTE PTR [rbp-0xd]
   20fd4:	e8 27 fa ff ff       	call   20a00 <_Z12ReadVendorIdhhh>
   20fd9:	0f b7 c0             	movzx  eax,ax
   20fdc:	3d ff ff 00 00       	cmp    eax,0xffff
   20fe1:	0f 85 05 00 00 00    	jne    20fec <_Z10ScanDevicehh+0xbc>
   20fe7:	e9 4d 00 00 00       	jmp    21039 <_Z10ScanDevicehh+0x109>
   20fec:	0f b6 75 f3          	movzx  esi,BYTE PTR [rbp-0xd]
   20ff0:	48 8d 3d b5 f1 fe ff 	lea    rdi,[rip+0xfffffffffffef1b5]        # 101ac <zeroes.0-0x494>
   20ff7:	e8 94 3c ff ff       	call   14c90 <_Z6dPrintPci>
   20ffc:	8a 4d fb             	mov    cl,BYTE PTR [rbp-0x5]
   20fff:	8a 45 fa             	mov    al,BYTE PTR [rbp-0x6]
   21002:	0f b6 f9             	movzx  edi,cl
   21005:	0f b6 f0             	movzx  esi,al
   21008:	0f b6 55 f3          	movzx  edx,BYTE PTR [rbp-0xd]
   2100c:	e8 4f 00 00 00       	call   21060 <_Z12ScanFunctionhhh>
   21011:	89 45 ec             	mov    DWORD PTR [rbp-0x14],eax
   21014:	83 7d ec 00          	cmp    DWORD PTR [rbp-0x14],0x0
   21018:	0f 84 0b 00 00 00    	je     21029 <_Z10ScanDevicehh+0xf9>
   2101e:	8b 45 ec             	mov    eax,DWORD PTR [rbp-0x14]
   21021:	89 45 fc             	mov    DWORD PTR [rbp-0x4],eax
   21024:	e9 24 00 00 00       	jmp    2104d <_Z10ScanDevicehh+0x11d>
   21029:	0f b6 75 f3          	movzx  esi,BYTE PTR [rbp-0xd]
   2102d:	48 8d 3d 2a f3 fe ff 	lea    rdi,[rip+0xfffffffffffef32a]        # 1035e <zeroes.0-0x2e2>
   21034:	e8 57 3c ff ff       	call   14c90 <_Z6dPrintPci>
   21039:	8a 45 f3             	mov    al,BYTE PTR [rbp-0xd]
   2103c:	04 01                	add    al,0x1
   2103e:	88 45 f3             	mov    BYTE PTR [rbp-0xd],al
   21041:	e9 71 ff ff ff       	jmp    20fb7 <_Z10ScanDevicehh+0x87>
   21046:	c7 45 fc 00 00 00 00 	mov    DWORD PTR [rbp-0x4],0x0
   2104d:	8b 45 fc             	mov    eax,DWORD PTR [rbp-0x4]
   21050:	48 83 c4 20          	add    rsp,0x20
   21054:	5d                   	pop    rbp
   21055:	c3                   	ret    
   21056:	66 2e 0f 1f 84 00 00 	cs nop WORD PTR [rax+rax*1+0x0]
   2105d:	00 00 00 

0000000000021060 <_Z12ScanFunctionhhh>:
   21060:	55                   	push   rbp
   21061:	48 89 e5             	mov    rbp,rsp
   21064:	48 83 ec 20          	sub    rsp,0x20
   21068:	88 d0                	mov    al,dl
   2106a:	40 88 f1             	mov    cl,sil
   2106d:	40 88 fa             	mov    dl,dil
   21070:	88 55 fb             	mov    BYTE PTR [rbp-0x5],dl
   21073:	88 4d fa             	mov    BYTE PTR [rbp-0x6],cl
   21076:	88 45 f9             	mov    BYTE PTR [rbp-0x7],al
   21079:	8a 4d fb             	mov    cl,BYTE PTR [rbp-0x5]
   2107c:	8a 45 fa             	mov    al,BYTE PTR [rbp-0x6]
   2107f:	0f b6 f9             	movzx  edi,cl
   21082:	0f b6 f0             	movzx  esi,al
   21085:	0f b6 55 f9          	movzx  edx,BYTE PTR [rbp-0x7]
   21089:	e8 32 fa ff ff       	call   20ac0 <_Z14ReadHeaderTypehhh>
   2108e:	88 45 f8             	mov    BYTE PTR [rbp-0x8],al
   21091:	8a 55 fb             	mov    dl,BYTE PTR [rbp-0x5]
   21094:	8a 4d fa             	mov    cl,BYTE PTR [rbp-0x6]
   21097:	8a 45 f9             	mov    al,BYTE PTR [rbp-0x7]
   2109a:	0f b6 fa             	movzx  edi,dl
   2109d:	0f b6 f1             	movzx  esi,cl
   210a0:	0f b6 d0             	movzx  edx,al
   210a3:	0f b6 4d f8          	movzx  ecx,BYTE PTR [rbp-0x8]
   210a7:	e8 a4 fb ff ff       	call   20c50 <_Z9AddDevicehhhh>
   210ac:	89 45 f4             	mov    DWORD PTR [rbp-0xc],eax
   210af:	83 7d f4 00          	cmp    DWORD PTR [rbp-0xc],0x0
   210b3:	0f 84 0b 00 00 00    	je     210c4 <_Z12ScanFunctionhhh+0x64>
   210b9:	8b 45 f4             	mov    eax,DWORD PTR [rbp-0xc]
   210bc:	89 45 fc             	mov    DWORD PTR [rbp-0x4],eax
   210bf:	e9 9c 00 00 00       	jmp    21160 <_Z12ScanFunctionhhh+0x100>
   210c4:	0f b6 7d fb          	movzx  edi,BYTE PTR [rbp-0x5]
   210c8:	0f b6 75 fa          	movzx  esi,BYTE PTR [rbp-0x6]
   210cc:	0f b6 55 f9          	movzx  edx,BYTE PTR [rbp-0x7]
   210d0:	e8 ab fa ff ff       	call   20b80 <_Z13ReadClassCodehhh>
   210d5:	66 89 c1             	mov    cx,ax
   210d8:	66 89 4d ec          	mov    WORD PTR [rbp-0x14],cx
   210dc:	c1 e8 10             	shr    eax,0x10
   210df:	88 45 ee             	mov    BYTE PTR [rbp-0x12],al
   210e2:	66 8b 45 ec          	mov    ax,WORD PTR [rbp-0x14]
   210e6:	66 89 45 f0          	mov    WORD PTR [rbp-0x10],ax
   210ea:	8a 45 ee             	mov    al,BYTE PTR [rbp-0x12]
   210ed:	88 45 f2             	mov    BYTE PTR [rbp-0xe],al
   210f0:	8a 45 f0             	mov    al,BYTE PTR [rbp-0x10]
   210f3:	88 45 eb             	mov    BYTE PTR [rbp-0x15],al
   210f6:	8a 45 f1             	mov    al,BYTE PTR [rbp-0xf]
   210f9:	88 45 ea             	mov    BYTE PTR [rbp-0x16],al
   210fc:	0f b6 45 eb          	movzx  eax,BYTE PTR [rbp-0x15]
   21100:	83 f8 06             	cmp    eax,0x6
   21103:	0f 85 50 00 00 00    	jne    21159 <_Z12ScanFunctionhhh+0xf9>
   21109:	0f b6 45 ea          	movzx  eax,BYTE PTR [rbp-0x16]
   2110d:	83 f8 04             	cmp    eax,0x4
   21110:	0f 85 43 00 00 00    	jne    21159 <_Z12ScanFunctionhhh+0xf9>
   21116:	48 8d 3d 0e f1 fe ff 	lea    rdi,[rip+0xfffffffffffef10e]        # 1022b <zeroes.0-0x415>
   2111d:	e8 9e 36 ff ff       	call   147c0 <Print>
   21122:	8a 4d fb             	mov    cl,BYTE PTR [rbp-0x5]
   21125:	8a 45 fa             	mov    al,BYTE PTR [rbp-0x6]
   21128:	0f b6 f9             	movzx  edi,cl
   2112b:	0f b6 f0             	movzx  esi,al
   2112e:	0f b6 55 f9          	movzx  edx,BYTE PTR [rbp-0x7]
   21132:	e8 c9 fa ff ff       	call   20c00 <_Z14ReadBusNumbershhh>
   21137:	89 45 e4             	mov    DWORD PTR [rbp-0x1c],eax
   2113a:	8b 45 e4             	mov    eax,DWORD PTR [rbp-0x1c]
   2113d:	c1 e8 08             	shr    eax,0x8
   21140:	25 ff 00 00 00       	and    eax,0xff
   21145:	88 45 e3             	mov    BYTE PTR [rbp-0x1d],al
   21148:	0f b6 7d e3          	movzx  edi,BYTE PTR [rbp-0x1d]
   2114c:	e8 1f fd ff ff       	call   20e70 <_Z7ScanBush>
   21151:	89 45 fc             	mov    DWORD PTR [rbp-0x4],eax
   21154:	e9 07 00 00 00       	jmp    21160 <_Z12ScanFunctionhhh+0x100>
   21159:	c7 45 fc 00 00 00 00 	mov    DWORD PTR [rbp-0x4],0x0
   21160:	8b 45 fc             	mov    eax,DWORD PTR [rbp-0x4]
   21163:	48 83 c4 20          	add    rsp,0x20
   21167:	5d                   	pop    rbp
   21168:	c3                   	ret    
   21169:	cc                   	int3   
   2116a:	cc                   	int3   
   2116b:	cc                   	int3   
   2116c:	cc                   	int3   
   2116d:	cc                   	int3   
   2116e:	cc                   	int3   
   2116f:	cc                   	int3   

0000000000021170 <_Z12show_memdesci>:
   21170:	55                   	push   rbp
   21171:	48 89 e5             	mov    rbp,rsp
   21174:	48 83 ec 10          	sub    rsp,0x10
   21178:	89 7d fc             	mov    DWORD PTR [rbp-0x4],edi
   2117b:	48 8b 05 4e 98 10 00 	mov    rax,QWORD PTR [rip+0x10984e]        # 12a9d0 <mmap>
   21182:	48 8b 40 08          	mov    rax,QWORD PTR [rax+0x8]
   21186:	48 63 4d fc          	movsxd rcx,DWORD PTR [rbp-0x4]
   2118a:	48 8b 15 3f 98 10 00 	mov    rdx,QWORD PTR [rip+0x10983f]        # 12a9d0 <mmap>
   21191:	48 0f af 4a 20       	imul   rcx,QWORD PTR [rdx+0x20]
   21196:	48 01 c8             	add    rax,rcx
   21199:	8b 30                	mov    esi,DWORD PTR [rax]
   2119b:	48 8b 05 2e 98 10 00 	mov    rax,QWORD PTR [rip+0x10982e]        # 12a9d0 <mmap>
   211a2:	48 8b 40 08          	mov    rax,QWORD PTR [rax+0x8]
   211a6:	48 63 4d fc          	movsxd rcx,DWORD PTR [rbp-0x4]
   211aa:	48 8b 15 1f 98 10 00 	mov    rdx,QWORD PTR [rip+0x10981f]        # 12a9d0 <mmap>
   211b1:	48 0f af 4a 20       	imul   rcx,QWORD PTR [rdx+0x20]
   211b6:	48 01 c8             	add    rax,rcx
   211b9:	48 8b 50 08          	mov    rdx,QWORD PTR [rax+0x8]
   211bd:	48 8b 05 0c 98 10 00 	mov    rax,QWORD PTR [rip+0x10980c]        # 12a9d0 <mmap>
   211c4:	48 8b 40 08          	mov    rax,QWORD PTR [rax+0x8]
   211c8:	48 63 4d fc          	movsxd rcx,DWORD PTR [rbp-0x4]
   211cc:	48 8b 3d fd 97 10 00 	mov    rdi,QWORD PTR [rip+0x1097fd]        # 12a9d0 <mmap>
   211d3:	48 0f af 4f 20       	imul   rcx,QWORD PTR [rdi+0x20]
   211d8:	48 01 c8             	add    rax,rcx
   211db:	48 8b 48 18          	mov    rcx,QWORD PTR [rax+0x18]
   211df:	48 8d 3d e8 ef fe ff 	lea    rdi,[rip+0xfffffffffffeefe8]        # 101ce <zeroes.0-0x472>
   211e6:	b0 00                	mov    al,0x0
   211e8:	e8 e3 39 ff ff       	call   14bd0 <Printf>
   211ed:	48 83 c4 10          	add    rsp,0x10
   211f1:	5d                   	pop    rbp
   211f2:	c3                   	ret    
   211f3:	66 2e 0f 1f 84 00 00 	cs nop WORD PTR [rax+rax*1+0x0]
   211fa:	00 00 00 
   211fd:	0f 1f 00             	nop    DWORD PTR [rax]

0000000000021200 <_Z15show_memory_mapv>:
   21200:	55                   	push   rbp
   21201:	48 89 e5             	mov    rbp,rsp
   21204:	48 81 ec 00 01 00 00 	sub    rsp,0x100
   2120b:	c7 85 0c ff ff ff 00 	mov    DWORD PTR [rbp-0xf4],0x0
   21212:	00 00 00 
   21215:	48 8b 05 b4 97 10 00 	mov    rax,QWORD PTR [rip+0x1097b4]        # 12a9d0 <mmap>
   2121c:	48 8b 70 10          	mov    rsi,QWORD PTR [rax+0x10]
   21220:	48 8d 3d f4 f0 fe ff 	lea    rdi,[rip+0xfffffffffffef0f4]        # 1031b <zeroes.0-0x325>
   21227:	b0 00                	mov    al,0x0
   21229:	e8 a2 39 ff ff       	call   14bd0 <Printf>
   2122e:	48 8b 05 9b 97 10 00 	mov    rax,QWORD PTR [rip+0x10979b]        # 12a9d0 <mmap>
   21235:	48 8b 30             	mov    rsi,QWORD PTR [rax]
   21238:	48 8d 3d aa f1 fe ff 	lea    rdi,[rip+0xfffffffffffef1aa]        # 103e9 <zeroes.0-0x257>
   2123f:	b0 00                	mov    al,0x0
   21241:	e8 8a 39 ff ff       	call   14bd0 <Printf>
   21246:	48 8b 05 83 97 10 00 	mov    rax,QWORD PTR [rip+0x109783]        # 12a9d0 <mmap>
   2124d:	48 8b 40 10          	mov    rax,QWORD PTR [rax+0x10]
   21251:	48 8b 0d 78 97 10 00 	mov    rcx,QWORD PTR [rip+0x109778]        # 12a9d0 <mmap>
   21258:	31 d2                	xor    edx,edx
   2125a:	48 f7 71 20          	div    QWORD PTR [rcx+0x20]
   2125e:	48 89 c6             	mov    rsi,rax
   21261:	48 8d 3d 5b f1 fe ff 	lea    rdi,[rip+0xfffffffffffef15b]        # 103c3 <zeroes.0-0x27d>
   21268:	b0 00                	mov    al,0x0
   2126a:	e8 61 39 ff ff       	call   14bd0 <Printf>
   2126f:	48 8b 05 5a 97 10 00 	mov    rax,QWORD PTR [rip+0x10975a]        # 12a9d0 <mmap>
   21276:	48 8b 70 20          	mov    rsi,QWORD PTR [rax+0x20]
   2127a:	48 8d 3d 01 f1 fe ff 	lea    rdi,[rip+0xfffffffffffef101]        # 10382 <zeroes.0-0x2be>
   21281:	b0 00                	mov    al,0x0
   21283:	e8 48 39 ff ff       	call   14bd0 <Printf>
   21288:	48 8d 3d 9b f0 fe ff 	lea    rdi,[rip+0xfffffffffffef09b]        # 1032a <zeroes.0-0x316>
   2128f:	be 28 00 00 00       	mov    esi,0x28
   21294:	b0 00                	mov    al,0x0
   21296:	e8 35 39 ff ff       	call   14bd0 <Printf>
   2129b:	48 81 c4 00 01 00 00 	add    rsp,0x100
   212a2:	5d                   	pop    rbp
   212a3:	c3                   	ret    
   212a4:	66 2e 0f 1f 84 00 00 	cs nop WORD PTR [rax+rax*1+0x0]
   212ab:	00 00 00 
   212ae:	66 90                	xchg   ax,ax

00000000000212b0 <_Z15search_mem_typem>:
   212b0:	55                   	push   rbp
   212b1:	48 89 e5             	mov    rbp,rsp
   212b4:	48 83 ec 20          	sub    rsp,0x20
   212b8:	48 89 7d f0          	mov    QWORD PTR [rbp-0x10],rdi
   212bc:	c7 45 ec 00 00 00 00 	mov    DWORD PTR [rbp-0x14],0x0
   212c3:	48 63 45 ec          	movsxd rax,DWORD PTR [rbp-0x14]
   212c7:	48 89 45 e0          	mov    QWORD PTR [rbp-0x20],rax
   212cb:	48 8b 05 fe 96 10 00 	mov    rax,QWORD PTR [rip+0x1096fe]        # 12a9d0 <mmap>
   212d2:	48 8b 40 10          	mov    rax,QWORD PTR [rax+0x10]
   212d6:	48 8b 0d f3 96 10 00 	mov    rcx,QWORD PTR [rip+0x1096f3]        # 12a9d0 <mmap>
   212dd:	31 d2                	xor    edx,edx
   212df:	48 f7 71 20          	div    QWORD PTR [rcx+0x20]
   212e3:	48 89 c1             	mov    rcx,rax
   212e6:	48 8b 45 e0          	mov    rax,QWORD PTR [rbp-0x20]
   212ea:	48 39 c8             	cmp    rax,rcx
   212ed:	0f 83 6c 00 00 00    	jae    2135f <_Z15search_mem_typem+0xaf>
   212f3:	48 8b 05 d6 96 10 00 	mov    rax,QWORD PTR [rip+0x1096d6]        # 12a9d0 <mmap>
   212fa:	48 8b 40 08          	mov    rax,QWORD PTR [rax+0x8]
   212fe:	48 63 4d ec          	movsxd rcx,DWORD PTR [rbp-0x14]
   21302:	48 8b 15 c7 96 10 00 	mov    rdx,QWORD PTR [rip+0x1096c7]        # 12a9d0 <mmap>
   21309:	48 0f af 4a 20       	imul   rcx,QWORD PTR [rdx+0x20]
   2130e:	48 01 c8             	add    rax,rcx
   21311:	48 8b 40 08          	mov    rax,QWORD PTR [rax+0x8]
   21315:	48 3b 45 f0          	cmp    rax,QWORD PTR [rbp-0x10]
   21319:	0f 82 2d 00 00 00    	jb     2134c <_Z15search_mem_typem+0x9c>
   2131f:	48 8b 05 aa 96 10 00 	mov    rax,QWORD PTR [rip+0x1096aa]        # 12a9d0 <mmap>
   21326:	48 8b 40 08          	mov    rax,QWORD PTR [rax+0x8]
   2132a:	8b 4d ec             	mov    ecx,DWORD PTR [rbp-0x14]
   2132d:	83 e9 01             	sub    ecx,0x1
   21330:	48 63 c9             	movsxd rcx,ecx
   21333:	48 8b 15 96 96 10 00 	mov    rdx,QWORD PTR [rip+0x109696]        # 12a9d0 <mmap>
   2133a:	48 0f af 4a 20       	imul   rcx,QWORD PTR [rdx+0x20]
   2133f:	48 01 c8             	add    rax,rcx
   21342:	8b 00                	mov    eax,DWORD PTR [rax]
   21344:	89 45 fc             	mov    DWORD PTR [rbp-0x4],eax
   21347:	e9 1a 00 00 00       	jmp    21366 <_Z15search_mem_typem+0xb6>
   2134c:	e9 00 00 00 00       	jmp    21351 <_Z15search_mem_typem+0xa1>
   21351:	8b 45 ec             	mov    eax,DWORD PTR [rbp-0x14]
   21354:	83 c0 01             	add    eax,0x1
   21357:	89 45 ec             	mov    DWORD PTR [rbp-0x14],eax
   2135a:	e9 64 ff ff ff       	jmp    212c3 <_Z15search_mem_typem+0x13>
   2135f:	c7 45 fc 15 00 00 00 	mov    DWORD PTR [rbp-0x4],0x15
   21366:	8b 45 fc             	mov    eax,DWORD PTR [rbp-0x4]
   21369:	48 83 c4 20          	add    rsp,0x20
   2136d:	5d                   	pop    rbp
   2136e:	c3                   	ret    

000000000002136f <read>:
   2136f:	f3 0f 1e fa          	endbr64 
   21373:	55                   	push   rbp
   21374:	48 89 e5             	mov    rbp,rsp
   21377:	48 83 ec 20          	sub    rsp,0x20
   2137b:	89 7d fc             	mov    DWORD PTR [rbp-0x4],edi
   2137e:	48 89 75 f0          	mov    QWORD PTR [rbp-0x10],rsi
   21382:	48 89 55 e8          	mov    QWORD PTR [rbp-0x18],rdx
   21386:	48 8d 05 83 fa fe ff 	lea    rax,[rip+0xfffffffffffefa83]        # 10e10 <blanks.1+0x10>
   2138d:	48 89 c7             	mov    rdi,rax
   21390:	e8 2b 34 ff ff       	call   147c0 <Print>
   21395:	f4                   	hlt    
   21396:	eb fd                	jmp    21395 <read+0x26>

0000000000021398 <write>:
   21398:	f3 0f 1e fa          	endbr64 
   2139c:	55                   	push   rbp
   2139d:	48 89 e5             	mov    rbp,rsp
   213a0:	48 83 ec 20          	sub    rsp,0x20
   213a4:	89 7d fc             	mov    DWORD PTR [rbp-0x4],edi
   213a7:	48 89 75 f0          	mov    QWORD PTR [rbp-0x10],rsi
   213ab:	48 89 55 e8          	mov    QWORD PTR [rbp-0x18],rdx
   213af:	48 8b 45 f0          	mov    rax,QWORD PTR [rbp-0x10]
   213b3:	48 89 c7             	mov    rdi,rax
   213b6:	e8 05 34 ff ff       	call   147c0 <Print>
   213bb:	48 8d 05 5c fa fe ff 	lea    rax,[rip+0xfffffffffffefa5c]        # 10e1e <blanks.1+0x1e>
   213c2:	48 89 c7             	mov    rdi,rax
   213c5:	e8 f6 33 ff ff       	call   147c0 <Print>
   213ca:	f4                   	hlt    
   213cb:	eb fd                	jmp    213ca <write+0x32>

00000000000213cd <_exit>:
   213cd:	f3 0f 1e fa          	endbr64 
   213d1:	55                   	push   rbp
   213d2:	48 89 e5             	mov    rbp,rsp
   213d5:	48 83 ec 10          	sub    rsp,0x10
   213d9:	89 7d fc             	mov    DWORD PTR [rbp-0x4],edi
   213dc:	48 8d 05 4a fa fe ff 	lea    rax,[rip+0xfffffffffffefa4a]        # 10e2d <blanks.1+0x2d>
   213e3:	48 89 c7             	mov    rdi,rax
   213e6:	e8 d5 33 ff ff       	call   147c0 <Print>
   213eb:	f4                   	hlt    
   213ec:	eb fd                	jmp    213eb <_exit+0x1e>

00000000000213ee <sbrk>:
   213ee:	f3 0f 1e fa          	endbr64 
   213f2:	55                   	push   rbp
   213f3:	48 89 e5             	mov    rbp,rsp
   213f6:	48 83 ec 10          	sub    rsp,0x10
   213fa:	48 89 7d f8          	mov    QWORD PTR [rbp-0x8],rdi
   213fe:	48 8d 05 37 fa fe ff 	lea    rax,[rip+0xfffffffffffefa37]        # 10e3c <blanks.1+0x3c>
   21405:	48 89 c7             	mov    rdi,rax
   21408:	e8 b3 33 ff ff       	call   147c0 <Print>
   2140d:	f4                   	hlt    
   2140e:	eb fd                	jmp    2140d <sbrk+0x1f>

0000000000021410 <lseek>:
   21410:	f3 0f 1e fa          	endbr64 
   21414:	55                   	push   rbp
   21415:	48 89 e5             	mov    rbp,rsp
   21418:	48 83 ec 10          	sub    rsp,0x10
   2141c:	89 7d fc             	mov    DWORD PTR [rbp-0x4],edi
   2141f:	48 89 75 f0          	mov    QWORD PTR [rbp-0x10],rsi
   21423:	89 55 f8             	mov    DWORD PTR [rbp-0x8],edx
   21426:	48 8d 05 1d fa fe ff 	lea    rax,[rip+0xfffffffffffefa1d]        # 10e4a <blanks.1+0x4a>
   2142d:	48 89 c7             	mov    rdi,rax
   21430:	e8 8b 33 ff ff       	call   147c0 <Print>
   21435:	f4                   	hlt    
   21436:	eb fd                	jmp    21435 <lseek+0x25>

0000000000021438 <close>:
   21438:	f3 0f 1e fa          	endbr64 
   2143c:	55                   	push   rbp
   2143d:	48 89 e5             	mov    rbp,rsp
   21440:	48 83 ec 10          	sub    rsp,0x10
   21444:	89 7d fc             	mov    DWORD PTR [rbp-0x4],edi
   21447:	48 8d 05 0b fa fe ff 	lea    rax,[rip+0xfffffffffffefa0b]        # 10e59 <blanks.1+0x59>
   2144e:	48 89 c7             	mov    rdi,rax
   21451:	e8 6a 33 ff ff       	call   147c0 <Print>
   21456:	f4                   	hlt    
   21457:	eb fd                	jmp    21456 <close+0x1e>

0000000000021459 <kill>:
   21459:	f3 0f 1e fa          	endbr64 
   2145d:	55                   	push   rbp
   2145e:	48 89 e5             	mov    rbp,rsp
   21461:	48 83 ec 10          	sub    rsp,0x10
   21465:	89 7d fc             	mov    DWORD PTR [rbp-0x4],edi
   21468:	89 75 f8             	mov    DWORD PTR [rbp-0x8],esi
   2146b:	48 8d 05 f6 f9 fe ff 	lea    rax,[rip+0xfffffffffffef9f6]        # 10e68 <blanks.1+0x68>
   21472:	48 89 c7             	mov    rdi,rax
   21475:	e8 46 33 ff ff       	call   147c0 <Print>
   2147a:	c7 05 3c 94 10 00 16 	mov    DWORD PTR [rip+0x10943c],0x16        # 12a8c0 <errno>
   21481:	00 00 00 
   21484:	f4                   	hlt    
   21485:	eb fd                	jmp    21484 <kill+0x2b>

0000000000021487 <getpid>:
   21487:	f3 0f 1e fa          	endbr64 
   2148b:	55                   	push   rbp
   2148c:	48 89 e5             	mov    rbp,rsp
   2148f:	48 8d 05 e0 f9 fe ff 	lea    rax,[rip+0xfffffffffffef9e0]        # 10e76 <blanks.1+0x76>
   21496:	48 89 c7             	mov    rdi,rax
   21499:	e8 22 33 ff ff       	call   147c0 <Print>
   2149e:	f4                   	hlt    
   2149f:	eb fd                	jmp    2149e <getpid+0x17>

00000000000214a1 <fstat>:
   214a1:	f3 0f 1e fa          	endbr64 
   214a5:	55                   	push   rbp
   214a6:	48 89 e5             	mov    rbp,rsp
   214a9:	48 83 ec 10          	sub    rsp,0x10
   214ad:	89 7d fc             	mov    DWORD PTR [rbp-0x4],edi
   214b0:	48 89 75 f0          	mov    QWORD PTR [rbp-0x10],rsi
   214b4:	48 8d 05 cb f9 fe ff 	lea    rax,[rip+0xfffffffffffef9cb]        # 10e86 <blanks.1+0x86>
   214bb:	48 89 c7             	mov    rdi,rax
   214be:	e8 fd 32 ff ff       	call   147c0 <Print>
   214c3:	f4                   	hlt    
   214c4:	eb fd                	jmp    214c3 <fstat+0x22>

00000000000214c6 <isatty>:
   214c6:	f3 0f 1e fa          	endbr64 
   214ca:	55                   	push   rbp
   214cb:	48 89 e5             	mov    rbp,rsp
   214ce:	48 83 ec 10          	sub    rsp,0x10
   214d2:	89 7d fc             	mov    DWORD PTR [rbp-0x4],edi
   214d5:	48 8d 05 b9 f9 fe ff 	lea    rax,[rip+0xfffffffffffef9b9]        # 10e95 <blanks.1+0x95>
   214dc:	48 89 c7             	mov    rdi,rax
   214df:	e8 dc 32 ff ff       	call   147c0 <Print>
   214e4:	f4                   	hlt    
   214e5:	eb fd                	jmp    214e4 <isatty+0x1e>
   214e7:	cc                   	int3   
   214e8:	cc                   	int3   
   214e9:	cc                   	int3   
   214ea:	cc                   	int3   
   214eb:	cc                   	int3   
   214ec:	cc                   	int3   
   214ed:	cc                   	int3   
   214ee:	cc                   	int3   
   214ef:	cc                   	int3   

00000000000214f0 <_Z14SetCodeSegmentP17SegmentDescriptor14DescriptorTypejjj>:
   214f0:	55                   	push   rbp
   214f1:	48 89 e5             	mov    rbp,rsp
   214f4:	48 83 ec 18          	sub    rsp,0x18
   214f8:	48 89 7d f8          	mov    QWORD PTR [rbp-0x8],rdi
   214fc:	89 75 f4             	mov    DWORD PTR [rbp-0xc],esi
   214ff:	89 55 f0             	mov    DWORD PTR [rbp-0x10],edx
   21502:	89 4d ec             	mov    DWORD PTR [rbp-0x14],ecx
   21505:	44 89 45 e8          	mov    DWORD PTR [rbp-0x18],r8d
   21509:	48 8b 45 f8          	mov    rax,QWORD PTR [rbp-0x8]
   2150d:	48 c7 00 00 00 00 00 	mov    QWORD PTR [rax],0x0
   21514:	8b 45 ec             	mov    eax,DWORD PTR [rbp-0x14]
   21517:	25 ff ff 00 00       	and    eax,0xffff
   2151c:	89 c0                	mov    eax,eax
   2151e:	89 c2                	mov    edx,eax
   21520:	48 8b 45 f8          	mov    rax,QWORD PTR [rbp-0x8]
   21524:	48 8b 08             	mov    rcx,QWORD PTR [rax]
   21527:	48 81 e2 ff ff 00 00 	and    rdx,0xffff
   2152e:	48 c1 e2 10          	shl    rdx,0x10
   21532:	48 be ff ff 00 00 ff 	movabs rsi,0xffffffff0000ffff
   21539:	ff ff ff 
   2153c:	48 21 f1             	and    rcx,rsi
   2153f:	48 09 d1             	or     rcx,rdx
   21542:	48 89 08             	mov    QWORD PTR [rax],rcx
   21545:	8b 45 ec             	mov    eax,DWORD PTR [rbp-0x14]
   21548:	c1 e8 10             	shr    eax,0x10
   2154b:	25 ff 00 00 00       	and    eax,0xff
   21550:	89 c0                	mov    eax,eax
   21552:	89 c2                	mov    edx,eax
   21554:	48 8b 45 f8          	mov    rax,QWORD PTR [rbp-0x8]
   21558:	48 8b 08             	mov    rcx,QWORD PTR [rax]
   2155b:	48 81 e2 ff 00 00 00 	and    rdx,0xff
   21562:	48 c1 e2 20          	shl    rdx,0x20
   21566:	48 be ff ff ff ff 00 	movabs rsi,0xffffff00ffffffff
   2156d:	ff ff ff 
   21570:	48 21 f1             	and    rcx,rsi
   21573:	48 09 d1             	or     rcx,rdx
   21576:	48 89 08             	mov    QWORD PTR [rax],rcx
   21579:	8b 45 ec             	mov    eax,DWORD PTR [rbp-0x14]
   2157c:	c1 e8 18             	shr    eax,0x18
   2157f:	25 ff 00 00 00       	and    eax,0xff
   21584:	89 c0                	mov    eax,eax
   21586:	89 c2                	mov    edx,eax
   21588:	48 8b 45 f8          	mov    rax,QWORD PTR [rbp-0x8]
   2158c:	48 8b 08             	mov    rcx,QWORD PTR [rax]
   2158f:	48 81 e2 ff 00 00 00 	and    rdx,0xff
   21596:	48 c1 e2 38          	shl    rdx,0x38
   2159a:	48 be ff ff ff ff ff 	movabs rsi,0xffffffffffffff
   215a1:	ff ff 00 
   215a4:	48 21 f1             	and    rcx,rsi
   215a7:	48 09 d1             	or     rcx,rdx
   215aa:	48 89 08             	mov    QWORD PTR [rax],rcx
   215ad:	8b 45 e8             	mov    eax,DWORD PTR [rbp-0x18]
   215b0:	25 ff ff 00 00       	and    eax,0xffff
   215b5:	89 c0                	mov    eax,eax
   215b7:	89 c2                	mov    edx,eax
   215b9:	48 8b 45 f8          	mov    rax,QWORD PTR [rbp-0x8]
   215bd:	48 8b 08             	mov    rcx,QWORD PTR [rax]
   215c0:	48 81 e2 ff ff 00 00 	and    rdx,0xffff
   215c7:	48 81 e1 00 00 ff ff 	and    rcx,0xffffffffffff0000
   215ce:	48 09 d1             	or     rcx,rdx
   215d1:	48 89 08             	mov    QWORD PTR [rax],rcx
   215d4:	8b 45 e8             	mov    eax,DWORD PTR [rbp-0x18]
   215d7:	c1 e8 10             	shr    eax,0x10
   215da:	83 e0 0f             	and    eax,0xf
   215dd:	89 c0                	mov    eax,eax
   215df:	89 c2                	mov    edx,eax
   215e1:	48 8b 45 f8          	mov    rax,QWORD PTR [rbp-0x8]
   215e5:	48 8b 08             	mov    rcx,QWORD PTR [rax]
   215e8:	48 83 e2 0f          	and    rdx,0xf
   215ec:	48 c1 e2 30          	shl    rdx,0x30
   215f0:	48 be ff ff ff ff ff 	movabs rsi,0xfff0ffffffffffff
   215f7:	ff f0 ff 
   215fa:	48 21 f1             	and    rcx,rsi
   215fd:	48 09 d1             	or     rcx,rdx
   21600:	48 89 08             	mov    QWORD PTR [rax],rcx
   21603:	8b 4d f4             	mov    ecx,DWORD PTR [rbp-0xc]
   21606:	48 8b 45 f8          	mov    rax,QWORD PTR [rbp-0x8]
   2160a:	89 c9                	mov    ecx,ecx
   2160c:	89 ca                	mov    edx,ecx
   2160e:	48 8b 08             	mov    rcx,QWORD PTR [rax]
   21611:	48 83 e2 0f          	and    rdx,0xf
   21615:	48 c1 e2 28          	shl    rdx,0x28
   21619:	48 be ff ff ff ff ff 	movabs rsi,0xfffff0ffffffffff
   21620:	f0 ff ff 
   21623:	48 21 f1             	and    rcx,rsi
   21626:	48 09 d1             	or     rcx,rdx
   21629:	48 89 08             	mov    QWORD PTR [rax],rcx
   2162c:	48 8b 45 f8          	mov    rax,QWORD PTR [rbp-0x8]
   21630:	48 b9 ff ff ff ff ff 	movabs rcx,0xffffefffffffffff
   21637:	ef ff ff 
   2163a:	48 23 08             	and    rcx,QWORD PTR [rax]
   2163d:	48 ba 00 00 00 00 00 	movabs rdx,0x100000000000
   21644:	10 00 00 
   21647:	48 09 d1             	or     rcx,rdx
   2164a:	48 89 08             	mov    QWORD PTR [rax],rcx
   2164d:	8b 45 f0             	mov    eax,DWORD PTR [rbp-0x10]
   21650:	89 c2                	mov    edx,eax
   21652:	48 8b 45 f8          	mov    rax,QWORD PTR [rbp-0x8]
   21656:	48 8b 08             	mov    rcx,QWORD PTR [rax]
   21659:	48 83 e2 03          	and    rdx,0x3
   2165d:	48 c1 e2 2d          	shl    rdx,0x2d
   21661:	48 be ff ff ff ff ff 	movabs rsi,0xffff9fffffffffff
   21668:	9f ff ff 
   2166b:	48 21 f1             	and    rcx,rsi
   2166e:	48 09 d1             	or     rcx,rdx
   21671:	48 89 08             	mov    QWORD PTR [rax],rcx
   21674:	48 8b 45 f8          	mov    rax,QWORD PTR [rbp-0x8]
   21678:	48 b9 ff ff ff ff ff 	movabs rcx,0xffff7fffffffffff
   2167f:	7f ff ff 
   21682:	48 23 08             	and    rcx,QWORD PTR [rax]
   21685:	48 ba 00 00 00 00 00 	movabs rdx,0x800000000000
   2168c:	80 00 00 
   2168f:	48 09 d1             	or     rcx,rdx
   21692:	48 89 08             	mov    QWORD PTR [rax],rcx
   21695:	48 8b 45 f8          	mov    rax,QWORD PTR [rbp-0x8]
   21699:	48 b9 ff ff ff ff ff 	movabs rcx,0xffefffffffffffff
   216a0:	ff ef ff 
   216a3:	48 23 08             	and    rcx,QWORD PTR [rax]
   216a6:	48 83 c9 00          	or     rcx,0x0
   216aa:	48 89 08             	mov    QWORD PTR [rax],rcx
   216ad:	48 8b 45 f8          	mov    rax,QWORD PTR [rbp-0x8]
   216b1:	48 b9 ff ff ff ff ff 	movabs rcx,0xffdfffffffffffff
   216b8:	ff df ff 
   216bb:	48 23 08             	and    rcx,QWORD PTR [rax]
   216be:	48 ba 00 00 00 00 00 	movabs rdx,0x20000000000000
   216c5:	00 20 00 
   216c8:	48 09 d1             	or     rcx,rdx
   216cb:	48 89 08             	mov    QWORD PTR [rax],rcx
   216ce:	48 8b 45 f8          	mov    rax,QWORD PTR [rbp-0x8]
   216d2:	48 b9 ff ff ff ff ff 	movabs rcx,0xffbfffffffffffff
   216d9:	ff bf ff 
   216dc:	48 23 08             	and    rcx,QWORD PTR [rax]
   216df:	48 83 c9 00          	or     rcx,0x0
   216e3:	48 89 08             	mov    QWORD PTR [rax],rcx
   216e6:	48 8b 45 f8          	mov    rax,QWORD PTR [rbp-0x8]
   216ea:	48 b9 ff ff ff ff ff 	movabs rcx,0xff7fffffffffffff
   216f1:	ff 7f ff 
   216f4:	48 23 08             	and    rcx,QWORD PTR [rax]
   216f7:	48 ba 00 00 00 00 00 	movabs rdx,0x80000000000000
   216fe:	00 80 00 
   21701:	48 09 d1             	or     rcx,rdx
   21704:	48 89 08             	mov    QWORD PTR [rax],rcx
   21707:	48 83 c4 18          	add    rsp,0x18
   2170b:	5d                   	pop    rbp
   2170c:	c3                   	ret    
   2170d:	0f 1f 00             	nop    DWORD PTR [rax]

0000000000021710 <_Z14SetDataSegmentP17SegmentDescriptor14DescriptorTypejjj>:
   21710:	55                   	push   rbp
   21711:	48 89 e5             	mov    rbp,rsp
   21714:	48 83 ec 20          	sub    rsp,0x20
   21718:	48 89 7d f8          	mov    QWORD PTR [rbp-0x8],rdi
   2171c:	89 75 f4             	mov    DWORD PTR [rbp-0xc],esi
   2171f:	89 55 f0             	mov    DWORD PTR [rbp-0x10],edx
   21722:	89 4d ec             	mov    DWORD PTR [rbp-0x14],ecx
   21725:	44 89 45 e8          	mov    DWORD PTR [rbp-0x18],r8d
   21729:	48 8b 7d f8          	mov    rdi,QWORD PTR [rbp-0x8]
   2172d:	8b 75 f4             	mov    esi,DWORD PTR [rbp-0xc]
   21730:	8b 55 f0             	mov    edx,DWORD PTR [rbp-0x10]
   21733:	8b 4d ec             	mov    ecx,DWORD PTR [rbp-0x14]
   21736:	44 8b 45 e8          	mov    r8d,DWORD PTR [rbp-0x18]
   2173a:	e8 b1 fd ff ff       	call   214f0 <_Z14SetCodeSegmentP17SegmentDescriptor14DescriptorTypejjj>
   2173f:	48 8b 45 f8          	mov    rax,QWORD PTR [rbp-0x8]
   21743:	48 b9 ff ff ff ff ff 	movabs rcx,0xffdfffffffffffff
   2174a:	ff df ff 
   2174d:	48 23 08             	and    rcx,QWORD PTR [rax]
   21750:	48 ba 00 00 00 00 00 	movabs rdx,0x20000000000000
   21757:	00 20 00 
   2175a:	48 09 d1             	or     rcx,rdx
   2175d:	48 89 08             	mov    QWORD PTR [rax],rcx
   21760:	48 8b 45 f8          	mov    rax,QWORD PTR [rbp-0x8]
   21764:	48 b9 ff ff ff ff ff 	movabs rcx,0xffbfffffffffffff
   2176b:	ff bf ff 
   2176e:	48 23 08             	and    rcx,QWORD PTR [rax]
   21771:	48 ba 00 00 00 00 00 	movabs rdx,0x40000000000000
   21778:	00 40 00 
   2177b:	48 09 d1             	or     rcx,rdx
   2177e:	48 89 08             	mov    QWORD PTR [rax],rcx
   21781:	48 83 c4 20          	add    rsp,0x20
   21785:	5d                   	pop    rbp
   21786:	c3                   	ret    
   21787:	66 0f 1f 84 00 00 00 	nop    WORD PTR [rax+rax*1+0x0]
   2178e:	00 00 

0000000000021790 <_Z13SetupSegmentsv>:
   21790:	55                   	push   rbp
   21791:	48 89 e5             	mov    rbp,rsp
   21794:	48 c7 05 f1 31 00 00 	mov    QWORD PTR [rip+0x31f1],0x0        # 24990 <gdt>
   2179b:	00 00 00 00 
   2179f:	48 8d 3d ea 31 00 00 	lea    rdi,[rip+0x31ea]        # 24990 <gdt>
   217a6:	48 83 c7 08          	add    rdi,0x8
   217aa:	be 0a 00 00 00       	mov    esi,0xa
   217af:	31 c9                	xor    ecx,ecx
   217b1:	41 b8 ff ff 0f 00    	mov    r8d,0xfffff
   217b7:	89 ca                	mov    edx,ecx
   217b9:	e8 32 fd ff ff       	call   214f0 <_Z14SetCodeSegmentP17SegmentDescriptor14DescriptorTypejjj>
   217be:	48 8d 3d cb 31 00 00 	lea    rdi,[rip+0x31cb]        # 24990 <gdt>
   217c5:	48 83 c7 10          	add    rdi,0x10
   217c9:	be 02 00 00 00       	mov    esi,0x2
   217ce:	31 c9                	xor    ecx,ecx
   217d0:	41 b8 ff ff 0f 00    	mov    r8d,0xfffff
   217d6:	89 ca                	mov    edx,ecx
   217d8:	e8 33 ff ff ff       	call   21710 <_Z14SetDataSegmentP17SegmentDescriptor14DescriptorTypejjj>
   217dd:	bf 17 00 00 00       	mov    edi,0x17
   217e2:	48 8d 35 a7 31 00 00 	lea    rsi,[rip+0x31a7]        # 24990 <gdt>
   217e9:	e8 f4 f0 ff ff       	call   208e2 <LoadGDT>
   217ee:	48 8d 05 9b 31 00 00 	lea    rax,[rip+0x319b]        # 24990 <gdt>
   217f5:	5d                   	pop    rbp
   217f6:	c3                   	ret    
   217f7:	cc                   	int3   
   217f8:	cc                   	int3   
   217f9:	cc                   	int3   
   217fa:	cc                   	int3   
   217fb:	cc                   	int3   
   217fc:	cc                   	int3   
   217fd:	cc                   	int3   
   217fe:	cc                   	int3   
   217ff:	cc                   	int3   

0000000000021800 <_Z19BreakpointInterruptP14InterruptFrame>:
   21800:	55                   	push   rbp
   21801:	48 89 e5             	mov    rbp,rsp
   21804:	50                   	push   rax
   21805:	41 53                	push   r11
   21807:	41 52                	push   r10
   21809:	41 51                	push   r9
   2180b:	41 50                	push   r8
   2180d:	57                   	push   rdi
   2180e:	56                   	push   rsi
   2180f:	52                   	push   rdx
   21810:	51                   	push   rcx
   21811:	48 81 ec 28 01 00 00 	sub    rsp,0x128
   21818:	44 0f 29 7d a0       	movaps XMMWORD PTR [rbp-0x60],xmm15
   2181d:	44 0f 29 75 90       	movaps XMMWORD PTR [rbp-0x70],xmm14
   21822:	44 0f 29 6d 80       	movaps XMMWORD PTR [rbp-0x80],xmm13
   21827:	44 0f 29 a5 70 ff ff 	movaps XMMWORD PTR [rbp-0x90],xmm12
   2182e:	ff 
   2182f:	44 0f 29 9d 60 ff ff 	movaps XMMWORD PTR [rbp-0xa0],xmm11
   21836:	ff 
   21837:	44 0f 29 95 50 ff ff 	movaps XMMWORD PTR [rbp-0xb0],xmm10
   2183e:	ff 
   2183f:	44 0f 29 8d 40 ff ff 	movaps XMMWORD PTR [rbp-0xc0],xmm9
   21846:	ff 
   21847:	44 0f 29 85 30 ff ff 	movaps XMMWORD PTR [rbp-0xd0],xmm8
   2184e:	ff 
   2184f:	0f 29 bd 20 ff ff ff 	movaps XMMWORD PTR [rbp-0xe0],xmm7
   21856:	0f 29 b5 10 ff ff ff 	movaps XMMWORD PTR [rbp-0xf0],xmm6
   2185d:	0f 29 ad 00 ff ff ff 	movaps XMMWORD PTR [rbp-0x100],xmm5
   21864:	0f 29 a5 f0 fe ff ff 	movaps XMMWORD PTR [rbp-0x110],xmm4
   2186b:	0f 29 9d e0 fe ff ff 	movaps XMMWORD PTR [rbp-0x120],xmm3
   21872:	0f 29 95 d0 fe ff ff 	movaps XMMWORD PTR [rbp-0x130],xmm2
   21879:	0f 29 8d c0 fe ff ff 	movaps XMMWORD PTR [rbp-0x140],xmm1
   21880:	0f 29 85 b0 fe ff ff 	movaps XMMWORD PTR [rbp-0x150],xmm0
   21887:	fc                   	cld    
   21888:	48 8d 45 08          	lea    rax,[rbp+0x8]
   2188c:	48 89 85 a8 fe ff ff 	mov    QWORD PTR [rbp-0x158],rax
   21893:	48 8b 85 a8 fe ff ff 	mov    rax,QWORD PTR [rbp-0x158]
   2189a:	48 8b 30             	mov    rsi,QWORD PTR [rax]
   2189d:	48 8d 3d 60 eb fe ff 	lea    rdi,[rip+0xfffffffffffeeb60]        # 10404 <zeroes.0-0x23c>
   218a4:	31 c0                	xor    eax,eax
   218a6:	e8 25 33 ff ff       	call   14bd0 <Printf>
   218ab:	bf 2c 01 00 00       	mov    edi,0x12c
   218b0:	e8 2b 35 ff ff       	call   14de0 <_Z15WriteMandelbroti>
   218b5:	48 8b 05 ec 30 00 00 	mov    rax,QWORD PTR [rip+0x30ec]        # 249a8 <InterruptMessagePosition>
   218bc:	48 89 85 a0 fe ff ff 	mov    QWORD PTR [rbp-0x160],rax
   218c3:	c6 85 98 fe ff ff ff 	mov    BYTE PTR [rbp-0x168],0xff
   218ca:	c6 85 99 fe ff ff 00 	mov    BYTE PTR [rbp-0x167],0x0
   218d1:	c6 85 9a fe ff ff 00 	mov    BYTE PTR [rbp-0x166],0x0
   218d8:	48 8b b5 a0 fe ff ff 	mov    rsi,QWORD PTR [rbp-0x160]
   218df:	8a 85 9a fe ff ff    	mov    al,BYTE PTR [rbp-0x166]
   218e5:	88 85 96 fe ff ff    	mov    BYTE PTR [rbp-0x16a],al
   218eb:	66 8b 85 98 fe ff ff 	mov    ax,WORD PTR [rbp-0x168]
   218f2:	66 89 85 94 fe ff ff 	mov    WORD PTR [rbp-0x16c],ax
   218f9:	0f b6 85 96 fe ff ff 	movzx  eax,BYTE PTR [rbp-0x16a]
   21900:	c1 e0 10             	shl    eax,0x10
   21903:	0f b7 95 94 fe ff ff 	movzx  edx,WORD PTR [rbp-0x16c]
   2190a:	09 c2                	or     edx,eax
   2190c:	48 8d 3d 30 e9 fe ff 	lea    rdi,[rip+0xfffffffffffee930]        # 10243 <zeroes.0-0x3fd>
   21913:	e8 08 2d ff ff       	call   14620 <_Z9PrintLinePKc6Vector5Color>
   21918:	e8 73 25 ff ff       	call   13e90 <_Z4stopv>
   2191d:	e8 23 f0 ff ff       	call   20945 <NotifyEndOfInterrupt>
   21922:	0f 28 85 b0 fe ff ff 	movaps xmm0,XMMWORD PTR [rbp-0x150]
   21929:	0f 28 8d c0 fe ff ff 	movaps xmm1,XMMWORD PTR [rbp-0x140]
   21930:	0f 28 95 d0 fe ff ff 	movaps xmm2,XMMWORD PTR [rbp-0x130]
   21937:	0f 28 9d e0 fe ff ff 	movaps xmm3,XMMWORD PTR [rbp-0x120]
   2193e:	0f 28 a5 f0 fe ff ff 	movaps xmm4,XMMWORD PTR [rbp-0x110]
   21945:	0f 28 ad 00 ff ff ff 	movaps xmm5,XMMWORD PTR [rbp-0x100]
   2194c:	0f 28 b5 10 ff ff ff 	movaps xmm6,XMMWORD PTR [rbp-0xf0]
   21953:	0f 28 bd 20 ff ff ff 	movaps xmm7,XMMWORD PTR [rbp-0xe0]
   2195a:	44 0f 28 85 30 ff ff 	movaps xmm8,XMMWORD PTR [rbp-0xd0]
   21961:	ff 
   21962:	44 0f 28 8d 40 ff ff 	movaps xmm9,XMMWORD PTR [rbp-0xc0]
   21969:	ff 
   2196a:	44 0f 28 95 50 ff ff 	movaps xmm10,XMMWORD PTR [rbp-0xb0]
   21971:	ff 
   21972:	44 0f 28 9d 60 ff ff 	movaps xmm11,XMMWORD PTR [rbp-0xa0]
   21979:	ff 
   2197a:	44 0f 28 a5 70 ff ff 	movaps xmm12,XMMWORD PTR [rbp-0x90]
   21981:	ff 
   21982:	44 0f 28 6d 80       	movaps xmm13,XMMWORD PTR [rbp-0x80]
   21987:	44 0f 28 75 90       	movaps xmm14,XMMWORD PTR [rbp-0x70]
   2198c:	44 0f 28 7d a0       	movaps xmm15,XMMWORD PTR [rbp-0x60]
   21991:	48 81 c4 28 01 00 00 	add    rsp,0x128
   21998:	59                   	pop    rcx
   21999:	5a                   	pop    rdx
   2199a:	5e                   	pop    rsi
   2199b:	5f                   	pop    rdi
   2199c:	41 58                	pop    r8
   2199e:	41 59                	pop    r9
   219a0:	41 5a                	pop    r10
   219a2:	41 5b                	pop    r11
   219a4:	58                   	pop    rax
   219a5:	5d                   	pop    rbp
   219a6:	48 cf                	iretq  
   219a8:	0f 1f 84 00 00 00 00 	nop    DWORD PTR [rax+rax*1+0x0]
   219af:	00 

00000000000219b0 <_Z17SegFaultInterruptP14InterruptFrame>:
   219b0:	55                   	push   rbp
   219b1:	48 89 e5             	mov    rbp,rsp
   219b4:	50                   	push   rax
   219b5:	41 53                	push   r11
   219b7:	41 52                	push   r10
   219b9:	41 51                	push   r9
   219bb:	41 50                	push   r8
   219bd:	57                   	push   rdi
   219be:	56                   	push   rsi
   219bf:	52                   	push   rdx
   219c0:	51                   	push   rcx
   219c1:	48 81 ec 28 01 00 00 	sub    rsp,0x128
   219c8:	44 0f 29 7d a0       	movaps XMMWORD PTR [rbp-0x60],xmm15
   219cd:	44 0f 29 75 90       	movaps XMMWORD PTR [rbp-0x70],xmm14
   219d2:	44 0f 29 6d 80       	movaps XMMWORD PTR [rbp-0x80],xmm13
   219d7:	44 0f 29 a5 70 ff ff 	movaps XMMWORD PTR [rbp-0x90],xmm12
   219de:	ff 
   219df:	44 0f 29 9d 60 ff ff 	movaps XMMWORD PTR [rbp-0xa0],xmm11
   219e6:	ff 
   219e7:	44 0f 29 95 50 ff ff 	movaps XMMWORD PTR [rbp-0xb0],xmm10
   219ee:	ff 
   219ef:	44 0f 29 8d 40 ff ff 	movaps XMMWORD PTR [rbp-0xc0],xmm9
   219f6:	ff 
   219f7:	44 0f 29 85 30 ff ff 	movaps XMMWORD PTR [rbp-0xd0],xmm8
   219fe:	ff 
   219ff:	0f 29 bd 20 ff ff ff 	movaps XMMWORD PTR [rbp-0xe0],xmm7
   21a06:	0f 29 b5 10 ff ff ff 	movaps XMMWORD PTR [rbp-0xf0],xmm6
   21a0d:	0f 29 ad 00 ff ff ff 	movaps XMMWORD PTR [rbp-0x100],xmm5
   21a14:	0f 29 a5 f0 fe ff ff 	movaps XMMWORD PTR [rbp-0x110],xmm4
   21a1b:	0f 29 9d e0 fe ff ff 	movaps XMMWORD PTR [rbp-0x120],xmm3
   21a22:	0f 29 95 d0 fe ff ff 	movaps XMMWORD PTR [rbp-0x130],xmm2
   21a29:	0f 29 8d c0 fe ff ff 	movaps XMMWORD PTR [rbp-0x140],xmm1
   21a30:	0f 29 85 b0 fe ff ff 	movaps XMMWORD PTR [rbp-0x150],xmm0
   21a37:	fc                   	cld    
   21a38:	48 8d 45 08          	lea    rax,[rbp+0x8]
   21a3c:	48 89 85 a8 fe ff ff 	mov    QWORD PTR [rbp-0x158],rax
   21a43:	bf 2c 01 00 00       	mov    edi,0x12c
   21a48:	e8 93 33 ff ff       	call   14de0 <_Z15WriteMandelbroti>
   21a4d:	48 8b 05 54 2f 00 00 	mov    rax,QWORD PTR [rip+0x2f54]        # 249a8 <InterruptMessagePosition>
   21a54:	48 89 85 a0 fe ff ff 	mov    QWORD PTR [rbp-0x160],rax
   21a5b:	c6 85 98 fe ff ff ff 	mov    BYTE PTR [rbp-0x168],0xff
   21a62:	c6 85 99 fe ff ff 00 	mov    BYTE PTR [rbp-0x167],0x0
   21a69:	c6 85 9a fe ff ff 00 	mov    BYTE PTR [rbp-0x166],0x0
   21a70:	48 8b b5 a0 fe ff ff 	mov    rsi,QWORD PTR [rbp-0x160]
   21a77:	8a 85 9a fe ff ff    	mov    al,BYTE PTR [rbp-0x166]
   21a7d:	88 85 96 fe ff ff    	mov    BYTE PTR [rbp-0x16a],al
   21a83:	66 8b 85 98 fe ff ff 	mov    ax,WORD PTR [rbp-0x168]
   21a8a:	66 89 85 94 fe ff ff 	mov    WORD PTR [rbp-0x16c],ax
   21a91:	0f b6 85 96 fe ff ff 	movzx  eax,BYTE PTR [rbp-0x16a]
   21a98:	c1 e0 10             	shl    eax,0x10
   21a9b:	0f b7 95 94 fe ff ff 	movzx  edx,WORD PTR [rbp-0x16c]
   21aa2:	09 c2                	or     edx,eax
   21aa4:	48 8d 3d 7e e9 fe ff 	lea    rdi,[rip+0xfffffffffffee97e]        # 10429 <zeroes.0-0x217>
   21aab:	e8 70 2b ff ff       	call   14620 <_Z9PrintLinePKc6Vector5Color>
   21ab0:	e8 db 23 ff ff       	call   13e90 <_Z4stopv>
   21ab5:	e8 8b ee ff ff       	call   20945 <NotifyEndOfInterrupt>
   21aba:	0f 28 85 b0 fe ff ff 	movaps xmm0,XMMWORD PTR [rbp-0x150]
   21ac1:	0f 28 8d c0 fe ff ff 	movaps xmm1,XMMWORD PTR [rbp-0x140]
   21ac8:	0f 28 95 d0 fe ff ff 	movaps xmm2,XMMWORD PTR [rbp-0x130]
   21acf:	0f 28 9d e0 fe ff ff 	movaps xmm3,XMMWORD PTR [rbp-0x120]
   21ad6:	0f 28 a5 f0 fe ff ff 	movaps xmm4,XMMWORD PTR [rbp-0x110]
   21add:	0f 28 ad 00 ff ff ff 	movaps xmm5,XMMWORD PTR [rbp-0x100]
   21ae4:	0f 28 b5 10 ff ff ff 	movaps xmm6,XMMWORD PTR [rbp-0xf0]
   21aeb:	0f 28 bd 20 ff ff ff 	movaps xmm7,XMMWORD PTR [rbp-0xe0]
   21af2:	44 0f 28 85 30 ff ff 	movaps xmm8,XMMWORD PTR [rbp-0xd0]
   21af9:	ff 
   21afa:	44 0f 28 8d 40 ff ff 	movaps xmm9,XMMWORD PTR [rbp-0xc0]
   21b01:	ff 
   21b02:	44 0f 28 95 50 ff ff 	movaps xmm10,XMMWORD PTR [rbp-0xb0]
   21b09:	ff 
   21b0a:	44 0f 28 9d 60 ff ff 	movaps xmm11,XMMWORD PTR [rbp-0xa0]
   21b11:	ff 
   21b12:	44 0f 28 a5 70 ff ff 	movaps xmm12,XMMWORD PTR [rbp-0x90]
   21b19:	ff 
   21b1a:	44 0f 28 6d 80       	movaps xmm13,XMMWORD PTR [rbp-0x80]
   21b1f:	44 0f 28 75 90       	movaps xmm14,XMMWORD PTR [rbp-0x70]
   21b24:	44 0f 28 7d a0       	movaps xmm15,XMMWORD PTR [rbp-0x60]
   21b29:	48 81 c4 28 01 00 00 	add    rsp,0x128
   21b30:	59                   	pop    rcx
   21b31:	5a                   	pop    rdx
   21b32:	5e                   	pop    rsi
   21b33:	5f                   	pop    rdi
   21b34:	41 58                	pop    r8
   21b36:	41 59                	pop    r9
   21b38:	41 5a                	pop    r10
   21b3a:	41 5b                	pop    r11
   21b3c:	58                   	pop    rax
   21b3d:	5d                   	pop    rbp
   21b3e:	48 cf                	iretq  

0000000000021b40 <_Z18PageFaultInterruptP14InterruptFrame>:
   21b40:	55                   	push   rbp
   21b41:	48 89 e5             	mov    rbp,rsp
   21b44:	50                   	push   rax
   21b45:	41 53                	push   r11
   21b47:	41 52                	push   r10
   21b49:	41 51                	push   r9
   21b4b:	41 50                	push   r8
   21b4d:	57                   	push   rdi
   21b4e:	56                   	push   rsi
   21b4f:	52                   	push   rdx
   21b50:	51                   	push   rcx
   21b51:	48 81 ec 28 01 00 00 	sub    rsp,0x128
   21b58:	44 0f 29 7d a0       	movaps XMMWORD PTR [rbp-0x60],xmm15
   21b5d:	44 0f 29 75 90       	movaps XMMWORD PTR [rbp-0x70],xmm14
   21b62:	44 0f 29 6d 80       	movaps XMMWORD PTR [rbp-0x80],xmm13
   21b67:	44 0f 29 a5 70 ff ff 	movaps XMMWORD PTR [rbp-0x90],xmm12
   21b6e:	ff 
   21b6f:	44 0f 29 9d 60 ff ff 	movaps XMMWORD PTR [rbp-0xa0],xmm11
   21b76:	ff 
   21b77:	44 0f 29 95 50 ff ff 	movaps XMMWORD PTR [rbp-0xb0],xmm10
   21b7e:	ff 
   21b7f:	44 0f 29 8d 40 ff ff 	movaps XMMWORD PTR [rbp-0xc0],xmm9
   21b86:	ff 
   21b87:	44 0f 29 85 30 ff ff 	movaps XMMWORD PTR [rbp-0xd0],xmm8
   21b8e:	ff 
   21b8f:	0f 29 bd 20 ff ff ff 	movaps XMMWORD PTR [rbp-0xe0],xmm7
   21b96:	0f 29 b5 10 ff ff ff 	movaps XMMWORD PTR [rbp-0xf0],xmm6
   21b9d:	0f 29 ad 00 ff ff ff 	movaps XMMWORD PTR [rbp-0x100],xmm5
   21ba4:	0f 29 a5 f0 fe ff ff 	movaps XMMWORD PTR [rbp-0x110],xmm4
   21bab:	0f 29 9d e0 fe ff ff 	movaps XMMWORD PTR [rbp-0x120],xmm3
   21bb2:	0f 29 95 d0 fe ff ff 	movaps XMMWORD PTR [rbp-0x130],xmm2
   21bb9:	0f 29 8d c0 fe ff ff 	movaps XMMWORD PTR [rbp-0x140],xmm1
   21bc0:	0f 29 85 b0 fe ff ff 	movaps XMMWORD PTR [rbp-0x150],xmm0
   21bc7:	fc                   	cld    
   21bc8:	48 8d 45 08          	lea    rax,[rbp+0x8]
   21bcc:	48 89 85 a8 fe ff ff 	mov    QWORD PTR [rbp-0x158],rax
   21bd3:	bf 2c 01 00 00       	mov    edi,0x12c
   21bd8:	e8 03 32 ff ff       	call   14de0 <_Z15WriteMandelbroti>
   21bdd:	48 8b 05 c4 2d 00 00 	mov    rax,QWORD PTR [rip+0x2dc4]        # 249a8 <InterruptMessagePosition>
   21be4:	48 89 85 a0 fe ff ff 	mov    QWORD PTR [rbp-0x160],rax
   21beb:	c6 85 98 fe ff ff ff 	mov    BYTE PTR [rbp-0x168],0xff
   21bf2:	c6 85 99 fe ff ff 00 	mov    BYTE PTR [rbp-0x167],0x0
   21bf9:	c6 85 9a fe ff ff 00 	mov    BYTE PTR [rbp-0x166],0x0
   21c00:	48 8b b5 a0 fe ff ff 	mov    rsi,QWORD PTR [rbp-0x160]
   21c07:	8a 85 9a fe ff ff    	mov    al,BYTE PTR [rbp-0x166]
   21c0d:	88 85 96 fe ff ff    	mov    BYTE PTR [rbp-0x16a],al
   21c13:	66 8b 85 98 fe ff ff 	mov    ax,WORD PTR [rbp-0x168]
   21c1a:	66 89 85 94 fe ff ff 	mov    WORD PTR [rbp-0x16c],ax
   21c21:	0f b6 85 96 fe ff ff 	movzx  eax,BYTE PTR [rbp-0x16a]
   21c28:	c1 e0 10             	shl    eax,0x10
   21c2b:	0f b7 95 94 fe ff ff 	movzx  edx,WORD PTR [rbp-0x16c]
   21c32:	09 c2                	or     edx,eax
   21c34:	48 8d 3d 13 e6 fe ff 	lea    rdi,[rip+0xfffffffffffee613]        # 1024e <zeroes.0-0x3f2>
   21c3b:	e8 e0 29 ff ff       	call   14620 <_Z9PrintLinePKc6Vector5Color>
   21c40:	e8 4b 22 ff ff       	call   13e90 <_Z4stopv>
   21c45:	e8 fb ec ff ff       	call   20945 <NotifyEndOfInterrupt>
   21c4a:	0f 28 85 b0 fe ff ff 	movaps xmm0,XMMWORD PTR [rbp-0x150]
   21c51:	0f 28 8d c0 fe ff ff 	movaps xmm1,XMMWORD PTR [rbp-0x140]
   21c58:	0f 28 95 d0 fe ff ff 	movaps xmm2,XMMWORD PTR [rbp-0x130]
   21c5f:	0f 28 9d e0 fe ff ff 	movaps xmm3,XMMWORD PTR [rbp-0x120]
   21c66:	0f 28 a5 f0 fe ff ff 	movaps xmm4,XMMWORD PTR [rbp-0x110]
   21c6d:	0f 28 ad 00 ff ff ff 	movaps xmm5,XMMWORD PTR [rbp-0x100]
   21c74:	0f 28 b5 10 ff ff ff 	movaps xmm6,XMMWORD PTR [rbp-0xf0]
   21c7b:	0f 28 bd 20 ff ff ff 	movaps xmm7,XMMWORD PTR [rbp-0xe0]
   21c82:	44 0f 28 85 30 ff ff 	movaps xmm8,XMMWORD PTR [rbp-0xd0]
   21c89:	ff 
   21c8a:	44 0f 28 8d 40 ff ff 	movaps xmm9,XMMWORD PTR [rbp-0xc0]
   21c91:	ff 
   21c92:	44 0f 28 95 50 ff ff 	movaps xmm10,XMMWORD PTR [rbp-0xb0]
   21c99:	ff 
   21c9a:	44 0f 28 9d 60 ff ff 	movaps xmm11,XMMWORD PTR [rbp-0xa0]
   21ca1:	ff 
   21ca2:	44 0f 28 a5 70 ff ff 	movaps xmm12,XMMWORD PTR [rbp-0x90]
   21ca9:	ff 
   21caa:	44 0f 28 6d 80       	movaps xmm13,XMMWORD PTR [rbp-0x80]
   21caf:	44 0f 28 75 90       	movaps xmm14,XMMWORD PTR [rbp-0x70]
   21cb4:	44 0f 28 7d a0       	movaps xmm15,XMMWORD PTR [rbp-0x60]
   21cb9:	48 81 c4 28 01 00 00 	add    rsp,0x128
   21cc0:	59                   	pop    rcx
   21cc1:	5a                   	pop    rdx
   21cc2:	5e                   	pop    rsi
   21cc3:	5f                   	pop    rdi
   21cc4:	41 58                	pop    r8
   21cc6:	41 59                	pop    r9
   21cc8:	41 5a                	pop    r10
   21cca:	41 5b                	pop    r11
   21ccc:	58                   	pop    rax
   21ccd:	5d                   	pop    rbp
   21cce:	48 cf                	iretq  

0000000000021cd0 <_Z26GeneralProtectionInterruptP14InterruptFrame>:
   21cd0:	55                   	push   rbp
   21cd1:	48 89 e5             	mov    rbp,rsp
   21cd4:	50                   	push   rax
   21cd5:	41 53                	push   r11
   21cd7:	41 52                	push   r10
   21cd9:	41 51                	push   r9
   21cdb:	41 50                	push   r8
   21cdd:	57                   	push   rdi
   21cde:	56                   	push   rsi
   21cdf:	52                   	push   rdx
   21ce0:	51                   	push   rcx
   21ce1:	48 81 ec 28 01 00 00 	sub    rsp,0x128
   21ce8:	44 0f 29 7d a0       	movaps XMMWORD PTR [rbp-0x60],xmm15
   21ced:	44 0f 29 75 90       	movaps XMMWORD PTR [rbp-0x70],xmm14
   21cf2:	44 0f 29 6d 80       	movaps XMMWORD PTR [rbp-0x80],xmm13
   21cf7:	44 0f 29 a5 70 ff ff 	movaps XMMWORD PTR [rbp-0x90],xmm12
   21cfe:	ff 
   21cff:	44 0f 29 9d 60 ff ff 	movaps XMMWORD PTR [rbp-0xa0],xmm11
   21d06:	ff 
   21d07:	44 0f 29 95 50 ff ff 	movaps XMMWORD PTR [rbp-0xb0],xmm10
   21d0e:	ff 
   21d0f:	44 0f 29 8d 40 ff ff 	movaps XMMWORD PTR [rbp-0xc0],xmm9
   21d16:	ff 
   21d17:	44 0f 29 85 30 ff ff 	movaps XMMWORD PTR [rbp-0xd0],xmm8
   21d1e:	ff 
   21d1f:	0f 29 bd 20 ff ff ff 	movaps XMMWORD PTR [rbp-0xe0],xmm7
   21d26:	0f 29 b5 10 ff ff ff 	movaps XMMWORD PTR [rbp-0xf0],xmm6
   21d2d:	0f 29 ad 00 ff ff ff 	movaps XMMWORD PTR [rbp-0x100],xmm5
   21d34:	0f 29 a5 f0 fe ff ff 	movaps XMMWORD PTR [rbp-0x110],xmm4
   21d3b:	0f 29 9d e0 fe ff ff 	movaps XMMWORD PTR [rbp-0x120],xmm3
   21d42:	0f 29 95 d0 fe ff ff 	movaps XMMWORD PTR [rbp-0x130],xmm2
   21d49:	0f 29 8d c0 fe ff ff 	movaps XMMWORD PTR [rbp-0x140],xmm1
   21d50:	0f 29 85 b0 fe ff ff 	movaps XMMWORD PTR [rbp-0x150],xmm0
   21d57:	fc                   	cld    
   21d58:	48 8d 45 08          	lea    rax,[rbp+0x8]
   21d5c:	48 89 85 a8 fe ff ff 	mov    QWORD PTR [rbp-0x158],rax
   21d63:	bf 2c 01 00 00       	mov    edi,0x12c
   21d68:	e8 73 30 ff ff       	call   14de0 <_Z15WriteMandelbroti>
   21d6d:	48 8b 05 34 2c 00 00 	mov    rax,QWORD PTR [rip+0x2c34]        # 249a8 <InterruptMessagePosition>
   21d74:	48 89 85 a0 fe ff ff 	mov    QWORD PTR [rbp-0x160],rax
   21d7b:	c6 85 98 fe ff ff ff 	mov    BYTE PTR [rbp-0x168],0xff
   21d82:	c6 85 99 fe ff ff 00 	mov    BYTE PTR [rbp-0x167],0x0
   21d89:	c6 85 9a fe ff ff 00 	mov    BYTE PTR [rbp-0x166],0x0
   21d90:	48 8b b5 a0 fe ff ff 	mov    rsi,QWORD PTR [rbp-0x160]
   21d97:	8a 85 9a fe ff ff    	mov    al,BYTE PTR [rbp-0x166]
   21d9d:	88 85 96 fe ff ff    	mov    BYTE PTR [rbp-0x16a],al
   21da3:	66 8b 85 98 fe ff ff 	mov    ax,WORD PTR [rbp-0x168]
   21daa:	66 89 85 94 fe ff ff 	mov    WORD PTR [rbp-0x16c],ax
   21db1:	0f b6 85 96 fe ff ff 	movzx  eax,BYTE PTR [rbp-0x16a]
   21db8:	c1 e0 10             	shl    eax,0x10
   21dbb:	0f b7 95 94 fe ff ff 	movzx  edx,WORD PTR [rbp-0x16c]
   21dc2:	09 c2                	or     edx,eax
   21dc4:	48 8d 3d e9 e4 fe ff 	lea    rdi,[rip+0xfffffffffffee4e9]        # 102b4 <zeroes.0-0x38c>
   21dcb:	e8 50 28 ff ff       	call   14620 <_Z9PrintLinePKc6Vector5Color>
   21dd0:	e8 bb 20 ff ff       	call   13e90 <_Z4stopv>
   21dd5:	e8 6b eb ff ff       	call   20945 <NotifyEndOfInterrupt>
   21dda:	0f 28 85 b0 fe ff ff 	movaps xmm0,XMMWORD PTR [rbp-0x150]
   21de1:	0f 28 8d c0 fe ff ff 	movaps xmm1,XMMWORD PTR [rbp-0x140]
   21de8:	0f 28 95 d0 fe ff ff 	movaps xmm2,XMMWORD PTR [rbp-0x130]
   21def:	0f 28 9d e0 fe ff ff 	movaps xmm3,XMMWORD PTR [rbp-0x120]
   21df6:	0f 28 a5 f0 fe ff ff 	movaps xmm4,XMMWORD PTR [rbp-0x110]
   21dfd:	0f 28 ad 00 ff ff ff 	movaps xmm5,XMMWORD PTR [rbp-0x100]
   21e04:	0f 28 b5 10 ff ff ff 	movaps xmm6,XMMWORD PTR [rbp-0xf0]
   21e0b:	0f 28 bd 20 ff ff ff 	movaps xmm7,XMMWORD PTR [rbp-0xe0]
   21e12:	44 0f 28 85 30 ff ff 	movaps xmm8,XMMWORD PTR [rbp-0xd0]
   21e19:	ff 
   21e1a:	44 0f 28 8d 40 ff ff 	movaps xmm9,XMMWORD PTR [rbp-0xc0]
   21e21:	ff 
   21e22:	44 0f 28 95 50 ff ff 	movaps xmm10,XMMWORD PTR [rbp-0xb0]
   21e29:	ff 
   21e2a:	44 0f 28 9d 60 ff ff 	movaps xmm11,XMMWORD PTR [rbp-0xa0]
   21e31:	ff 
   21e32:	44 0f 28 a5 70 ff ff 	movaps xmm12,XMMWORD PTR [rbp-0x90]
   21e39:	ff 
   21e3a:	44 0f 28 6d 80       	movaps xmm13,XMMWORD PTR [rbp-0x80]
   21e3f:	44 0f 28 75 90       	movaps xmm14,XMMWORD PTR [rbp-0x70]
   21e44:	44 0f 28 7d a0       	movaps xmm15,XMMWORD PTR [rbp-0x60]
   21e49:	48 81 c4 28 01 00 00 	add    rsp,0x128
   21e50:	59                   	pop    rcx
   21e51:	5a                   	pop    rdx
   21e52:	5e                   	pop    rsi
   21e53:	5f                   	pop    rdi
   21e54:	41 58                	pop    r8
   21e56:	41 59                	pop    r9
   21e58:	41 5a                	pop    r10
   21e5a:	41 5b                	pop    r11
   21e5c:	58                   	pop    rax
   21e5d:	5d                   	pop    rbp
   21e5e:	48 cf                	iretq  

0000000000021e60 <_Z17KeyboardInterruptP14InterruptFrame>:
   21e60:	55                   	push   rbp
   21e61:	48 89 e5             	mov    rbp,rsp
   21e64:	50                   	push   rax
   21e65:	41 53                	push   r11
   21e67:	41 52                	push   r10
   21e69:	41 51                	push   r9
   21e6b:	41 50                	push   r8
   21e6d:	57                   	push   rdi
   21e6e:	56                   	push   rsi
   21e6f:	52                   	push   rdx
   21e70:	51                   	push   rcx
   21e71:	48 81 ec 18 01 00 00 	sub    rsp,0x118
   21e78:	44 0f 29 7d a0       	movaps XMMWORD PTR [rbp-0x60],xmm15
   21e7d:	44 0f 29 75 90       	movaps XMMWORD PTR [rbp-0x70],xmm14
   21e82:	44 0f 29 6d 80       	movaps XMMWORD PTR [rbp-0x80],xmm13
   21e87:	44 0f 29 a5 70 ff ff 	movaps XMMWORD PTR [rbp-0x90],xmm12
   21e8e:	ff 
   21e8f:	44 0f 29 9d 60 ff ff 	movaps XMMWORD PTR [rbp-0xa0],xmm11
   21e96:	ff 
   21e97:	44 0f 29 95 50 ff ff 	movaps XMMWORD PTR [rbp-0xb0],xmm10
   21e9e:	ff 
   21e9f:	44 0f 29 8d 40 ff ff 	movaps XMMWORD PTR [rbp-0xc0],xmm9
   21ea6:	ff 
   21ea7:	44 0f 29 85 30 ff ff 	movaps XMMWORD PTR [rbp-0xd0],xmm8
   21eae:	ff 
   21eaf:	0f 29 bd 20 ff ff ff 	movaps XMMWORD PTR [rbp-0xe0],xmm7
   21eb6:	0f 29 b5 10 ff ff ff 	movaps XMMWORD PTR [rbp-0xf0],xmm6
   21ebd:	0f 29 ad 00 ff ff ff 	movaps XMMWORD PTR [rbp-0x100],xmm5
   21ec4:	0f 29 a5 f0 fe ff ff 	movaps XMMWORD PTR [rbp-0x110],xmm4
   21ecb:	0f 29 9d e0 fe ff ff 	movaps XMMWORD PTR [rbp-0x120],xmm3
   21ed2:	0f 29 95 d0 fe ff ff 	movaps XMMWORD PTR [rbp-0x130],xmm2
   21ed9:	0f 29 8d c0 fe ff ff 	movaps XMMWORD PTR [rbp-0x140],xmm1
   21ee0:	0f 29 85 b0 fe ff ff 	movaps XMMWORD PTR [rbp-0x150],xmm0
   21ee7:	fc                   	cld    
   21ee8:	48 8d 45 08          	lea    rax,[rbp+0x8]
   21eec:	48 89 85 a8 fe ff ff 	mov    QWORD PTR [rbp-0x158],rax
   21ef3:	bf 20 00 00 00       	mov    edi,0x20
   21ef8:	be 61 00 00 00       	mov    esi,0x61
   21efd:	e8 c0 e9 ff ff       	call   208c2 <IoOut8>
   21f02:	bf 60 00 00 00       	mov    edi,0x60
   21f07:	e8 be e9 ff ff       	call   208ca <IoIn8>
   21f0c:	0f b6 c0             	movzx  eax,al
   21f0f:	89 85 a4 fe ff ff    	mov    DWORD PTR [rbp-0x15c],eax
   21f15:	83 bd a4 fe ff ff 2a 	cmp    DWORD PTR [rbp-0x15c],0x2a
   21f1c:	0f 84 0d 00 00 00    	je     21f2f <_Z17KeyboardInterruptP14InterruptFrame+0xcf>
   21f22:	83 bd a4 fe ff ff 36 	cmp    DWORD PTR [rbp-0x15c],0x36
   21f29:	0f 85 0c 00 00 00    	jne    21f3b <_Z17KeyboardInterruptP14InterruptFrame+0xdb>
   21f2f:	c6 05 aa 9a 10 00 01 	mov    BYTE PTR [rip+0x109aaa],0x1        # 12b9e0 <_ZZ17KeyboardInterruptP14InterruptFrameE7isShift>
   21f36:	e9 a2 00 00 00       	jmp    21fdd <_Z17KeyboardInterruptP14InterruptFrame+0x17d>
   21f3b:	81 bd a4 fe ff ff ab 	cmp    DWORD PTR [rbp-0x15c],0xab
   21f42:	00 00 00 
   21f45:	0f 84 10 00 00 00    	je     21f5b <_Z17KeyboardInterruptP14InterruptFrame+0xfb>
   21f4b:	81 bd a4 fe ff ff b6 	cmp    DWORD PTR [rbp-0x15c],0xb6
   21f52:	00 00 00 
   21f55:	0f 85 0c 00 00 00    	jne    21f67 <_Z17KeyboardInterruptP14InterruptFrame+0x107>
   21f5b:	c6 05 7e 9a 10 00 00 	mov    BYTE PTR [rip+0x109a7e],0x0        # 12b9e0 <_ZZ17KeyboardInterruptP14InterruptFrameE7isShift>
   21f62:	e9 76 00 00 00       	jmp    21fdd <_Z17KeyboardInterruptP14InterruptFrame+0x17d>
   21f67:	8b 85 a4 fe ff ff    	mov    eax,DWORD PTR [rbp-0x15c]
   21f6d:	89 c1                	mov    ecx,eax
   21f6f:	48 8d 05 3a 2a 00 00 	lea    rax,[rip+0x2a3a]        # 249b0 <keycode>
   21f76:	8a 04 08             	mov    al,BYTE PTR [rax+rcx*1]
   21f79:	88 85 a3 fe ff ff    	mov    BYTE PTR [rbp-0x15d],al
   21f7f:	0f be bd a3 fe ff ff 	movsx  edi,BYTE PTR [rbp-0x15d]
   21f86:	e8 55 04 00 00       	call   223e0 <_Z10isAlphabetc>
   21f8b:	a8 01                	test   al,0x1
   21f8d:	0f 85 05 00 00 00    	jne    21f98 <_Z17KeyboardInterruptP14InterruptFrame+0x138>
   21f93:	e9 1d 00 00 00       	jmp    21fb5 <_Z17KeyboardInterruptP14InterruptFrame+0x155>
   21f98:	f6 05 41 9a 10 00 01 	test   BYTE PTR [rip+0x109a41],0x1        # 12b9e0 <_ZZ17KeyboardInterruptP14InterruptFrameE7isShift>
   21f9f:	0f 84 10 00 00 00    	je     21fb5 <_Z17KeyboardInterruptP14InterruptFrame+0x155>
   21fa5:	0f b6 85 a3 fe ff ff 	movzx  eax,BYTE PTR [rbp-0x15d]
   21fac:	83 e8 20             	sub    eax,0x20
   21faf:	88 85 a3 fe ff ff    	mov    BYTE PTR [rbp-0x15d],al
   21fb5:	81 bd a4 fe ff ff 80 	cmp    DWORD PTR [rbp-0x15c],0x80
   21fbc:	00 00 00 
   21fbf:	0f 83 13 00 00 00    	jae    21fd8 <_Z17KeyboardInterruptP14InterruptFrame+0x178>
   21fc5:	48 8d 3d 34 30 10 00 	lea    rdi,[rip+0x103034]        # 125000 <Input_Buffer>
   21fcc:	0f be b5 a3 fe ff ff 	movsx  esi,BYTE PTR [rbp-0x15d]
   21fd3:	e8 28 07 00 00       	call   22700 <_ZN11InputBuffer3addEc>
   21fd8:	e8 68 e9 ff ff       	call   20945 <NotifyEndOfInterrupt>
   21fdd:	0f 28 85 b0 fe ff ff 	movaps xmm0,XMMWORD PTR [rbp-0x150]
   21fe4:	0f 28 8d c0 fe ff ff 	movaps xmm1,XMMWORD PTR [rbp-0x140]
   21feb:	0f 28 95 d0 fe ff ff 	movaps xmm2,XMMWORD PTR [rbp-0x130]
   21ff2:	0f 28 9d e0 fe ff ff 	movaps xmm3,XMMWORD PTR [rbp-0x120]
   21ff9:	0f 28 a5 f0 fe ff ff 	movaps xmm4,XMMWORD PTR [rbp-0x110]
   22000:	0f 28 ad 00 ff ff ff 	movaps xmm5,XMMWORD PTR [rbp-0x100]
   22007:	0f 28 b5 10 ff ff ff 	movaps xmm6,XMMWORD PTR [rbp-0xf0]
   2200e:	0f 28 bd 20 ff ff ff 	movaps xmm7,XMMWORD PTR [rbp-0xe0]
   22015:	44 0f 28 85 30 ff ff 	movaps xmm8,XMMWORD PTR [rbp-0xd0]
   2201c:	ff 
   2201d:	44 0f 28 8d 40 ff ff 	movaps xmm9,XMMWORD PTR [rbp-0xc0]
   22024:	ff 
   22025:	44 0f 28 95 50 ff ff 	movaps xmm10,XMMWORD PTR [rbp-0xb0]
   2202c:	ff 
   2202d:	44 0f 28 9d 60 ff ff 	movaps xmm11,XMMWORD PTR [rbp-0xa0]
   22034:	ff 
   22035:	44 0f 28 a5 70 ff ff 	movaps xmm12,XMMWORD PTR [rbp-0x90]
   2203c:	ff 
   2203d:	44 0f 28 6d 80       	movaps xmm13,XMMWORD PTR [rbp-0x80]
   22042:	44 0f 28 75 90       	movaps xmm14,XMMWORD PTR [rbp-0x70]
   22047:	44 0f 28 7d a0       	movaps xmm15,XMMWORD PTR [rbp-0x60]
   2204c:	48 81 c4 18 01 00 00 	add    rsp,0x118
   22053:	59                   	pop    rcx
   22054:	5a                   	pop    rdx
   22055:	5e                   	pop    rsi
   22056:	5f                   	pop    rdi
   22057:	41 58                	pop    r8
   22059:	41 59                	pop    r9
   2205b:	41 5a                	pop    r10
   2205d:	41 5b                	pop    r11
   2205f:	58                   	pop    rax
   22060:	5d                   	pop    rbp
   22061:	48 cf                	iretq  
   22063:	66 2e 0f 1f 84 00 00 	cs nop WORD PTR [rax+rax*1+0x0]
   2206a:	00 00 00 
   2206d:	0f 1f 00             	nop    DWORD PTR [rax]

0000000000022070 <_Z16DefaultInterruptP14InterruptFrame>:
   22070:	55                   	push   rbp
   22071:	48 89 e5             	mov    rbp,rsp
   22074:	48 83 ec 20          	sub    rsp,0x20
   22078:	48 89 7d f8          	mov    QWORD PTR [rbp-0x8],rdi
   2207c:	bf 2c 01 00 00       	mov    edi,0x12c
   22081:	e8 5a 2d ff ff       	call   14de0 <_Z15WriteMandelbroti>
   22086:	48 8b 05 1b 29 00 00 	mov    rax,QWORD PTR [rip+0x291b]        # 249a8 <InterruptMessagePosition>
   2208d:	48 89 45 f0          	mov    QWORD PTR [rbp-0x10],rax
   22091:	c6 45 e8 ff          	mov    BYTE PTR [rbp-0x18],0xff
   22095:	c6 45 e9 00          	mov    BYTE PTR [rbp-0x17],0x0
   22099:	c6 45 ea 00          	mov    BYTE PTR [rbp-0x16],0x0
   2209d:	48 8b 75 f0          	mov    rsi,QWORD PTR [rbp-0x10]
   220a1:	8a 45 ea             	mov    al,BYTE PTR [rbp-0x16]
   220a4:	88 45 e6             	mov    BYTE PTR [rbp-0x1a],al
   220a7:	66 8b 45 e8          	mov    ax,WORD PTR [rbp-0x18]
   220ab:	66 89 45 e4          	mov    WORD PTR [rbp-0x1c],ax
   220af:	0f b6 45 e6          	movzx  eax,BYTE PTR [rbp-0x1a]
   220b3:	c1 e0 10             	shl    eax,0x10
   220b6:	0f b7 55 e4          	movzx  edx,WORD PTR [rbp-0x1c]
   220ba:	09 c2                	or     edx,eax
   220bc:	48 8d 3d cf e2 fe ff 	lea    rdi,[rip+0xfffffffffffee2cf]        # 10392 <zeroes.0-0x2ae>
   220c3:	e8 58 25 ff ff       	call   14620 <_Z9PrintLinePKc6Vector5Color>
   220c8:	e8 c3 1d ff ff       	call   13e90 <_Z4stopv>
   220cd:	e8 73 e8 ff ff       	call   20945 <NotifyEndOfInterrupt>
   220d2:	48 83 c4 20          	add    rsp,0x20
   220d6:	5d                   	pop    rbp
   220d7:	c3                   	ret    
   220d8:	0f 1f 84 00 00 00 00 	nop    DWORD PTR [rax+rax*1+0x0]
   220df:	00 

00000000000220e0 <_Z11SetIDTEntryP19InterruptDescriptor28InterruptDescriptorAttributemm>:
   220e0:	55                   	push   rbp
   220e1:	48 89 e5             	mov    rbp,rsp
   220e4:	48 83 ec 20          	sub    rsp,0x20
   220e8:	66 89 f0             	mov    ax,si
   220eb:	66 89 45 f8          	mov    WORD PTR [rbp-0x8],ax
   220ef:	48 89 7d f0          	mov    QWORD PTR [rbp-0x10],rdi
   220f3:	48 89 55 e8          	mov    QWORD PTR [rbp-0x18],rdx
   220f7:	48 89 4d e0          	mov    QWORD PTR [rbp-0x20],rcx
   220fb:	48 8b 45 f0          	mov    rax,QWORD PTR [rbp-0x10]
   220ff:	66 8b 4d f8          	mov    cx,WORD PTR [rbp-0x8]
   22103:	66 89 48 04          	mov    WORD PTR [rax+0x4],cx
   22107:	48 8b 45 e8          	mov    rax,QWORD PTR [rbp-0x18]
   2210b:	48 25 ff ff 00 00    	and    rax,0xffff
   22111:	66 89 c1             	mov    cx,ax
   22114:	48 8b 45 f0          	mov    rax,QWORD PTR [rbp-0x10]
   22118:	66 89 08             	mov    WORD PTR [rax],cx
   2211b:	48 8b 45 e8          	mov    rax,QWORD PTR [rbp-0x18]
   2211f:	48 c1 e8 10          	shr    rax,0x10
   22123:	48 25 ff 00 00 00    	and    rax,0xff
   22129:	66 89 c1             	mov    cx,ax
   2212c:	48 8b 45 f0          	mov    rax,QWORD PTR [rbp-0x10]
   22130:	66 89 48 06          	mov    WORD PTR [rax+0x6],cx
   22134:	48 8b 45 e8          	mov    rax,QWORD PTR [rbp-0x18]
   22138:	48 c1 e8 20          	shr    rax,0x20
   2213c:	89 c1                	mov    ecx,eax
   2213e:	48 8b 45 f0          	mov    rax,QWORD PTR [rbp-0x10]
   22142:	89 48 08             	mov    DWORD PTR [rax+0x8],ecx
   22145:	48 8b 45 e0          	mov    rax,QWORD PTR [rbp-0x20]
   22149:	66 89 c1             	mov    cx,ax
   2214c:	48 8b 45 f0          	mov    rax,QWORD PTR [rbp-0x10]
   22150:	66 89 48 02          	mov    WORD PTR [rax+0x2],cx
   22154:	48 83 c4 20          	add    rsp,0x20
   22158:	5d                   	pop    rbp
   22159:	c3                   	ret    
   2215a:	66 0f 1f 44 00 00    	nop    WORD PTR [rax+rax*1+0x0]

0000000000022160 <_Z13InitializePICv>:
   22160:	55                   	push   rbp
   22161:	48 89 e5             	mov    rbp,rsp
   22164:	bf 21 00 00 00       	mov    edi,0x21
   22169:	be ff 00 00 00       	mov    esi,0xff
   2216e:	e8 4f e7 ff ff       	call   208c2 <IoOut8>
   22173:	bf a1 00 00 00       	mov    edi,0xa1
   22178:	be ff 00 00 00       	mov    esi,0xff
   2217d:	e8 40 e7 ff ff       	call   208c2 <IoOut8>
   22182:	bf 20 00 00 00       	mov    edi,0x20
   22187:	be 11 00 00 00       	mov    esi,0x11
   2218c:	e8 31 e7 ff ff       	call   208c2 <IoOut8>
   22191:	bf 21 00 00 00       	mov    edi,0x21
   22196:	be 20 00 00 00       	mov    esi,0x20
   2219b:	e8 22 e7 ff ff       	call   208c2 <IoOut8>
   221a0:	bf 21 00 00 00       	mov    edi,0x21
   221a5:	be 04 00 00 00       	mov    esi,0x4
   221aa:	e8 13 e7 ff ff       	call   208c2 <IoOut8>
   221af:	bf 21 00 00 00       	mov    edi,0x21
   221b4:	be 01 00 00 00       	mov    esi,0x1
   221b9:	e8 04 e7 ff ff       	call   208c2 <IoOut8>
   221be:	bf a0 00 00 00       	mov    edi,0xa0
   221c3:	be 11 00 00 00       	mov    esi,0x11
   221c8:	e8 f5 e6 ff ff       	call   208c2 <IoOut8>
   221cd:	bf a1 00 00 00       	mov    edi,0xa1
   221d2:	be 28 00 00 00       	mov    esi,0x28
   221d7:	e8 e6 e6 ff ff       	call   208c2 <IoOut8>
   221dc:	bf a1 00 00 00       	mov    edi,0xa1
   221e1:	be 02 00 00 00       	mov    esi,0x2
   221e6:	e8 d7 e6 ff ff       	call   208c2 <IoOut8>
   221eb:	bf a1 00 00 00       	mov    edi,0xa1
   221f0:	be 01 00 00 00       	mov    esi,0x1
   221f5:	e8 c8 e6 ff ff       	call   208c2 <IoOut8>
   221fa:	bf 21 00 00 00       	mov    edi,0x21
   221ff:	be f9 00 00 00       	mov    esi,0xf9
   22204:	e8 b9 e6 ff ff       	call   208c2 <IoOut8>
   22209:	bf a1 00 00 00       	mov    edi,0xa1
   2220e:	be f7 00 00 00       	mov    esi,0xf7
   22213:	e8 aa e6 ff ff       	call   208c2 <IoOut8>
   22218:	5d                   	pop    rbp
   22219:	c3                   	ret    
   2221a:	66 0f 1f 44 00 00    	nop    WORD PTR [rax+rax*1+0x0]

0000000000022220 <_Z19InitializeInterruptv>:
   22220:	55                   	push   rbp
   22221:	48 89 e5             	mov    rbp,rsp
   22224:	48 83 ec 40          	sub    rsp,0x40
   22228:	e8 f4 e6 ff ff       	call   20921 <GetCS>
   2222d:	66 89 45 fe          	mov    WORD PTR [rbp-0x2],ax
   22231:	c7 45 f8 00 00 00 00 	mov    DWORD PTR [rbp-0x8],0x0
   22238:	81 7d f8 00 01 00 00 	cmp    DWORD PTR [rbp-0x8],0x100
   2223f:	0f 8d 55 00 00 00    	jge    2229a <_Z19InitializeInterruptv+0x7a>
   22245:	48 63 4d f8          	movsxd rcx,DWORD PTR [rbp-0x8]
   22249:	48 8d 05 90 87 10 00 	lea    rax,[rip+0x108790]        # 12a9e0 <idt>
   22250:	48 c1 e1 04          	shl    rcx,0x4
   22254:	48 01 c8             	add    rax,rcx
   22257:	48 89 45 c0          	mov    QWORD PTR [rbp-0x40],rax
   2225b:	bf 0e 00 00 00       	mov    edi,0xe
   22260:	31 c9                	xor    ecx,ecx
   22262:	ba 01 00 00 00       	mov    edx,0x1
   22267:	89 ce                	mov    esi,ecx
   22269:	e8 d2 01 00 00       	call   22440 <_Z11MakeIDTAttr14DescriptorTypehbh>
   2226e:	48 8b 7d c0          	mov    rdi,QWORD PTR [rbp-0x40]
   22272:	66 89 45 f0          	mov    WORD PTR [rbp-0x10],ax
   22276:	0f b7 45 fe          	movzx  eax,WORD PTR [rbp-0x2]
   2227a:	89 c1                	mov    ecx,eax
   2227c:	48 8d 15 ed fd ff ff 	lea    rdx,[rip+0xfffffffffffffded]        # 22070 <_Z16DefaultInterruptP14InterruptFrame>
   22283:	0f b7 75 f0          	movzx  esi,WORD PTR [rbp-0x10]
   22287:	e8 54 fe ff ff       	call   220e0 <_Z11SetIDTEntryP19InterruptDescriptor28InterruptDescriptorAttributemm>
   2228c:	8b 45 f8             	mov    eax,DWORD PTR [rbp-0x8]
   2228f:	83 c0 01             	add    eax,0x1
   22292:	89 45 f8             	mov    DWORD PTR [rbp-0x8],eax
   22295:	e9 9e ff ff ff       	jmp    22238 <_Z19InitializeInterruptv+0x18>
   2229a:	bf 0e 00 00 00       	mov    edi,0xe
   2229f:	31 c9                	xor    ecx,ecx
   222a1:	ba 01 00 00 00       	mov    edx,0x1
   222a6:	89 ce                	mov    esi,ecx
   222a8:	e8 93 01 00 00       	call   22440 <_Z11MakeIDTAttr14DescriptorTypehbh>
   222ad:	66 89 45 e8          	mov    WORD PTR [rbp-0x18],ax
   222b1:	0f b7 45 fe          	movzx  eax,WORD PTR [rbp-0x2]
   222b5:	89 c1                	mov    ecx,eax
   222b7:	48 8d 3d 22 87 10 00 	lea    rdi,[rip+0x108722]        # 12a9e0 <idt>
   222be:	48 83 c7 30          	add    rdi,0x30
   222c2:	48 8d 15 37 f5 ff ff 	lea    rdx,[rip+0xfffffffffffff537]        # 21800 <_Z19BreakpointInterruptP14InterruptFrame>
   222c9:	0f b7 75 e8          	movzx  esi,WORD PTR [rbp-0x18]
   222cd:	e8 0e fe ff ff       	call   220e0 <_Z11SetIDTEntryP19InterruptDescriptor28InterruptDescriptorAttributemm>
   222d2:	bf 0e 00 00 00       	mov    edi,0xe
   222d7:	31 c9                	xor    ecx,ecx
   222d9:	ba 01 00 00 00       	mov    edx,0x1
   222de:	89 ce                	mov    esi,ecx
   222e0:	e8 5b 01 00 00       	call   22440 <_Z11MakeIDTAttr14DescriptorTypehbh>
   222e5:	66 89 45 e0          	mov    WORD PTR [rbp-0x20],ax
   222e9:	0f b7 45 fe          	movzx  eax,WORD PTR [rbp-0x2]
   222ed:	89 c1                	mov    ecx,eax
   222ef:	48 8d 3d ea 86 10 00 	lea    rdi,[rip+0x1086ea]        # 12a9e0 <idt>
   222f6:	48 81 c7 10 02 00 00 	add    rdi,0x210
   222fd:	48 8d 15 5c fb ff ff 	lea    rdx,[rip+0xfffffffffffffb5c]        # 21e60 <_Z17KeyboardInterruptP14InterruptFrame>
   22304:	0f b7 75 e0          	movzx  esi,WORD PTR [rbp-0x20]
   22308:	e8 d3 fd ff ff       	call   220e0 <_Z11SetIDTEntryP19InterruptDescriptor28InterruptDescriptorAttributemm>
   2230d:	bf 0e 00 00 00       	mov    edi,0xe
   22312:	31 c9                	xor    ecx,ecx
   22314:	ba 01 00 00 00       	mov    edx,0x1
   22319:	89 ce                	mov    esi,ecx
   2231b:	e8 20 01 00 00       	call   22440 <_Z11MakeIDTAttr14DescriptorTypehbh>
   22320:	66 89 45 d8          	mov    WORD PTR [rbp-0x28],ax
   22324:	0f b7 45 fe          	movzx  eax,WORD PTR [rbp-0x2]
   22328:	89 c1                	mov    ecx,eax
   2232a:	48 8d 3d af 86 10 00 	lea    rdi,[rip+0x1086af]        # 12a9e0 <idt>
   22331:	48 81 c7 c0 00 00 00 	add    rdi,0xc0
   22338:	48 8d 15 71 f6 ff ff 	lea    rdx,[rip+0xfffffffffffff671]        # 219b0 <_Z17SegFaultInterruptP14InterruptFrame>
   2233f:	0f b7 75 d8          	movzx  esi,WORD PTR [rbp-0x28]
   22343:	e8 98 fd ff ff       	call   220e0 <_Z11SetIDTEntryP19InterruptDescriptor28InterruptDescriptorAttributemm>
   22348:	bf 0e 00 00 00       	mov    edi,0xe
   2234d:	31 c9                	xor    ecx,ecx
   2234f:	ba 01 00 00 00       	mov    edx,0x1
   22354:	89 ce                	mov    esi,ecx
   22356:	e8 e5 00 00 00       	call   22440 <_Z11MakeIDTAttr14DescriptorTypehbh>
   2235b:	66 89 45 d0          	mov    WORD PTR [rbp-0x30],ax
   2235f:	0f b7 45 fe          	movzx  eax,WORD PTR [rbp-0x2]
   22363:	89 c1                	mov    ecx,eax
   22365:	48 8d 3d 74 86 10 00 	lea    rdi,[rip+0x108674]        # 12a9e0 <idt>
   2236c:	48 81 c7 d0 00 00 00 	add    rdi,0xd0
   22373:	48 8d 15 56 f9 ff ff 	lea    rdx,[rip+0xfffffffffffff956]        # 21cd0 <_Z26GeneralProtectionInterruptP14InterruptFrame>
   2237a:	0f b7 75 d0          	movzx  esi,WORD PTR [rbp-0x30]
   2237e:	e8 5d fd ff ff       	call   220e0 <_Z11SetIDTEntryP19InterruptDescriptor28InterruptDescriptorAttributemm>
   22383:	bf 0e 00 00 00       	mov    edi,0xe
   22388:	31 c9                	xor    ecx,ecx
   2238a:	ba 01 00 00 00       	mov    edx,0x1
   2238f:	89 ce                	mov    esi,ecx
   22391:	e8 aa 00 00 00       	call   22440 <_Z11MakeIDTAttr14DescriptorTypehbh>
   22396:	66 89 45 c8          	mov    WORD PTR [rbp-0x38],ax
   2239a:	0f b7 45 fe          	movzx  eax,WORD PTR [rbp-0x2]
   2239e:	89 c1                	mov    ecx,eax
   223a0:	48 8d 3d 39 86 10 00 	lea    rdi,[rip+0x108639]        # 12a9e0 <idt>
   223a7:	48 81 c7 e0 00 00 00 	add    rdi,0xe0
   223ae:	48 8d 15 8b f7 ff ff 	lea    rdx,[rip+0xfffffffffffff78b]        # 21b40 <_Z18PageFaultInterruptP14InterruptFrame>
   223b5:	0f b7 75 c8          	movzx  esi,WORD PTR [rbp-0x38]
   223b9:	e8 22 fd ff ff       	call   220e0 <_Z11SetIDTEntryP19InterruptDescriptor28InterruptDescriptorAttributemm>
   223be:	bf ff 0f 00 00       	mov    edi,0xfff
   223c3:	48 8d 35 16 86 10 00 	lea    rsi,[rip+0x108616]        # 12a9e0 <idt>
   223ca:	e8 58 e5 ff ff       	call   20927 <LoadIDT>
   223cf:	48 83 c4 40          	add    rsp,0x40
   223d3:	5d                   	pop    rbp
   223d4:	c3                   	ret    
   223d5:	cc                   	int3   
   223d6:	cc                   	int3   
   223d7:	cc                   	int3   
   223d8:	cc                   	int3   
   223d9:	cc                   	int3   
   223da:	cc                   	int3   
   223db:	cc                   	int3   
   223dc:	cc                   	int3   
   223dd:	cc                   	int3   
   223de:	cc                   	int3   
   223df:	cc                   	int3   

00000000000223e0 <_Z10isAlphabetc>:
   223e0:	55                   	push   rbp
   223e1:	48 89 e5             	mov    rbp,rsp
   223e4:	48 83 ec 03          	sub    rsp,0x3
   223e8:	40 88 f8             	mov    al,dil
   223eb:	88 45 ff             	mov    BYTE PTR [rbp-0x1],al
   223ee:	0f be 45 ff          	movsx  eax,BYTE PTR [rbp-0x1]
   223f2:	83 f8 61             	cmp    eax,0x61
   223f5:	0f 8c 12 00 00 00    	jl     2240d <_Z10isAlphabetc+0x2d>
   223fb:	0f be 4d ff          	movsx  ecx,BYTE PTR [rbp-0x1]
   223ff:	b0 01                	mov    al,0x1
   22401:	83 f9 7a             	cmp    ecx,0x7a
   22404:	88 45 fe             	mov    BYTE PTR [rbp-0x2],al
   22407:	0f 8e 25 00 00 00    	jle    22432 <_Z10isAlphabetc+0x52>
   2240d:	0f be 4d ff          	movsx  ecx,BYTE PTR [rbp-0x1]
   22411:	31 c0                	xor    eax,eax
   22413:	83 f9 41             	cmp    ecx,0x41
   22416:	88 45 fd             	mov    BYTE PTR [rbp-0x3],al
   22419:	0f 8f 0d 00 00 00    	jg     2242c <_Z10isAlphabetc+0x4c>
   2241f:	0f be 45 ff          	movsx  eax,BYTE PTR [rbp-0x1]
   22423:	83 f8 5a             	cmp    eax,0x5a
   22426:	0f 9d c0             	setge  al
   22429:	88 45 fd             	mov    BYTE PTR [rbp-0x3],al
   2242c:	8a 45 fd             	mov    al,BYTE PTR [rbp-0x3]
   2242f:	88 45 fe             	mov    BYTE PTR [rbp-0x2],al
   22432:	8a 45 fe             	mov    al,BYTE PTR [rbp-0x2]
   22435:	24 01                	and    al,0x1
   22437:	0f b6 c0             	movzx  eax,al
   2243a:	48 83 c4 03          	add    rsp,0x3
   2243e:	5d                   	pop    rbp
   2243f:	c3                   	ret    

0000000000022440 <_Z11MakeIDTAttr14DescriptorTypehbh>:
   22440:	55                   	push   rbp
   22441:	48 89 e5             	mov    rbp,rsp
   22444:	48 83 ec 10          	sub    rsp,0x10
   22448:	88 c8                	mov    al,cl
   2244a:	88 d1                	mov    cl,dl
   2244c:	40 88 f2             	mov    dl,sil
   2244f:	89 7d f4             	mov    DWORD PTR [rbp-0xc],edi
   22452:	88 55 f3             	mov    BYTE PTR [rbp-0xd],dl
   22455:	80 e1 01             	and    cl,0x1
   22458:	88 4d f2             	mov    BYTE PTR [rbp-0xe],cl
   2245b:	88 45 f1             	mov    BYTE PTR [rbp-0xf],al
   2245e:	48 8d 7d f8          	lea    rdi,[rbp-0x8]
   22462:	31 f6                	xor    esi,esi
   22464:	ba 02 00 00 00       	mov    edx,0x2
   22469:	e8 62 46 ff ff       	call   16ad0 <memset>
   2246e:	0f b6 45 f1          	movzx  eax,BYTE PTR [rbp-0xf]
   22472:	66 89 c1             	mov    cx,ax
   22475:	66 8b 45 f8          	mov    ax,WORD PTR [rbp-0x8]
   22479:	66 83 e1 07          	and    cx,0x7
   2247d:	66 83 e0 f8          	and    ax,0xfff8
   22481:	66 09 c8             	or     ax,cx
   22484:	66 89 45 f8          	mov    WORD PTR [rbp-0x8],ax
   22488:	8b 45 f4             	mov    eax,DWORD PTR [rbp-0xc]
   2248b:	66 89 c1             	mov    cx,ax
   2248e:	66 8b 45 f8          	mov    ax,WORD PTR [rbp-0x8]
   22492:	66 83 e1 0f          	and    cx,0xf
   22496:	66 c1 e1 08          	shl    cx,0x8
   2249a:	66 25 ff f0          	and    ax,0xf0ff
   2249e:	66 09 c8             	or     ax,cx
   224a1:	66 89 45 f8          	mov    WORD PTR [rbp-0x8],ax
   224a5:	0f b6 45 f3          	movzx  eax,BYTE PTR [rbp-0xd]
   224a9:	66 89 c1             	mov    cx,ax
   224ac:	66 8b 45 f8          	mov    ax,WORD PTR [rbp-0x8]
   224b0:	66 83 e1 03          	and    cx,0x3
   224b4:	66 c1 e1 0d          	shl    cx,0xd
   224b8:	66 25 ff 9f          	and    ax,0x9fff
   224bc:	66 09 c8             	or     ax,cx
   224bf:	66 89 45 f8          	mov    WORD PTR [rbp-0x8],ax
   224c3:	8a 45 f2             	mov    al,BYTE PTR [rbp-0xe]
   224c6:	24 01                	and    al,0x1
   224c8:	0f b6 c0             	movzx  eax,al
   224cb:	66 89 c1             	mov    cx,ax
   224ce:	66 8b 45 f8          	mov    ax,WORD PTR [rbp-0x8]
   224d2:	66 83 e1 01          	and    cx,0x1
   224d6:	66 c1 e1 0f          	shl    cx,0xf
   224da:	66 25 ff 7f          	and    ax,0x7fff
   224de:	66 09 c8             	or     ax,cx
   224e1:	66 89 45 f8          	mov    WORD PTR [rbp-0x8],ax
   224e5:	66 8b 45 f8          	mov    ax,WORD PTR [rbp-0x8]
   224e9:	48 83 c4 10          	add    rsp,0x10
   224ed:	5d                   	pop    rbp
   224ee:	c3                   	ret    
   224ef:	cc                   	int3   

00000000000224f0 <_Z22SetupIdentityPageTablev>:
   224f0:	55                   	push   rbp
   224f1:	48 89 e5             	mov    rbp,rsp
   224f4:	48 83 ec 30          	sub    rsp,0x30
   224f8:	48 8d 3d 01 9b 10 00 	lea    rdi,[rip+0x109b01]        # 12c000 <_ZN12_GLOBAL__N_19pdp_tableE>
   224ff:	31 c0                	xor    eax,eax
   22501:	89 c6                	mov    esi,eax
   22503:	e8 08 01 00 00       	call   22610 <_ZNSt3__15arrayImLm512EEixEm>
   22508:	48 83 c8 03          	or     rax,0x3
   2250c:	48 89 45 f0          	mov    QWORD PTR [rbp-0x10],rax
   22510:	48 8d 3d e9 aa 10 00 	lea    rdi,[rip+0x10aae9]        # 12d000 <_ZN12_GLOBAL__N_110pml4_tableE>
   22517:	31 c0                	xor    eax,eax
   22519:	89 c6                	mov    esi,eax
   2251b:	e8 f0 00 00 00       	call   22610 <_ZNSt3__15arrayImLm512EEixEm>
   22520:	48 8b 4d f0          	mov    rcx,QWORD PTR [rbp-0x10]
   22524:	48 89 08             	mov    QWORD PTR [rax],rcx
   22527:	c7 45 fc 00 00 00 00 	mov    DWORD PTR [rbp-0x4],0x0
   2252e:	48 63 45 fc          	movsxd rax,DWORD PTR [rbp-0x4]
   22532:	48 89 45 e8          	mov    QWORD PTR [rbp-0x18],rax
   22536:	48 8d 3d c3 ba 10 00 	lea    rdi,[rip+0x10bac3]        # 12e000 <_ZN12_GLOBAL__N_114page_directoryE>
   2253d:	e8 fe 00 00 00       	call   22640 <_ZNKSt3__15arrayINS0_ImLm512EEELm64EE4sizeEv>
   22542:	48 89 c1             	mov    rcx,rax
   22545:	48 8b 45 e8          	mov    rax,QWORD PTR [rbp-0x18]
   22549:	48 39 c8             	cmp    rax,rcx
   2254c:	0f 83 a4 00 00 00    	jae    225f6 <_Z22SetupIdentityPageTablev+0x106>
   22552:	48 63 75 fc          	movsxd rsi,DWORD PTR [rbp-0x4]
   22556:	48 8d 3d a3 ba 10 00 	lea    rdi,[rip+0x10baa3]        # 12e000 <_ZN12_GLOBAL__N_114page_directoryE>
   2255d:	e8 fe 00 00 00       	call   22660 <_ZNSt3__15arrayINS0_ImLm512EEELm64EEixEm>
   22562:	48 83 c8 03          	or     rax,0x3
   22566:	48 89 45 e0          	mov    QWORD PTR [rbp-0x20],rax
   2256a:	48 63 75 fc          	movsxd rsi,DWORD PTR [rbp-0x4]
   2256e:	48 8d 3d 8b 9a 10 00 	lea    rdi,[rip+0x109a8b]        # 12c000 <_ZN12_GLOBAL__N_19pdp_tableE>
   22575:	e8 96 00 00 00       	call   22610 <_ZNSt3__15arrayImLm512EEixEm>
   2257a:	48 8b 4d e0          	mov    rcx,QWORD PTR [rbp-0x20]
   2257e:	48 89 08             	mov    QWORD PTR [rax],rcx
   22581:	c7 45 f8 00 00 00 00 	mov    DWORD PTR [rbp-0x8],0x0
   22588:	81 7d f8 00 02 00 00 	cmp    DWORD PTR [rbp-0x8],0x200
   2258f:	0f 8d 4e 00 00 00    	jge    225e3 <_Z22SetupIdentityPageTablev+0xf3>
   22595:	48 63 45 fc          	movsxd rax,DWORD PTR [rbp-0x4]
   22599:	48 c1 e0 1e          	shl    rax,0x1e
   2259d:	48 63 4d f8          	movsxd rcx,DWORD PTR [rbp-0x8]
   225a1:	48 c1 e1 15          	shl    rcx,0x15
   225a5:	48 01 c8             	add    rax,rcx
   225a8:	48 0d 83 00 00 00    	or     rax,0x83
   225ae:	48 89 45 d8          	mov    QWORD PTR [rbp-0x28],rax
   225b2:	48 63 75 fc          	movsxd rsi,DWORD PTR [rbp-0x4]
   225b6:	48 8d 3d 43 ba 10 00 	lea    rdi,[rip+0x10ba43]        # 12e000 <_ZN12_GLOBAL__N_114page_directoryE>
   225bd:	e8 9e 00 00 00       	call   22660 <_ZNSt3__15arrayINS0_ImLm512EEELm64EEixEm>
   225c2:	48 89 c7             	mov    rdi,rax
   225c5:	48 63 75 f8          	movsxd rsi,DWORD PTR [rbp-0x8]
   225c9:	e8 42 00 00 00       	call   22610 <_ZNSt3__15arrayImLm512EEixEm>
   225ce:	48 8b 4d d8          	mov    rcx,QWORD PTR [rbp-0x28]
   225d2:	48 89 08             	mov    QWORD PTR [rax],rcx
   225d5:	8b 45 f8             	mov    eax,DWORD PTR [rbp-0x8]
   225d8:	83 c0 01             	add    eax,0x1
   225db:	89 45 f8             	mov    DWORD PTR [rbp-0x8],eax
   225de:	e9 a5 ff ff ff       	jmp    22588 <_Z22SetupIdentityPageTablev+0x98>
   225e3:	e9 00 00 00 00       	jmp    225e8 <_Z22SetupIdentityPageTablev+0xf8>
   225e8:	8b 45 fc             	mov    eax,DWORD PTR [rbp-0x4]
   225eb:	83 c0 01             	add    eax,0x1
   225ee:	89 45 fc             	mov    DWORD PTR [rbp-0x4],eax
   225f1:	e9 38 ff ff ff       	jmp    2252e <_Z22SetupIdentityPageTablev+0x3e>
   225f6:	48 8d 3d 03 aa 10 00 	lea    rdi,[rip+0x10aa03]        # 12d000 <_ZN12_GLOBAL__N_110pml4_tableE>
   225fd:	e8 3f e3 ff ff       	call   20941 <SetCR3>
   22602:	48 83 c4 30          	add    rsp,0x30
   22606:	5d                   	pop    rbp
   22607:	c3                   	ret    
   22608:	cc                   	int3   
   22609:	cc                   	int3   
   2260a:	cc                   	int3   
   2260b:	cc                   	int3   
   2260c:	cc                   	int3   
   2260d:	cc                   	int3   
   2260e:	cc                   	int3   
   2260f:	cc                   	int3   

0000000000022610 <_ZNSt3__15arrayImLm512EEixEm>:
   22610:	55                   	push   rbp
   22611:	48 89 e5             	mov    rbp,rsp
   22614:	48 83 ec 10          	sub    rsp,0x10
   22618:	48 89 7d f8          	mov    QWORD PTR [rbp-0x8],rdi
   2261c:	48 89 75 f0          	mov    QWORD PTR [rbp-0x10],rsi
   22620:	48 8b 45 f8          	mov    rax,QWORD PTR [rbp-0x8]
   22624:	48 8b 4d f0          	mov    rcx,QWORD PTR [rbp-0x10]
   22628:	48 c1 e1 03          	shl    rcx,0x3
   2262c:	48 01 c8             	add    rax,rcx
   2262f:	48 83 c4 10          	add    rsp,0x10
   22633:	5d                   	pop    rbp
   22634:	c3                   	ret    
   22635:	cc                   	int3   
   22636:	cc                   	int3   
   22637:	cc                   	int3   
   22638:	cc                   	int3   
   22639:	cc                   	int3   
   2263a:	cc                   	int3   
   2263b:	cc                   	int3   
   2263c:	cc                   	int3   
   2263d:	cc                   	int3   
   2263e:	cc                   	int3   
   2263f:	cc                   	int3   

0000000000022640 <_ZNKSt3__15arrayINS0_ImLm512EEELm64EE4sizeEv>:
   22640:	55                   	push   rbp
   22641:	48 89 e5             	mov    rbp,rsp
   22644:	50                   	push   rax
   22645:	48 89 7d f8          	mov    QWORD PTR [rbp-0x8],rdi
   22649:	b8 40 00 00 00       	mov    eax,0x40
   2264e:	48 83 c4 08          	add    rsp,0x8
   22652:	5d                   	pop    rbp
   22653:	c3                   	ret    
   22654:	cc                   	int3   
   22655:	cc                   	int3   
   22656:	cc                   	int3   
   22657:	cc                   	int3   
   22658:	cc                   	int3   
   22659:	cc                   	int3   
   2265a:	cc                   	int3   
   2265b:	cc                   	int3   
   2265c:	cc                   	int3   
   2265d:	cc                   	int3   
   2265e:	cc                   	int3   
   2265f:	cc                   	int3   

0000000000022660 <_ZNSt3__15arrayINS0_ImLm512EEELm64EEixEm>:
   22660:	55                   	push   rbp
   22661:	48 89 e5             	mov    rbp,rsp
   22664:	48 83 ec 10          	sub    rsp,0x10
   22668:	48 89 7d f8          	mov    QWORD PTR [rbp-0x8],rdi
   2266c:	48 89 75 f0          	mov    QWORD PTR [rbp-0x10],rsi
   22670:	48 8b 45 f8          	mov    rax,QWORD PTR [rbp-0x8]
   22674:	48 8b 4d f0          	mov    rcx,QWORD PTR [rbp-0x10]
   22678:	48 c1 e1 0c          	shl    rcx,0xc
   2267c:	48 01 c8             	add    rax,rcx
   2267f:	48 83 c4 10          	add    rsp,0x10
   22683:	5d                   	pop    rbp
   22684:	c3                   	ret    
   22685:	cc                   	int3   
   22686:	cc                   	int3   
   22687:	cc                   	int3   
   22688:	cc                   	int3   
   22689:	cc                   	int3   
   2268a:	cc                   	int3   
   2268b:	cc                   	int3   
   2268c:	cc                   	int3   
   2268d:	cc                   	int3   
   2268e:	cc                   	int3   
   2268f:	cc                   	int3   

0000000000022690 <_Z17InitializeKeycodev>:
   22690:	55                   	push   rbp
   22691:	48 89 e5             	mov    rbp,rsp
   22694:	48 83 ec 04          	sub    rsp,0x4
   22698:	c7 45 fc 36 00 00 00 	mov    DWORD PTR [rbp-0x4],0x36
   2269f:	81 7d fc 00 01 00 00 	cmp    DWORD PTR [rbp-0x4],0x100
   226a6:	0f 8d 1d 00 00 00    	jge    226c9 <_Z17InitializeKeycodev+0x39>
   226ac:	48 63 4d fc          	movsxd rcx,DWORD PTR [rbp-0x4]
   226b0:	48 8d 05 f9 22 00 00 	lea    rax,[rip+0x22f9]        # 249b0 <keycode>
   226b7:	c6 04 08 00          	mov    BYTE PTR [rax+rcx*1],0x0
   226bb:	8b 45 fc             	mov    eax,DWORD PTR [rbp-0x4]
   226be:	83 c0 01             	add    eax,0x1
   226c1:	89 45 fc             	mov    DWORD PTR [rbp-0x4],eax
   226c4:	e9 d6 ff ff ff       	jmp    2269f <_Z17InitializeKeycodev+0xf>
   226c9:	c6 05 0b 23 00 00 5d 	mov    BYTE PTR [rip+0x230b],0x5d        # 249db <keycode+0x2b>
   226d0:	c6 05 f5 22 00 00 0a 	mov    BYTE PTR [rip+0x22f5],0xa        # 249cc <keycode+0x1c>
   226d7:	c6 05 0b 23 00 00 20 	mov    BYTE PTR [rip+0x230b],0x20        # 249e9 <keycode+0x39>
   226de:	c6 05 3e 23 00 00 5c 	mov    BYTE PTR [rip+0x233e],0x5c        # 24a23 <keycode+0x73>
   226e5:	c6 05 41 23 00 00 5c 	mov    BYTE PTR [rip+0x2341],0x5c        # 24a2d <keycode+0x7d>
   226ec:	48 83 c4 04          	add    rsp,0x4
   226f0:	5d                   	pop    rbp
   226f1:	c3                   	ret    
   226f2:	cc                   	int3   
   226f3:	cc                   	int3   
   226f4:	cc                   	int3   
   226f5:	cc                   	int3   
   226f6:	cc                   	int3   
   226f7:	cc                   	int3   
   226f8:	cc                   	int3   
   226f9:	cc                   	int3   
   226fa:	cc                   	int3   
   226fb:	cc                   	int3   
   226fc:	cc                   	int3   
   226fd:	cc                   	int3   
   226fe:	cc                   	int3   
   226ff:	cc                   	int3   

0000000000022700 <_ZN11InputBuffer3addEc>:
   22700:	55                   	push   rbp
   22701:	48 89 e5             	mov    rbp,rsp
   22704:	48 83 ec 20          	sub    rsp,0x20
   22708:	40 88 f0             	mov    al,sil
   2270b:	48 89 7d f0          	mov    QWORD PTR [rbp-0x10],rdi
   2270f:	88 45 ef             	mov    BYTE PTR [rbp-0x11],al
   22712:	48 8b 45 f0          	mov    rax,QWORD PTR [rbp-0x10]
   22716:	48 89 45 e0          	mov    QWORD PTR [rbp-0x20],rax
   2271a:	81 b8 08 02 00 00 f4 	cmp    DWORD PTR [rax+0x208],0x1f4
   22721:	01 00 00 
   22724:	0f 8d 47 00 00 00    	jge    22771 <_ZN11InputBuffer3addEc+0x71>
   2272a:	48 8b 45 e0          	mov    rax,QWORD PTR [rbp-0x20]
   2272e:	8a 55 ef             	mov    dl,BYTE PTR [rbp-0x11]
   22731:	48 63 88 00 02 00 00 	movsxd rcx,DWORD PTR [rax+0x200]
   22738:	88 14 08             	mov    BYTE PTR [rax+rcx*1],dl
   2273b:	8b 80 00 02 00 00    	mov    eax,DWORD PTR [rax+0x200]
   22741:	83 c0 01             	add    eax,0x1
   22744:	b9 f4 01 00 00       	mov    ecx,0x1f4
   22749:	99                   	cdq    
   2274a:	f7 f9                	idiv   ecx
   2274c:	48 8b 45 e0          	mov    rax,QWORD PTR [rbp-0x20]
   22750:	89 90 00 02 00 00    	mov    DWORD PTR [rax+0x200],edx
   22756:	8b 88 08 02 00 00    	mov    ecx,DWORD PTR [rax+0x208]
   2275c:	83 c1 01             	add    ecx,0x1
   2275f:	89 88 08 02 00 00    	mov    DWORD PTR [rax+0x208],ecx
   22765:	c7 45 fc 00 00 00 00 	mov    DWORD PTR [rbp-0x4],0x0
   2276c:	e9 08 00 00 00       	jmp    22779 <_ZN11InputBuffer3addEc+0x79>
   22771:	cc                   	int3   
   22772:	c7 45 fc 01 00 00 00 	mov    DWORD PTR [rbp-0x4],0x1
   22779:	8b 45 fc             	mov    eax,DWORD PTR [rbp-0x4]
   2277c:	48 83 c4 20          	add    rsp,0x20
   22780:	5d                   	pop    rbp
   22781:	c3                   	ret    
   22782:	66 2e 0f 1f 84 00 00 	cs nop WORD PTR [rax+rax*1+0x0]
   22789:	00 00 00 
   2278c:	0f 1f 40 00          	nop    DWORD PTR [rax+0x0]

0000000000022790 <_ZN11InputBuffer7isEnterEv>:
   22790:	55                   	push   rbp
   22791:	48 89 e5             	mov    rbp,rsp
   22794:	48 83 ec 20          	sub    rsp,0x20
   22798:	48 89 7d f0          	mov    QWORD PTR [rbp-0x10],rdi
   2279c:	48 8b 45 f0          	mov    rax,QWORD PTR [rbp-0x10]
   227a0:	48 89 45 e0          	mov    QWORD PTR [rbp-0x20],rax
   227a4:	8b 80 f8 01 00 00    	mov    eax,DWORD PTR [rax+0x1f8]
   227aa:	89 45 ec             	mov    DWORD PTR [rbp-0x14],eax
   227ad:	48 8b 4d e0          	mov    rcx,QWORD PTR [rbp-0x20]
   227b1:	8b 45 ec             	mov    eax,DWORD PTR [rbp-0x14]
   227b4:	3b 81 00 02 00 00    	cmp    eax,DWORD PTR [rcx+0x200]
   227ba:	0f 84 34 00 00 00    	je     227f4 <_ZN11InputBuffer7isEnterEv+0x64>
   227c0:	48 8b 45 e0          	mov    rax,QWORD PTR [rbp-0x20]
   227c4:	48 63 4d ec          	movsxd rcx,DWORD PTR [rbp-0x14]
   227c8:	0f be 04 08          	movsx  eax,BYTE PTR [rax+rcx*1]
   227cc:	83 f8 0a             	cmp    eax,0xa
   227cf:	0f 85 09 00 00 00    	jne    227de <_ZN11InputBuffer7isEnterEv+0x4e>
   227d5:	c6 45 ff 01          	mov    BYTE PTR [rbp-0x1],0x1
   227d9:	e9 1a 00 00 00       	jmp    227f8 <_ZN11InputBuffer7isEnterEv+0x68>
   227de:	8b 45 ec             	mov    eax,DWORD PTR [rbp-0x14]
   227e1:	83 c0 01             	add    eax,0x1
   227e4:	b9 f4 01 00 00       	mov    ecx,0x1f4
   227e9:	99                   	cdq    
   227ea:	f7 f9                	idiv   ecx
   227ec:	89 55 ec             	mov    DWORD PTR [rbp-0x14],edx
   227ef:	e9 b9 ff ff ff       	jmp    227ad <_ZN11InputBuffer7isEnterEv+0x1d>
   227f4:	c6 45 ff 00          	mov    BYTE PTR [rbp-0x1],0x0
   227f8:	8a 45 ff             	mov    al,BYTE PTR [rbp-0x1]
   227fb:	24 01                	and    al,0x1
   227fd:	0f b6 c0             	movzx  eax,al
   22800:	48 83 c4 20          	add    rsp,0x20
   22804:	5d                   	pop    rbp
   22805:	c3                   	ret    
   22806:	66 2e 0f 1f 84 00 00 	cs nop WORD PTR [rax+rax*1+0x0]
   2280d:	00 00 00 

0000000000022810 <_ZN11InputBuffer3popEv>:
   22810:	55                   	push   rbp
   22811:	48 89 e5             	mov    rbp,rsp
   22814:	48 83 ec 18          	sub    rsp,0x18
   22818:	48 89 7d f0          	mov    QWORD PTR [rbp-0x10],rdi
   2281c:	48 8b 4d f0          	mov    rcx,QWORD PTR [rbp-0x10]
   22820:	48 89 4d e8          	mov    QWORD PTR [rbp-0x18],rcx
   22824:	8b 81 fc 01 00 00    	mov    eax,DWORD PTR [rcx+0x1fc]
   2282a:	3b 81 00 02 00 00    	cmp    eax,DWORD PTR [rcx+0x200]
   22830:	0f 84 42 00 00 00    	je     22878 <_ZN11InputBuffer3popEv+0x68>
   22836:	48 8b 45 e8          	mov    rax,QWORD PTR [rbp-0x18]
   2283a:	8b 80 fc 01 00 00    	mov    eax,DWORD PTR [rax+0x1fc]
   22840:	83 c0 01             	add    eax,0x1
   22843:	b9 f4 01 00 00       	mov    ecx,0x1f4
   22848:	99                   	cdq    
   22849:	f7 f9                	idiv   ecx
   2284b:	48 8b 45 e8          	mov    rax,QWORD PTR [rbp-0x18]
   2284f:	89 90 fc 01 00 00    	mov    DWORD PTR [rax+0x1fc],edx
   22855:	8b 80 fc 01 00 00    	mov    eax,DWORD PTR [rax+0x1fc]
   2285b:	83 e8 01             	sub    eax,0x1
   2285e:	b9 f4 01 00 00       	mov    ecx,0x1f4
   22863:	99                   	cdq    
   22864:	f7 f9                	idiv   ecx
   22866:	48 8b 45 e8          	mov    rax,QWORD PTR [rbp-0x18]
   2286a:	48 63 ca             	movsxd rcx,edx
   2286d:	8a 04 08             	mov    al,BYTE PTR [rax+rcx*1]
   22870:	88 45 ff             	mov    BYTE PTR [rbp-0x1],al
   22873:	e9 04 00 00 00       	jmp    2287c <_ZN11InputBuffer3popEv+0x6c>
   22878:	c6 45 ff 00          	mov    BYTE PTR [rbp-0x1],0x0
   2287c:	0f be 45 ff          	movsx  eax,BYTE PTR [rbp-0x1]
   22880:	48 83 c4 18          	add    rsp,0x18
   22884:	5d                   	pop    rbp
   22885:	c3                   	ret    
   22886:	66 2e 0f 1f 84 00 00 	cs nop WORD PTR [rax+rax*1+0x0]
   2288d:	00 00 00 

0000000000022890 <_ZN11InputBuffer8allprintEv>:
   22890:	55                   	push   rbp
   22891:	48 89 e5             	mov    rbp,rsp
   22894:	48 83 ec 10          	sub    rsp,0x10
   22898:	48 89 7d f8          	mov    QWORD PTR [rbp-0x8],rdi
   2289c:	48 8b 75 f8          	mov    rsi,QWORD PTR [rbp-0x8]
   228a0:	48 89 75 f0          	mov    QWORD PTR [rbp-0x10],rsi
   228a4:	48 63 86 fc 01 00 00 	movsxd rax,DWORD PTR [rsi+0x1fc]
   228ab:	48 01 c6             	add    rsi,rax
   228ae:	48 8d 3d 42 d9 fe ff 	lea    rdi,[rip+0xfffffffffffed942]        # 101f7 <zeroes.0-0x449>
   228b5:	b0 00                	mov    al,0x0
   228b7:	e8 14 23 ff ff       	call   14bd0 <Printf>
   228bc:	48 8b 4d f0          	mov    rcx,QWORD PTR [rbp-0x10]
   228c0:	8b 81 fc 01 00 00    	mov    eax,DWORD PTR [rcx+0x1fc]
   228c6:	3b 81 00 02 00 00    	cmp    eax,DWORD PTR [rcx+0x200]
   228cc:	0f 8e 12 00 00 00    	jle    228e4 <_ZN11InputBuffer8allprintEv+0x54>
   228d2:	48 8b 75 f0          	mov    rsi,QWORD PTR [rbp-0x10]
   228d6:	48 8d 3d 1a d9 fe ff 	lea    rdi,[rip+0xfffffffffffed91a]        # 101f7 <zeroes.0-0x449>
   228dd:	b0 00                	mov    al,0x0
   228df:	e8 ec 22 ff ff       	call   14bd0 <Printf>
   228e4:	48 83 c4 10          	add    rsp,0x10
   228e8:	5d                   	pop    rbp
   228e9:	c3                   	ret    
   228ea:	66 0f 1f 44 00 00    	nop    WORD PTR [rax+rax*1+0x0]

00000000000228f0 <_ZN11InputBuffer6allpopEPc>:
   228f0:	55                   	push   rbp
   228f1:	48 89 e5             	mov    rbp,rsp
   228f4:	48 83 ec 20          	sub    rsp,0x20
   228f8:	48 89 7d f8          	mov    QWORD PTR [rbp-0x8],rdi
   228fc:	48 89 75 f0          	mov    QWORD PTR [rbp-0x10],rsi
   22900:	48 8b 75 f8          	mov    rsi,QWORD PTR [rbp-0x8]
   22904:	48 89 75 e8          	mov    QWORD PTR [rbp-0x18],rsi
   22908:	8b 86 00 02 00 00    	mov    eax,DWORD PTR [rsi+0x200]
   2290e:	83 e8 01             	sub    eax,0x1
   22911:	b9 f4 01 00 00       	mov    ecx,0x1f4
   22916:	99                   	cdq    
   22917:	f7 f9                	idiv   ecx
   22919:	48 63 c2             	movsxd rax,edx
   2291c:	c6 04 06 00          	mov    BYTE PTR [rsi+rax*1],0x0
   22920:	48 8b 7d f0          	mov    rdi,QWORD PTR [rbp-0x10]
   22924:	48 63 86 f8 01 00 00 	movsxd rax,DWORD PTR [rsi+0x1f8]
   2292b:	48 01 c6             	add    rsi,rax
   2292e:	e8 9d 27 ff ff       	call   150d0 <strcpy>
   22933:	48 8b 4d e8          	mov    rcx,QWORD PTR [rbp-0x18]
   22937:	8b 81 00 02 00 00    	mov    eax,DWORD PTR [rcx+0x200]
   2293d:	3b 81 f8 01 00 00    	cmp    eax,DWORD PTR [rcx+0x1f8]
   22943:	0f 8d 0d 00 00 00    	jge    22956 <_ZN11InputBuffer6allpopEPc+0x66>
   22949:	48 8b 75 e8          	mov    rsi,QWORD PTR [rbp-0x18]
   2294d:	48 8b 7d f0          	mov    rdi,QWORD PTR [rbp-0x10]
   22951:	e8 0a 28 ff ff       	call   15160 <strcat>
   22956:	48 8b 45 e8          	mov    rax,QWORD PTR [rbp-0x18]
   2295a:	8b 88 00 02 00 00    	mov    ecx,DWORD PTR [rax+0x200]
   22960:	89 88 f8 01 00 00    	mov    DWORD PTR [rax+0x1f8],ecx
   22966:	8b 88 00 02 00 00    	mov    ecx,DWORD PTR [rax+0x200]
   2296c:	89 88 fc 01 00 00    	mov    DWORD PTR [rax+0x1fc],ecx
   22972:	c7 80 08 02 00 00 00 	mov    DWORD PTR [rax+0x208],0x0
   22979:	00 00 00 
   2297c:	48 8b 7d f0          	mov    rdi,QWORD PTR [rbp-0x10]
   22980:	e8 4b 28 ff ff       	call   151d0 <strlen>
   22985:	48 83 c4 20          	add    rsp,0x20
   22989:	5d                   	pop    rbp
   2298a:	c3                   	ret    
   2298b:	0f 1f 44 00 00       	nop    DWORD PTR [rax+rax*1+0x0]

0000000000022990 <_Z9GetStringPc>:
   22990:	55                   	push   rbp
   22991:	48 89 e5             	mov    rbp,rsp
   22994:	48 83 ec 10          	sub    rsp,0x10
   22998:	48 89 7d f8          	mov    QWORD PTR [rbp-0x8],rdi
   2299c:	c7 45 f4 00 00 00 00 	mov    DWORD PTR [rbp-0xc],0x0
   229a3:	48 8d 3d 56 26 10 00 	lea    rdi,[rip+0x102656]        # 125000 <Input_Buffer>
   229aa:	e8 71 00 00 00       	call   22a20 <_ZN11InputBuffer7isInputEv>
   229af:	a8 01                	test   al,0x1
   229b1:	0f 85 05 00 00 00    	jne    229bc <_Z9GetStringPc+0x2c>
   229b7:	e9 1d 00 00 00       	jmp    229d9 <_Z9GetStringPc+0x49>
   229bc:	48 8d 3d 3d 26 10 00 	lea    rdi,[rip+0x10263d]        # 125000 <Input_Buffer>
   229c3:	e8 48 fe ff ff       	call   22810 <_ZN11InputBuffer3popEv>
   229c8:	0f be f0             	movsx  esi,al
   229cb:	48 8d 3d a0 d8 fe ff 	lea    rdi,[rip+0xfffffffffffed8a0]        # 10272 <zeroes.0-0x3ce>
   229d2:	b0 00                	mov    al,0x0
   229d4:	e8 f7 21 ff ff       	call   14bd0 <Printf>
   229d9:	48 8d 3d 20 26 10 00 	lea    rdi,[rip+0x102620]        # 125000 <Input_Buffer>
   229e0:	e8 ab fd ff ff       	call   22790 <_ZN11InputBuffer7isEnterEv>
   229e5:	a8 01                	test   al,0x1
   229e7:	0f 85 05 00 00 00    	jne    229f2 <_Z9GetStringPc+0x62>
   229ed:	e9 22 00 00 00       	jmp    22a14 <_Z9GetStringPc+0x84>
   229f2:	48 8d 3d 07 26 10 00 	lea    rdi,[rip+0x102607]        # 125000 <Input_Buffer>
   229f9:	e8 92 fe ff ff       	call   22890 <_ZN11InputBuffer8allprintEv>
   229fe:	48 8b 75 f8          	mov    rsi,QWORD PTR [rbp-0x8]
   22a02:	48 8d 3d f7 25 10 00 	lea    rdi,[rip+0x1025f7]        # 125000 <Input_Buffer>
   22a09:	e8 e2 fe ff ff       	call   228f0 <_ZN11InputBuffer6allpopEPc>
   22a0e:	48 83 c4 10          	add    rsp,0x10
   22a12:	5d                   	pop    rbp
   22a13:	c3                   	ret    
   22a14:	e9 8a ff ff ff       	jmp    229a3 <_Z9GetStringPc+0x13>
   22a19:	cc                   	int3   
   22a1a:	cc                   	int3   
   22a1b:	cc                   	int3   
   22a1c:	cc                   	int3   
   22a1d:	cc                   	int3   
   22a1e:	cc                   	int3   
   22a1f:	cc                   	int3   

0000000000022a20 <_ZN11InputBuffer7isInputEv>:
   22a20:	55                   	push   rbp
   22a21:	48 89 e5             	mov    rbp,rsp
   22a24:	50                   	push   rax
   22a25:	48 89 7d f8          	mov    QWORD PTR [rbp-0x8],rdi
   22a29:	48 8b 4d f8          	mov    rcx,QWORD PTR [rbp-0x8]
   22a2d:	8b 81 fc 01 00 00    	mov    eax,DWORD PTR [rcx+0x1fc]
   22a33:	3b 81 00 02 00 00    	cmp    eax,DWORD PTR [rcx+0x200]
   22a39:	0f 95 c0             	setne  al
   22a3c:	24 01                	and    al,0x1
   22a3e:	0f b6 c0             	movzx  eax,al
   22a41:	48 83 c4 08          	add    rsp,0x8
   22a45:	5d                   	pop    rbp
   22a46:	c3                   	ret    
   22a47:	cc                   	int3   
   22a48:	cc                   	int3   
   22a49:	cc                   	int3   
   22a4a:	cc                   	int3   
   22a4b:	cc                   	int3   
   22a4c:	cc                   	int3   
   22a4d:	cc                   	int3   
   22a4e:	cc                   	int3   
   22a4f:	cc                   	int3   

0000000000022a50 <_Z7commandPc>:
   22a50:	55                   	push   rbp
   22a51:	48 89 e5             	mov    rbp,rsp
   22a54:	48 83 ec 30          	sub    rsp,0x30
   22a58:	48 89 7d f0          	mov    QWORD PTR [rbp-0x10],rdi
   22a5c:	48 c7 45 e0 00 00 00 	mov    QWORD PTR [rbp-0x20],0x0
   22a63:	00 
   22a64:	48 8b 7d f0          	mov    rdi,QWORD PTR [rbp-0x10]
   22a68:	48 8d 35 a3 d7 fe ff 	lea    rsi,[rip+0xfffffffffffed7a3]        # 10212 <zeroes.0-0x42e>
   22a6f:	e8 bc 69 ff ff       	call   19430 <strcmp>
   22a74:	83 f8 00             	cmp    eax,0x0
   22a77:	0f 85 24 00 00 00    	jne    22aa1 <_Z7commandPc+0x51>
   22a7d:	bf 2c 01 00 00       	mov    edi,0x12c
   22a82:	e8 59 23 ff ff       	call   14de0 <_Z15WriteMandelbroti>
   22a87:	48 8d 3d 48 d8 fe ff 	lea    rdi,[rip+0xfffffffffffed848]        # 102d6 <zeroes.0-0x36a>
   22a8e:	b0 00                	mov    al,0x0
   22a90:	e8 3b 21 ff ff       	call   14bd0 <Printf>
   22a95:	c7 45 fc 00 00 00 00 	mov    DWORD PTR [rbp-0x4],0x0
   22a9c:	e9 c8 00 00 00       	jmp    22b69 <_Z7commandPc+0x119>
   22aa1:	48 8b 7d f0          	mov    rdi,QWORD PTR [rbp-0x10]
   22aa5:	48 8d 35 1b d8 fe ff 	lea    rsi,[rip+0xfffffffffffed81b]        # 102c7 <zeroes.0-0x379>
   22aac:	e8 7f 69 ff ff       	call   19430 <strcmp>
   22ab1:	83 f8 00             	cmp    eax,0x0
   22ab4:	0f 85 1f 00 00 00    	jne    22ad9 <_Z7commandPc+0x89>
   22aba:	e8 e1 23 ff ff       	call   14ea0 <_Z5clearv>
   22abf:	48 8d 3d 10 d8 fe ff 	lea    rdi,[rip+0xfffffffffffed810]        # 102d6 <zeroes.0-0x36a>
   22ac6:	b0 00                	mov    al,0x0
   22ac8:	e8 03 21 ff ff       	call   14bd0 <Printf>
   22acd:	c7 45 fc 00 00 00 00 	mov    DWORD PTR [rbp-0x4],0x0
   22ad4:	e9 90 00 00 00       	jmp    22b69 <_Z7commandPc+0x119>
   22ad9:	48 8b 7d f0          	mov    rdi,QWORD PTR [rbp-0x10]
   22add:	48 8d 35 e9 d7 fe ff 	lea    rsi,[rip+0xfffffffffffed7e9]        # 102cd <zeroes.0-0x373>
   22ae4:	e8 47 69 ff ff       	call   19430 <strcmp>
   22ae9:	83 f8 00             	cmp    eax,0x0
   22aec:	0f 85 0d 00 00 00    	jne    22aff <_Z7commandPc+0xaf>
   22af2:	cc                   	int3   
   22af3:	c7 45 fc 00 00 00 00 	mov    DWORD PTR [rbp-0x4],0x0
   22afa:	e9 6a 00 00 00       	jmp    22b69 <_Z7commandPc+0x119>
   22aff:	48 8b 7d f0          	mov    rdi,QWORD PTR [rbp-0x10]
   22b03:	48 8d 75 e0          	lea    rsi,[rbp-0x20]
   22b07:	ba 10 00 00 00       	mov    edx,0x10
   22b0c:	e8 9f 02 00 00       	call   22db0 <strtol>
   22b11:	48 89 45 e8          	mov    QWORD PTR [rbp-0x18],rax
   22b15:	48 83 7d e8 00       	cmp    QWORD PTR [rbp-0x18],0x0
   22b1a:	0f 84 30 00 00 00    	je     22b50 <_Z7commandPc+0x100>
   22b20:	48 83 7d e0 00       	cmp    QWORD PTR [rbp-0x20],0x0
   22b25:	0f 85 25 00 00 00    	jne    22b50 <_Z7commandPc+0x100>
   22b2b:	48 8b 45 e8          	mov    rax,QWORD PTR [rbp-0x18]
   22b2f:	48 89 45 d8          	mov    QWORD PTR [rbp-0x28],rax
   22b33:	48 8b 7d e8          	mov    rdi,QWORD PTR [rbp-0x18]
   22b37:	e8 74 e7 ff ff       	call   212b0 <_Z15search_mem_typem>
   22b3c:	48 8b 75 d8          	mov    rsi,QWORD PTR [rbp-0x28]
   22b40:	89 c2                	mov    edx,eax
   22b42:	48 8d 3d 46 d6 fe ff 	lea    rdi,[rip+0xfffffffffffed646]        # 1018f <zeroes.0-0x4b1>
   22b49:	b0 00                	mov    al,0x0
   22b4b:	e8 80 20 ff ff       	call   14bd0 <Printf>
   22b50:	48 8b 75 f0          	mov    rsi,QWORD PTR [rbp-0x10]
   22b54:	48 8d 3d c2 d6 fe ff 	lea    rdi,[rip+0xfffffffffffed6c2]        # 1021d <zeroes.0-0x423>
   22b5b:	b0 00                	mov    al,0x0
   22b5d:	e8 6e 20 ff ff       	call   14bd0 <Printf>
   22b62:	c7 45 fc 00 00 00 00 	mov    DWORD PTR [rbp-0x4],0x0
   22b69:	8b 45 fc             	mov    eax,DWORD PTR [rbp-0x4]
   22b6c:	48 83 c4 30          	add    rsp,0x30
   22b70:	5d                   	pop    rbp
   22b71:	c3                   	ret    
   22b72:	cc                   	int3   
   22b73:	cc                   	int3   
   22b74:	cc                   	int3   
   22b75:	cc                   	int3   
   22b76:	cc                   	int3   
   22b77:	cc                   	int3   
   22b78:	cc                   	int3   
   22b79:	cc                   	int3   
   22b7a:	cc                   	int3   
   22b7b:	cc                   	int3   
   22b7c:	cc                   	int3   
   22b7d:	cc                   	int3   
   22b7e:	cc                   	int3   
   22b7f:	cc                   	int3   

0000000000022b80 <_strtol_l.part.0>:
   22b80:	41 56                	push   r14
   22b82:	41 89 c9             	mov    r9d,ecx
   22b85:	49 89 f3             	mov    r11,rsi
   22b88:	48 8d 0d 12 db fe ff 	lea    rcx,[rip+0xfffffffffffedb12]        # 106a1 <_ctype_+0x1>
   22b8f:	41 55                	push   r13
   22b91:	41 54                	push   r12
   22b93:	55                   	push   rbp
   22b94:	48 89 fd             	mov    rbp,rdi
   22b97:	53                   	push   rbx
   22b98:	48 89 d3             	mov    rbx,rdx
   22b9b:	0f 1f 44 00 00       	nop    DWORD PTR [rax+rax*1+0x0]
   22ba0:	49 89 f0             	mov    r8,rsi
   22ba3:	0f b6 16             	movzx  edx,BYTE PTR [rsi]
   22ba6:	48 83 c6 01          	add    rsi,0x1
   22baa:	f6 04 11 08          	test   BYTE PTR [rcx+rdx*1],0x8
   22bae:	75 f0                	jne    22ba0 <_strtol_l.part.0+0x20>
   22bb0:	0f b6 fa             	movzx  edi,dl
   22bb3:	80 fa 2d             	cmp    dl,0x2d
   22bb6:	0f 84 0c 01 00 00    	je     22cc8 <_strtol_l.part.0+0x148>
   22bbc:	49 bc ff ff ff ff ff 	movabs r12,0x7fffffffffffffff
   22bc3:	ff ff 7f 
   22bc6:	45 31 ed             	xor    r13d,r13d
   22bc9:	83 ff 2b             	cmp    edi,0x2b
   22bcc:	0f 84 e6 00 00 00    	je     22cb8 <_strtol_l.part.0+0x138>
   22bd2:	41 f7 c1 ef ff ff ff 	test   r9d,0xffffffef
   22bd9:	75 25                	jne    22c00 <_strtol_l.part.0+0x80>
   22bdb:	83 ff 30             	cmp    edi,0x30
   22bde:	0f 84 1c 01 00 00    	je     22d00 <_strtol_l.part.0+0x180>
   22be4:	45 85 c9             	test   r9d,r9d
   22be7:	75 17                	jne    22c00 <_strtol_l.part.0+0x80>
   22be9:	41 ba 0a 00 00 00    	mov    r10d,0xa
   22bef:	41 b9 0a 00 00 00    	mov    r9d,0xa
   22bf5:	eb 0c                	jmp    22c03 <_strtol_l.part.0+0x83>
   22bf7:	45 85 c9             	test   r9d,r9d
   22bfa:	0f 84 2c 01 00 00    	je     22d2c <_strtol_l.part.0+0x1ac>
   22c00:	4d 63 d1             	movsxd r10,r9d
   22c03:	4c 89 e0             	mov    rax,r12
   22c06:	31 d2                	xor    edx,edx
   22c08:	45 31 f6             	xor    r14d,r14d
   22c0b:	45 31 c0             	xor    r8d,r8d
   22c0e:	49 f7 f2             	div    r10
   22c11:	eb 2a                	jmp    22c3d <_strtol_l.part.0+0xbd>
   22c13:	0f 1f 44 00 00       	nop    DWORD PTR [rax+rax*1+0x0]
   22c18:	8d 4f c9             	lea    ecx,[rdi-0x37]
   22c1b:	41 39 c9             	cmp    r9d,ecx
   22c1e:	7e 40                	jle    22c60 <_strtol_l.part.0+0xe0>
   22c20:	45 85 f6             	test   r14d,r14d
   22c23:	78 73                	js     22c98 <_strtol_l.part.0+0x118>
   22c25:	4c 39 c0             	cmp    rax,r8
   22c28:	72 6e                	jb     22c98 <_strtol_l.part.0+0x118>
   22c2a:	75 74                	jne    22ca0 <_strtol_l.part.0+0x120>
   22c2c:	41 be ff ff ff ff    	mov    r14d,0xffffffff
   22c32:	39 ca                	cmp    edx,ecx
   22c34:	7d 6a                	jge    22ca0 <_strtol_l.part.0+0x120>
   22c36:	0f b6 3e             	movzx  edi,BYTE PTR [rsi]
   22c39:	48 83 c6 01          	add    rsi,0x1
   22c3d:	8d 4f d0             	lea    ecx,[rdi-0x30]
   22c40:	83 f9 09             	cmp    ecx,0x9
   22c43:	76 d6                	jbe    22c1b <_strtol_l.part.0+0x9b>
   22c45:	8d 4f bf             	lea    ecx,[rdi-0x41]
   22c48:	83 f9 19             	cmp    ecx,0x19
   22c4b:	76 cb                	jbe    22c18 <_strtol_l.part.0+0x98>
   22c4d:	8d 4f 9f             	lea    ecx,[rdi-0x61]
   22c50:	83 f9 19             	cmp    ecx,0x19
   22c53:	77 0b                	ja     22c60 <_strtol_l.part.0+0xe0>
   22c55:	8d 4f a9             	lea    ecx,[rdi-0x57]
   22c58:	41 39 c9             	cmp    r9d,ecx
   22c5b:	7f c3                	jg     22c20 <_strtol_l.part.0+0xa0>
   22c5d:	0f 1f 00             	nop    DWORD PTR [rax]
   22c60:	41 83 fe ff          	cmp    r14d,0xffffffff
   22c64:	0f 84 7e 00 00 00    	je     22ce8 <_strtol_l.part.0+0x168>
   22c6a:	4c 89 c0             	mov    rax,r8
   22c6d:	48 f7 d8             	neg    rax
   22c70:	45 85 ed             	test   r13d,r13d
   22c73:	4c 0f 45 c0          	cmovne r8,rax
   22c77:	48 85 db             	test   rbx,rbx
   22c7a:	74 0c                	je     22c88 <_strtol_l.part.0+0x108>
   22c7c:	45 85 f6             	test   r14d,r14d
   22c7f:	0f 85 a2 00 00 00    	jne    22d27 <_strtol_l.part.0+0x1a7>
   22c85:	4c 89 1b             	mov    QWORD PTR [rbx],r11
   22c88:	5b                   	pop    rbx
   22c89:	4c 89 c0             	mov    rax,r8
   22c8c:	5d                   	pop    rbp
   22c8d:	41 5c                	pop    r12
   22c8f:	41 5d                	pop    r13
   22c91:	41 5e                	pop    r14
   22c93:	c3                   	ret    
   22c94:	0f 1f 40 00          	nop    DWORD PTR [rax+0x0]
   22c98:	41 be ff ff ff ff    	mov    r14d,0xffffffff
   22c9e:	eb 96                	jmp    22c36 <_strtol_l.part.0+0xb6>
   22ca0:	4d 0f af c2          	imul   r8,r10
   22ca4:	48 63 c9             	movsxd rcx,ecx
   22ca7:	41 be 01 00 00 00    	mov    r14d,0x1
   22cad:	49 01 c8             	add    r8,rcx
   22cb0:	eb 84                	jmp    22c36 <_strtol_l.part.0+0xb6>
   22cb2:	66 0f 1f 44 00 00    	nop    WORD PTR [rax+rax*1+0x0]
   22cb8:	0f b6 3e             	movzx  edi,BYTE PTR [rsi]
   22cbb:	49 8d 70 02          	lea    rsi,[r8+0x2]
   22cbf:	e9 0e ff ff ff       	jmp    22bd2 <_strtol_l.part.0+0x52>
   22cc4:	0f 1f 40 00          	nop    DWORD PTR [rax+0x0]
   22cc8:	0f b6 3e             	movzx  edi,BYTE PTR [rsi]
   22ccb:	41 bd 01 00 00 00    	mov    r13d,0x1
   22cd1:	49 8d 70 02          	lea    rsi,[r8+0x2]
   22cd5:	49 bc 00 00 00 00 00 	movabs r12,0x8000000000000000
   22cdc:	00 00 80 
   22cdf:	e9 ee fe ff ff       	jmp    22bd2 <_strtol_l.part.0+0x52>
   22ce4:	0f 1f 40 00          	nop    DWORD PTR [rax+0x0]
   22ce8:	c7 45 00 22 00 00 00 	mov    DWORD PTR [rbp+0x0],0x22
   22cef:	4d 89 e0             	mov    r8,r12
   22cf2:	48 85 db             	test   rbx,rbx
   22cf5:	74 91                	je     22c88 <_strtol_l.part.0+0x108>
   22cf7:	4c 8d 5e ff          	lea    r11,[rsi-0x1]
   22cfb:	4d 89 e0             	mov    r8,r12
   22cfe:	eb 85                	jmp    22c85 <_strtol_l.part.0+0x105>
   22d00:	0f b6 06             	movzx  eax,BYTE PTR [rsi]
   22d03:	83 e0 df             	and    eax,0xffffffdf
   22d06:	3c 58                	cmp    al,0x58
   22d08:	0f 85 e9 fe ff ff    	jne    22bf7 <_strtol_l.part.0+0x77>
   22d0e:	0f b6 7e 01          	movzx  edi,BYTE PTR [rsi+0x1]
   22d12:	41 ba 10 00 00 00    	mov    r10d,0x10
   22d18:	48 83 c6 02          	add    rsi,0x2
   22d1c:	41 b9 10 00 00 00    	mov    r9d,0x10
   22d22:	e9 dc fe ff ff       	jmp    22c03 <_strtol_l.part.0+0x83>
   22d27:	4d 89 c4             	mov    r12,r8
   22d2a:	eb cb                	jmp    22cf7 <_strtol_l.part.0+0x177>
   22d2c:	41 ba 08 00 00 00    	mov    r10d,0x8
   22d32:	41 b9 08 00 00 00    	mov    r9d,0x8
   22d38:	e9 c6 fe ff ff       	jmp    22c03 <_strtol_l.part.0+0x83>
   22d3d:	0f 1f 00             	nop    DWORD PTR [rax]

0000000000022d40 <_strtol_r>:
   22d40:	f3 0f 1e fa          	endbr64 
   22d44:	83 f9 24             	cmp    ecx,0x24
   22d47:	77 0f                	ja     22d58 <_strtol_r+0x18>
   22d49:	83 f9 01             	cmp    ecx,0x1
   22d4c:	74 0a                	je     22d58 <_strtol_r+0x18>
   22d4e:	e9 2d fe ff ff       	jmp    22b80 <_strtol_l.part.0>
   22d53:	0f 1f 44 00 00       	nop    DWORD PTR [rax+rax*1+0x0]
   22d58:	48 83 ec 08          	sub    rsp,0x8
   22d5c:	e8 7f b2 ff ff       	call   1dfe0 <__errno>
   22d61:	c7 00 16 00 00 00    	mov    DWORD PTR [rax],0x16
   22d67:	31 c0                	xor    eax,eax
   22d69:	48 83 c4 08          	add    rsp,0x8
   22d6d:	c3                   	ret    
   22d6e:	66 90                	xchg   ax,ax

0000000000022d70 <strtol_l>:
   22d70:	f3 0f 1e fa          	endbr64 
   22d74:	4c 8b 05 85 10 00 00 	mov    r8,QWORD PTR [rip+0x1085]        # 23e00 <_impure_ptr>
   22d7b:	83 fa 24             	cmp    edx,0x24
   22d7e:	77 18                	ja     22d98 <strtol_l+0x28>
   22d80:	89 d1                	mov    ecx,edx
   22d82:	83 fa 01             	cmp    edx,0x1
   22d85:	74 11                	je     22d98 <strtol_l+0x28>
   22d87:	48 89 f2             	mov    rdx,rsi
   22d8a:	48 89 fe             	mov    rsi,rdi
   22d8d:	4c 89 c7             	mov    rdi,r8
   22d90:	e9 eb fd ff ff       	jmp    22b80 <_strtol_l.part.0>
   22d95:	0f 1f 00             	nop    DWORD PTR [rax]
   22d98:	48 83 ec 08          	sub    rsp,0x8
   22d9c:	e8 3f b2 ff ff       	call   1dfe0 <__errno>
   22da1:	c7 00 16 00 00 00    	mov    DWORD PTR [rax],0x16
   22da7:	31 c0                	xor    eax,eax
   22da9:	48 83 c4 08          	add    rsp,0x8
   22dad:	c3                   	ret    
   22dae:	66 90                	xchg   ax,ax

0000000000022db0 <strtol>:
   22db0:	f3 0f 1e fa          	endbr64 
   22db4:	4c 8b 05 45 10 00 00 	mov    r8,QWORD PTR [rip+0x1045]        # 23e00 <_impure_ptr>
   22dbb:	83 fa 24             	cmp    edx,0x24
   22dbe:	77 18                	ja     22dd8 <strtol+0x28>
   22dc0:	89 d1                	mov    ecx,edx
   22dc2:	83 fa 01             	cmp    edx,0x1
   22dc5:	74 11                	je     22dd8 <strtol+0x28>
   22dc7:	48 89 f2             	mov    rdx,rsi
   22dca:	48 89 fe             	mov    rsi,rdi
   22dcd:	4c 89 c7             	mov    rdi,r8
   22dd0:	e9 ab fd ff ff       	jmp    22b80 <_strtol_l.part.0>
   22dd5:	0f 1f 00             	nop    DWORD PTR [rax]
   22dd8:	48 83 ec 08          	sub    rsp,0x8
   22ddc:	e8 ff b1 ff ff       	call   1dfe0 <__errno>
   22de1:	c7 00 16 00 00 00    	mov    DWORD PTR [rax],0x16
   22de7:	31 c0                	xor    eax,eax
   22de9:	48 83 c4 08          	add    rsp,0x8
   22ded:	c3                   	ret    
